((dp0
S'Mouse'
p1
(I0
g1
tp2
s(dp3
S'GGAGAGCGTGTTGCCAGGGCCCGAAGAGGGCTGGTGGCGGCGGTCTCGCTCGGCTCTTGGTTCTTTGCTGAAGAATTTGGCCACAAAGAGTTGCCAAGATAGCTGGGCCGGGAAGAAAGCGCCGCAGCCCTGACCCAGACGCTGTTGCCGACTCTGGGCCACTCTGGCTGGCTACCAAGCGGCTCAAGATGTCTGCAGGGGCCAGTGCTACAGGGCCCAGGAGGGGGCCGCCAGGACTGGAAGAGGCCACTAGTAAGAAGAAACAGAAGGATCGAGCAAACCTGGAAAGTAAAGATGGAGATGCTAGGAGAGTGTCCCTTCCTCGAAAGGAACCAACCAAAGATGAATTGTTGCTCGATTGGAGGCAGAGTGCAGATGAGGTGATTGTTAAGCTGCGCGTGGGAACAGGTCCCGTACGTCTGGAGGATGTAGATGCTGCGTTCACAGACACGGACTGTGTGGTGAGGCTTCCAGATGGTCGGCAGTGGGGTGGTGTCTTCTTTGCTGAAATACAAAGTTCTTGCACCAAAGTGCAGGCTCGCAAGGGTGGTCTTCTACAGCTAGTACTACCCAAGAAGGTGCCTCTGCTCACGTGGCCCTCTCTCCTGAAGAAACCTCTGGGAACCCAAGAGCTGGTGCCAGGTTTGCAGTGCCAGGAGAACGGGCAAGAGCTGTCTCCCATTGCCCTGGAGCCAGGCTCTGAGCCCCGCAGAGCTAAACAGGAAGCCCGAAACCAGAAGCGGGCCCAGGGCCGTGGTGAGGTAGGCTCGGGGGCTGGCCCTGGGACACAGGCAGGGCCCAGCGCCAAGAGGGCTGTTCACCTCCGCAGAGGGCCAGAAGGGGAAGGGTCCATGGATGGCCCCGGCCCCCAGGGTGATGCCCCGTCTTTCCTGTCTGACTCAGCTACCCAGGTTGAGGCTGAGGAGAAGCTCTGTGCTCCACCAATGAACACTCAAACAAGTCTCTTGAGCTCAGAGAAGAGTTTAGCCCTTCTGACAGTAGAGAAGACAGTGTCCCCCAGGAATGACCCAGTCGCCCCGGTTATGGTCCAGGACAGAGACCCTGAGCCTGAGCAAGAAGACCAAGTCAAAGAGGAGATGGCACTTGGGGCTGATCCTACAGCCTTGGTGGAGGAACCAGAGTCTATGGTGAACCTGGCATTTGTCAAGAACGACTCGTATGAGAAGGGCCCGGATTCGGTGGTGGTGCACGTGTACGTGAAGGAGATCCGCAGGGACAGCTCCCGAGTGCTCTTCCGAGAGCAGGACTTCACACTGATCTTCCAGACCAGGGACGGAAACTTTCTGAGGCTGCATCCGGGCTGTGGGCCCCACACCATCTTCCGATGGCAGGTGAAGCTCAGAAACTTGATTGAACCAGAGCAGTGTACGTTCTGTTTCACGGCCTCTCGAATCGATATCTGCCTCCGGAAGCGGCAGAGTCAGCGCTGGGGGGGACTGGAGGCCCCTGCTACACGAGTGGGTGGTGCAAAGGTTGCCGTGCCGACAGGCCCAACCCCTTTGGATTCAACCCCTCCAGGAGGTGGCCCCCACCCCCTGACAGGCCAGGAGGAAGCCAGGGCTGTGGAGAAGGAAAAACCCAAGGCTCGATCAGAGGACTCAGGGCTGGATGGTGTGGTGGCCCGCACCCCCTTGGAGCATGTAGCCCCAAAGCCAGACCCACACTTGGCCTCGCCCAAACCCACGTGTATGGTGCCTCCAATGCCGCACAGTCCAGTTAGTGGGGATAGTGTGGAGGAGGACGAAGAGGAAGAGAAGAAGGTGTGCCTGCCAGGCTTCACTGGCCTTGTCAACTTAGGGAACACCTGCTTCATGAATAGCGTCATTCAGTCTTTGTCCAACACTCGGGAACTTCGTGACTTCTTTCACGACCGATCCTTTGAAGCTGAGATTAACTACAATAACCCATTGGGGACTGGTGGGCGCCTCGCCATTGGCTTTGCTGTGCTGCTCCGGGCCCTATGGAAGGGCACTCACCAAGCCTTTCAGCCCTCCAAGCTAAAGGCCATTGTGGCAAGCAAGGCCAGCCAGTTCACAGGCTATGCACAGCATGATGCTCAAGAGTTCATGGCTTTCTTGTTGGATGGGCTACATGAAGACCTCAATCGAATCCAAAACAAACCCTACACAGAGACTGTGGACTCGGACGGGCGGCCCGATGAGGTGGTAACCGAGGAAGCATGGCAGCGGCACAAGATGAGAAATGATTCATTCATTGTGGACCTGTTTCAGGGCCAGTACAAGTCAAAGCTGGTGTGCCCTGTGTGTGCCAAGGTCTCCATCACTTTTGACCCGTTCCTTTATCTGCCGGTACCCTTGCCACAAAAGCAAAAGGTTCTCCCCATATTTTATTTTGCCAGGGAGCCCCACAGCAAGCCCATCAAGTTCCTGGTGAGTGTCAGCAAGGAGAACTCCAGCGCGAGTGAAGTGTTGGACTCCCTCTCTCAGAGTGTCCACGTGAAGCCTGAGAACCTGCGCCTAGCCGAGGTAATTAAGAACCGTTTCCACCGTGTTTTCTTGCCCTCCCACTCACTGGACGCTGTGTCCCCCACGGACGTGCTCCTCTGCTTTGAGCTGCTCTCCCCAGAACTGGCTAAGGAGCGGGTAGTAGTGCTGGAGGTGCAGCAGCGCCCCCAGGTACCCAGCATCCCTATCTCCAAGTGCGCAGCCTGCCAGCGGAAGCAGCAATCAGAAGAAGAAAAGCTGAAGCGCTGTACCCGTTGCTACCGTGTGGGCTACTGCAACCAGTTCTGCCAGAAAACCCATTGGCCTGACCACAAAGGCCTCTGCCGCCCTGAGAACATTGGCTACCCCTTCCTGGTCAGTGTGCCTGCTTCACGCCTCACTTATGCCCGTCTTGCTCAGCTACTAGAAGGTTATGCCAGGTACTCTGTGAGTGTATTCCAACCGCCCTTCCAGCCTGGCCGCATGGCTTTGGAATCGCAGAGCCCTGGCTGTACCACGTTGCTTTCAACCAGCTCTCTGGAGGCTGGGGACAGTGAAAGAGAACCCATTCAGCCTTCTGAGCTCCAGCTGGTGACCCCTGTGGCTGAAGGGGATACAGGGGCTCACCGAGTATGGCCGCCTGCTGATAGGGGTCCTGTGCCTAGCACCAGTGGACTCTCTTCTGAGATGCTGGCCAGTGGGCCTATCGAAGGTTGTCCCTTGCTTGCTGGTGAGAGGGTATCTCGGCCTGAAGCTGCTGTGCCTGGGTACCAACACTCAAGTGAATCTGTGAATACCCACACGCCCCAGTTCTTCATCTATAAAATTGATGCATCAAACCGTGAGCAGCGGCTGGAGGACAAAGGGGAGACACCATTGGAGCTAGGTGATGAGTGTAGCCTGGCTCTGGTGTGGCGGAACAATGAACGCCTGCAGGAGTTTGTGTTGGTAGCCTCCAAGGAGCTGGAATGTGCTGAAGATCCAGGCTCTGCTGGTGAGGCTGCCCGTGCTGGCCACTTCACCCTGGACCAGTGCCTCAACCTCTTTACACGGCCTGAAGTGCTGGCACCTGAGGAGGCCTGGTACTGCCCACAGTGCAAACAGCATCGTGAGGCCTCCAAACAGCTGCTGTTGTGGCGCCTACCGAACGTGCTGATTGTGCAGCTCAAGCGCTTCTCCTTTCGTAGTTTCATTTGGCGAGACAAGATCAATGACTTGGTGGAGTTTCCTGTTCGGAACCTGGACTTGAGCAAGTTCTGTATCGGTCAGAAAGAGGAGCAGCTGCCTAGCTATGACCTGTATGCTGTCATCAACCACTACGGAGGCATGATCGGTGGCCACTATACTGCTTGTGCACGGCTGCCCAATGATCGCAGTAGCCAGCGCAGTGACGTGGGCTGGCGCTTGTTTGATGACAGCACGGTGACAACAGTAGACGAAAGCCAGGTCGTGACGCGCTATGCCTATGTTCTCTTCTACCGTCGTCGGAACTCTCCTGTGGAGAGACCCCCCAGGGCAAGTCACTCTGAACACCACCCAGACCTAGGCCCTGCAGCTGAGGCTGCTGCCAGCCAGGGACTAGGCCCTGGCCAGGCCCCCGAGGTGGCCCCCACGCGGACAGCCCCTGAACGCTTCGCCCCCCCTGTGGACCGCCCAGCCCCCACGTACAGCAACATGGAGGAGGTCGATTAGCAGGTCCCTGGCTGATGGAGGGACTGGGTTTGGGAGGTCCCCTACAGAGGGCCATCTCTGACATTTTTTTCTTCTGTCACTCAGAGGACACTGGCTCTACCAATGGGAATTTGGGGGGACATGATTTGAGGGTGGGAACCTCGCAAGTTGTGACCTCTTGTTAACTTGGTCCCCAGATTAGTAGGCCTTGGCCTTTCCAGCTGCCTTCAGTGCTGCGTGTTTGGTTCTCAGTTGTACCTTCAATTCTTTCTGACCTGCATTACAAACATTATAATTTTATTCTAAAAATTGTAATTTTTTGCATTTTGGAAGTGACTGCTGCTGTTTAAATATATTTTAAAAATAAATAATAAATAAGCCG'
p4
(I20
S'MSAGASATGPRRGPPGLEEATSKKKQKDRANLESKDGDARRVSLPRKEPTKDELLLDWRQSADEVIVKLRVGTGPVRLEDVDAAFTDTDCVVRLPDGRQWGGVFFAEIQSSCTKVQARKGGLLQLVLPKKVPLLTWPSLLKKPLGTQELVPGLQCQENGQELSPIALEPGSEPRRAKQEARNQKRAQGRGEVGSGAGPGTQAGPSAKRAVHLRRGPEGEGSMDGPGPQGDAPSFLSDSATQVEAEEKLCAPPMNTQTSLLSSEKSLALLTVEKTVSPRNDPVAPVMVQDRDPEPEQEDQVKEEMALGADPTALVEEPESMVNLAFVKNDSYEKGPDSVVVHVYVKEIRRDSSRVLFREQDFTLIFQTRDGNFLRLHPGCGPHTIFRWQVKLRNLIEPEQCTFCFTASRIDICLRKRQSQRWGGLEAPATRVGGAKVAVPTGPTPLDSTPPGGGPHPLTGQEEARAVEKEKPKARSEDSGLDGVVARTPLEHVAPKPDPHLASPKPTCMVPPMPHSPVSGDSVEEDEEEEKKVCLPGFTGLVNLGNTCFMNSVIQSLSNTRELRDFFHDRSFEAEINYNNPLGTGGRLAIGFAVLLRALWKGTHQAFQPSKLKAIVASKASQFTGYAQHDAQEFMAFLLDGLHEDLNRIQNKPYTETVDSDGRPDEVVTEEAWQRHKMRNDSFIVDLFQGQYKSKLVCPVCAKVSITFDPFLYLPVPLPQKQKVLPIFYFAREPHSKPIKFLVSVSKENSSASEVLDSLSQSVHVKPENLRLAEVIKNRFHRVFLPSHSLDAVSPTDVLLCFELLSPELAKERVVVLEVQQRPQVPSIPISKCAACQRKQQSEEEKLKRCTRCYRVGYCNQFCQKTHWPDHKGLCRPENIGYPFLVSVPASRLTYARLAQLLEGYARYSVSVFQPPFQPGRMALESQSPGCTTLLSTSSLEAGDSEREPIQPSELQLVTPVAEGDTGAHRVWPPADRGPVPSTSGLSSEMLASGPIEGCPLLAGERVSRPEAAVPGYQHSSESVNTHTPQFFIYKIDASNREQRLEDKGETPLELGDECSLALVWRNNERLQEFVLVASKELECAEDPGSAGEAARAGHFTLDQCLNLFTRPEVLAPEEAWYCPQCKQHREASKQLLLWRLPNVLIVQLKRFSFRSFIWRDKINDLVEFPVRNLDLSKFCIGQKEEQLPSYDLYAVINHYGGMIGGHYTACARLPNDRSSQRSDVGWRLFDDSTVTTVDESQVVTRYAYVLFYRRRNSPVERPPRASHSEHHPDLGPAAEAAASQGLGPGQAPEVAPTRTAPERFAPPVDRPAPTYSNMEEVD'
p5
tp6
sS'CGGCCACTTGGAGCAGCTCTGCCGCGGGGACTGCACTGTCCGCCCTGCCAGACCCGCCCCGACTGGGGCTCGCCGTCGCCAGCAGTCAGCACTGCGACCTCGGGCCCTTCGCCGGCTATGGCTGCGTCCTGGGGCTGAGCCCGCAGGTTGTGTGACCAAGATTCGCAAAGAAAGAGAGAGAGAGACCGATACAGAAAGAGAAGAAGGAGGGGCGGGCTCCTGGCAAGGCGTTTGCTCCTGAGCAGAGTCCTGCAAAGATGGAGAAGGAGGAAGAGACAACCCGGGAGCTGCTGCTGCCCAACTGGCAGGGCAGTGGTTCCCACGGGCTGACCATTGCCCAGAGGGATGATGGAGTCTTTGTTCAGGAGGTGATGCAGAACTCCCCTGCGGCCCGCACTGGGGTGGTCAAGGAGGGGGACCAGATTGTGGGTGCCACCATCTACTTTGACAACCTGCAGTCTGGTGAGGTGACCCAGTTGCTGAATACCATGGGGCATCACACTGTTGGCTTGAAGTTGCACCGTAAAGGGGACCGTTCCCCTGAGCCTGGACAGACCTGGACCCATGAAGTCTTCAGTTCCCGTAGCTCTGAAGTGGTTCTGAGCGGGGATGATGAGGACTACCAGCGCATCTACACCACGAAGATCAAGCCACGCCTGAGGTCGGAGGATGGAGTAGAAGGGGACCTTGGGGAGACCCAGAGCCGCACCATCACAGTGACTAGAAGGGTTACAGCCTACACTGTGGATGTGACCGGTCGGGAAGGAGTGAAGGACATTGACATCACCAGCCCTGAGTTCATGATCAAGATACCAAGGCATGAAGTGACTGAAATCTCCAACACAGATGTGGAAACCCAGCCAGGGAAAACGGTGATCCGACTGCCATCGGGATCCGGGCCAGCCTCTCCAACCACAGGCTCTGCTGTGGATATCCGGGCAGGTGCCATTTCTGCTTCAGGACCAGAGCTTGAAGGTGCTGGCCACTCAAAATTCCAGGTCACTGTGCCTGGGGCAAAGGTGGGAAGCCTAGATGTCAATGTCAAAGCAAAAGGCTTGGACTTGGGTGGCAAAGGAGGGATCCGAGTTCCAGGAGTAGACGTTTCGTCTTCTCTTGGGGCTGGCTCAGTAGAGGTACAGGCCCCATCCCTCCAGAGTGGTGATATTGGGAAAATTAAAATTCCTACCATGAAGGTGCCAAAATTTGGTGTCTCCGCAGGTCTGGATGGCCAGATTCCAGAGGTAGGGCTGAGTGTTTCTGCACCTGAATCCTCTGTGGGACACAAGGGTGACAAGCCAGGCTTGGCTATTGGGGGAAACATCCAGGCTCCTCACCTGGAAGTAAATCCCTCCTCTGTCAATATTGAGGGGCTTGAGGGGAAACTGAAGGGTCCCCAGATCACTGGGCCATCACTTGAAGGTGACTTAGGCCTGAAAGGTACCAAGCTGCAAGGGAACATAGGAATGGATGCCTGTGCTTCCAAAATCGAGGGCAGCATCACTGGTCCTAGTGTGGAAATCGGAACCCCTGATGTTGATGTTCATGGGCTAGGGGGCAAACTGAATATGCCCAAGATGAAAGTCCCTAAGTTCTCTGCATCAGGTTCAAAGGGAGAGGGGATTGGCCTTGATGTGGCACTGCCCACAGGTGAAGTGACCCTTCCTGGGGTCTCTGGGGATGTAAGTCTGCCTGAGATTGCTACTGGTGGGCTCGAAGGGAAGATGAAGGGTGCTAAAGTCAAGACTCCTGAAATGATCATCCAGAAACCTAAAATCTCCATGCAGGATGTGGATCTGAGCCTGGGGTCCTGTAAACTGAAAGGAAATATGAAGACATCTGCTCCTGAGGTGAAAGGTGATGTTAAAGGCCCTCAGATGGCAGTTAAAGGCTCCAGAGTGGACATAGAGACACCAAACTTAGAGGGGACCTTGACAGGTCCCAAGATCAGCAGCCCTTCTGGAAAAATAGGGGCCTGTAGGATTTCTATGGCAGATGTAGACTTAAATGTAGCTGCACCTAAAGGGAAAGGGGGTGTAGATGTCATTCTCCCCAATGTAGAAGGAAAAGCCAAAGGTCTTGAAGTTGATGTCAAAGGCCCCAAAATGGACATCAGTGCTCCAGATGTAGAAGTCCATGGTCCAGAATGGAATTTGAAGATGCCCAAGTTCAGTGTCCCAGGAGTCAAAGGAGAAGGCCTAGATGTAAATGTTACTCTGCCCGAAGGAGATATTAGTATTTCGGGGCCTAAGGTCAATGTAGAAGCTCCAAACGTCAACATGGAGGGTCTGGGTGGCAAACTTAAAGGCCCTGACATTAATCTTCCTGAAGTAAGTGTCAAGACTCCAAAGATTTCTATGCCTGATGTGGATCTGCATATCAAAGGGCCAAAGGTGAAGGGAGAGTATGAAGTAACACCACCAAAGCTTGAGGGGGAACTGAAAGGCTCCAAAGTGGACATTGACACCCCACAAGTGGATGTTCATGGCCCAGACCTGAAGATTCCCAAGATGAAAATGCCCAAATTCAGTGTGCCAGGGTTCAAAGCAGAGGGCCCAGAAGTGGATGTGAACCTGCCCAAGGCTGACCTTGACATTTCTGGGACTAAGGTGGAAGTCAGTGCTCCAGATGTAAGCATTGAAGGATCAGAAGGGAAGTTGAAAGGGCATAAGTTTAAAATGCCTGAAATGAATATCAGAGCTCCAAAGATCTCCATGCCAGATGTGGACTTACACTTAAAAGGCCCCAATGTAAAGGGAGAATATGATGTCACAGTGCCAAGGGCAGAAGGTGAGATTAAAGTTCCTGATGTTGAACTTAAAAGTGCTAAACTGGACATTGATGTTCCAAATGTGGATGTTCAAGGTCCTGAATTGCATATGAAGATGCCCAAGATAAAAATGCCCAAGTTTGGCATGCCAGGCTTCAAGGCAGAGAGCCCAGAAATGGAGGTGAATCTCCCAAAGTCTGACATTGATGTCTCAGGACCCAATGTGGATGTCAAAGTTCCAGATGTGAACATTGAAGGACCTGAAGGAAAGCTGAAGGGTCCTAAGCTGAAGATGCCTGAGATGAACATCAAGGCCCCAAAGATATCCATGCCTGATGTGGATTTGCATATGAAAGGCCCCAAAGTTAAAGGAGAATATGATGTCACAATGCCAAAGCTGGAAGGAGACTTGAAAGGCCCCAAAGTAGATGTCAGTGTTCCAGATGTTGATGTTCATGGTCCCGACTGGAACTTGAAAATGCCAAAGATTAAAATGCCCAAATTCAGCATGCCTAGTCTCAAAGGTGAAGGCCCAGAGTTGGATGTGAACATGCCCAAGGCTGATGTGGACATTTCTGTACCAAAGCTAGATATTAGTGCTCCAGATCTGAACCTTGAGGGACCAGAAGGGAAGTTGAAAGGCCCCAAATTTAAGATGCCTGAGATGCACTTCAAGGCTCCAAAGGTGTCTCTACCAGATGTGGATCTGGATCTCAAAGGACCCAAAATGAAAGGAAATCTAGACATGTCTGCACCAAAAATAGAGGGAGAGATGAAAGCTCCAGATGTGGACATTAAAGGTCCAAATGTAGATATTAAAGCACCAGAAGTGGATGTGCAAGGCCCAGAATGGAGCCTGAAGATGCCAAAGATGAAAATGCCCAAGTTCAGTATGCCTACTCTCAAAGGTGAGGGTCCAGATGTGGATGTGAGCTTGCCTAAGGCTACTATTGATGTCTCAGGACCTAAACTTGACATTGAAACCTCAGATGTGAGCCTTGAGGGACCAGAAGGAAAGCTGAAGGGCCCCAAGTTTAAGATGCCTGACATGCACTTCAAGGCACCCAAGATCTCCATGCCTGATGTGGACTTAAACATGAAGGGCCCCAAAGTCAAGGGGGACATGGATGTGACAGTGCCCAAGATAGAAGGTGAAATGAAAGTGCCAGATGTGGATATCAAAGGCCCTAAAGTGGACATCAGTGCCCCAGATGTGGATGTACAAGGCCCAGACTGGCACCTGAAGATGCCCAAGATGAAAATGCCTAAGTTCAGCATGCCTGGCTTCAAAGCAGAGGGCCCAGAAGTGAGCCTGCCCAAGGCTGACCTTGATGTCTCAGGACCCAAGGTGGACATTGATGTTCCTGATGTGAATATTGAAGGTCCAGATGCAAAGCTGAAGGGCCCCAAGTTCAAGATGCCTGAGATGAACATCAAGGCTCCAAAGATCTCCATGCCAGATTTACATCTTAAGGGTCCCAAAGTGAAGGGTGATGTAGATGTTTCCCTGCCCAAAGTGGAAGGTGACCTCAAAGGCCCAGACATTGACATCAAAGGTCCCAAAATGGACATCAATGCTCCAGATATGGACGTGCAGGGCCCAGACTGGCACCTGAAGATGCCCAAGATGAAAATGCCCAAGTTCAGCATGCCTGGCTTCAAAGCAGAGGGCCCAGAAGTGGATGTGAATCTGCCCAAGGCTGACATTGATGTCTCAGGGCCCAAAGTTGATATTGAGGCCCCAGATGTGAGCATCGAGGGACCAGAAGGGAAGCTGAAGGGCCCCAAGTTTAAGATGCCTGACATGCACTTCAAGGCCCCCAAGATCTCCATGCCTGATGTGGACTTGAATATTAAGGGGCCCAAAGGAAAAGCAGATGTGGATGCATCATTGCCTGAGGTAGAAGGTGGAGTAAAAGTGCCAGATGTGGACATTAAAGGACCCAAAGTTGGCATTGATGCTCCAGATGTTGAGGTTCATGGCCCAGACTGGCACCTTAAGATGCCCAAGGTGAAAATGCCCAAGTTCAGCATGCCTGGCTTCAAAGGAGAAGGTCCAGAAGTAGACATCCCCAAGGCCAACATTGATGTTTCAGGACCCAAGGTAGACATCGATGTTCCAGATGTAAATATTGAAGGTCCAGATACAAAACTAAAAGGTCCAAAATTTAAGATGCCAGAAATGAACATAAAGCCTCAGAAGATATCCATGCCAGATGTTAGCTTGAATTTGAAAGGCCCTAAGGTAAAAGCAGATTGTGATGTCTCAGTTCCAAAAGTGGGAGGAGAAATAAAAGCTCCTGCTGTTGACATCAAAGGTCCTAAAGTAGAGGCACCAGATGTGGAAGTTCATGGCCCAGACTGGCACCTGAAGATGCCCAAGGTCAAAATGCCTAAGTTCAGCATGCCTGGCTTCAAAGGAGAGGGTGCAGAAGTAGATGTGAATCTTCAAAAGGCCAATATTGATGTCTCAGGACCCAAGGTGGACATTGATGTTCCAGATGTGAATATTGAAGGGCCAGAAGGGAAACTAAAGGGTCCCAAGTTCAAGATGCCAAGCATGAATATACAGACACACAAAATCTCTATGCCTGATGTTGGGCTTAATTTGAAAGGACCTAAACTGAAAAGTGGTGTAGATGTTTCTCTTCCAAAAGTAGAGGGAGAATTGAAGGGTCCTGAAGTTGATGTGGATGTTGGTGATATTGATATTGAATGTCCAGAAGGGAAGCTGAAGGGTCCCAAGTTTAAGATGCCTGACATGCACTTCAAGACTCCTAAGATCTCCATGCCTGATGTAGATTTACATCTGAAAGGCCCCAAAGTCAAGGGGGATATGGATGTGACAATGCCCAAGATAGAAGGTGAAATGAAAGTTCCAGATGTGGACATCAAAGGCCCCAAAGTGGACATCAATGCCCCAGATGTAGATGTGCGTGGCCCAGACTGGCACCTGAAGATGCCCAAGGTGAAAATGCCTAAGTTCAGCATGCCTGGTTTCAAAGCAGAGGGCCCTGAAGTGGATGTGAACCTGCCCAAGGCTGACATTGATGTCTCAGGACCCAAAGTGGACATTGATGTTCCTGACTTAGATATTGAGGGTCCAGAAGGAAAACTGAAAGGCTCCAAATTTAAGATGCCTAAGTTGAATATCAAGGCCGCCAAGATCTCTATGCCCGATGTGGACTTGAATTTTAAGGGGCCCAAACTGAAAGGAGAGATAGATGCTTCTGTGCCAGAAATGGAAGCTGATCTCAGAGGCCCTCAAGTTGACATCAAAGGGACCAATGTGGATGTGAAAGTACCTGATGTTGATCTGGAATGTCCTGATGCAAAGTTGAAAGGCCCCAAGTTCAAGATGCCTGACATGCACTTCAAGGCTCCTAAGATCTCCATGCCTGATGTGGACTTGCATCTGAAAGGCCCCAAAGTCAAGGGGGACATGGATGTGACAGTGCCAAAATTAGAGGGAGAATTAAAAGGCCCAAGTGTGGATGTGGAAGTACCTGATGTTGATCTGGAATGTCCTGATGCAAAGTTGAAAGGCCCCAAGTTCAAGATGCCTGACATGCACTTCAAGGCTCCTAAGATCTCCATGCCTGATGTGGACTTGCATCTGAAAGGCCCCAAAGTCAAGGGGGACATGGATGTGACAGTGCCAAAATTAGAGGGAGAATTAAAAGGCCCAAGTGTGGATGTGGAAGTACCTGATGTTGATCTGGAATGTCCTGATGCAAAGTTGAAAGGCCCCAAGTTCAAGATGCCTGACATGCACTTCAAGGCTCCTAAGATCTCCATGCCTGATGTGGACTTGCATCTGAAAGGCCCCAAAGTCAAGGGTGACGTGGATGTGACAGTGCCAAAATTAGAGGGAGAATTAAAAGGCCCAAGTGTGGATGTGGAAGTACCTGATGTTGATCTGGAATGTCCTGATGCAAAGTTGAAAGGCCCCAAGTTCAAGATGCCTGACATGCACTTCAAGGCTCCTAAGATCTCCATGCCTGATGTGGACTTGCATCTGAAAGGCCCCAAAGTCAAGGGGGACATGGATGTGACAGTGCCCAAGATAGAAGGTGAGATGAAAGTGCCAGATGTGGATATCAAAGGCCCTAAAGTGGACATCAATGCCCCAGATGTGGATGTGCGTGGCCCAGACTGGCACCTGAAGATGCCCAAGATGAAAATGCCCAAGTTCAGCATGCCTGGCTTCAAAGCAGAGGGCCCAGAAGTGGATGTGAACTTGCCCAAGGCTGACATTGATGTCTCAGGACCCAAGGTGGACATTGATGTTCCAGATGTGAATATTGAAGGGCCAGAAGGGAAGCTGAAGGGCCCCAAATTTAAGATGCCTGACATGCACTTCAAGGCCCCCAAGATCTCCATGCCTGATGTTGATTTCAACTTAAAGGGTCCTAAAATCAAAGGAGATATTGACGTTTCAGTCCCTAAGATTGAAGGAGAATTAAAGGGTCCAGAACTGGATCTCAAGGGCCCCAAATTGGATGCCAACATACCAGAAGTTGCTGTTGAAGGCCCAGAAGGTAAATGGAAAAGCCCCAAGTTCAAGATGCCAGACATGCACTTCAAAACTCCCAAAATCTCCATGCCAGACATTGATCTTCACTTAAAGAGTCCAAAGATAAAGGGGGAGGTGGATGTAGATGTTCCCAAATTGGAAGGAGACCTCAAAGGGCCAAATGTGGACATGAGCAGGCCAGACATTGAGATTGAAGGACCAGAGGGCAAATTGAAAGGCCCGAAGTTCAAAATGCCTGAGATGAACATCAAGGCTCCCAAGATCTCCATGCCTGACTTTGATTTGCATCTTAAGGGTCCTAAAGTGAAGGGTGATGTAGATATTTCTCTGCCCAAAGTAGAAGGTGACATCAAAGGCCCAGAGGTTGACATCAAAGGTCCCAAAGTGGATATCAATGCTCCAGATGTGGACGTGCAGGGCCCAGACTGGCACCTGAAGATGCCCAAAATGAAAATGCCCAAGTTCAGCATGCCTGGCTTCAAAGCAGAGGGCCCAGAAGTGGATGTGAACTTGCCCAAGGCTGACATTGATGTCTCAGGACCCAAGGTGGACATTGATGTTCCTGATGTGAACATTGAAGGGCCAGATGCAAAACTGAAGGGCCCCAAGTTCAAGATGCCTGAGATGAACATCAAGGCCCCCAAGATCTCCATGCCTGACATTGACTTAAACCTGAAAGGCCCCAAAGTGAAGGGTGATGTGGATGTGTCTCTGCCCAAAGTGGAAGGTGAGATTAAAGTTCCTGAAGTTGACATCAAAGGCCCCAAAGTGGACATTGATGTTCCAGATGTGGATGTCCATGGCCCAGACTGGCACCTGAAGATGCCCAAAATAAAAATGCCCAAGTTCAGCATGCCTGGCTTCAAGGGAGAAGGCCCTGAAGTAGATGTGAGCCTGCCCAATGCTGACCTTGATGTCTCAGGACCCAAGGTGGACATTGATGTTCCAGATGTGAATATTGAAGGTCCAGATGCAAAGCTGAAGGGCCCCAAGTTCAAGATGCCTGAGATGAACATCAAGGCTCCAAAGATCTCCATGCCAGATTTACATCTTAAGGGTCCCAAAGTGAAGGGTGATGTAGATGTTTCCCTGCCCAAAGTGGAAGGTGACCTCAAAGGCCCAGATGTTGACATCAAAGGTCCCAAAATGGACATCAATGCTCCAGATATGGACGTGCAGGGCCCAGACTGGCACCTGAAGATGCCCAAAATGAAAATGCCCAAGTTCAGCATGCCTGGCTTCAAAGCAGAGGGTCCAGAAGTAGATGTGAACCTGCCCAAGGCTGACCTTGATGTCTCAGGACCCAAGGTGGACATTGATGTTCCAGATGTGAACATTGAAGGGCCAGATGCAAAACTGAAAGGCCCCAAGTTCAAGATGCCTGAGATGAACATCAAGGCCCCCAAGATCTCCATGCCTGACATTGACTTAAACCTGAAAGGCCCCAAAGTGAAGGGTGATGTGGATATGTCTCTGCCCAAAGTGGAAGGTGAGATTAAAGTTCCTGAAGTTGACATCAAAGGCCCCAAAGTGGACATTGATGTTCCAGATGTGGATGTTCATGGCCCAGACTGGCACCTGAAGATGCCCAAGGTGAAAATGCCCAAGTTCAGCATGCCTGGCTTCAAGGGAGAAGGCCCTGAAGTAGATGTGAACCTGCCCAAGGCTGACCTTGATGTCTCAGGACCCAAGGTGGACATTGATGTTCCTGATGTGAATATTGAAGGGCCAGATGCAAAACTGAAGGGTCCCAAGTTTAAGATGCCAGAGGTGAACATAAAGGCTCCTAAGATCTCCATGCCAGATTTGAATCTTAATCTTAAAGGCCCCAATGTGAAAGGAGATGTGGATGTTTCCATTCCAAATATAGAGGGTGATTTGAAAGGCCCTTCTCTTGACATAAAGAGCCCAAAATTAGATGTAAATGCTCCAGATATTGATGTTCATGGTCCTGAAGGAAAATTAAAGGGTCCCAAACTGAAAATGCCTGACATGCATGTAAGCATGCCCAAGATCTCTATGCCAGAAATTGACTTGAATTTAAAGGGCTCAAAGGTCAAGGGAGATGTTGATATCTCTGGACCCAAACTGGAGGGTGACATTAAAGTTCCCAGGGTGGATTTGAAGGGCCCAGAAGTGGACATTTCTGCTCCCAAGGTCAATATTGATGGGAAAGCAAAGAAATCTCGTTTTAAGCTTCCTAAATTTAATTTTTCTGGGTCCAAAGTTCAAACACCTGAAGTGGATGTCAAACTTAAAAAGCCAGATGTTGATATAACAGCTCCAAAAGTTGATATTAATGCTCCAGAAGTTGAAGTCCAAGGTAAAGTGAAAGGATCCAAGTTTAAAATGCCCTTTCTGAGCATTTCATCTCCCAAAGTCTCCATGCCCGATGTGGAGCTAAACTTGAAGGGTCCTAAAGTCAAAGGAGACCTAGATGCAGCAGGCCCAAATTTAGAAGGAGACTTCAAAGGACCCAAAGTGGACATTAAAGCACCAGATGTTCAACTTAATGCACCAGATGTGGATGTTCATGGACCAGAATGGAATCTAAAAATGCCCAAAATGAAAATGCCCAAGTTTGGTGTGTCTGGCATAAAAGCAGAAGGGCCTGATGTGGCTGTGGATTTACCAAAAGGAGACATTAATATAGAAGGTCCCAGTATGAATATTGAGGGCCCAGAACTCAATGTAGAATGTCCAGAGGGAAGCTTAAAAGGCCCCAAATTTAAGATGCCTGAGATGAACATCAAAGCCCCTAAGATCTCCATGCCTGATATTGACTTAAACCTGAAAGGTCCCAAAGTGAAGGGTGATGTGGATGTGTCTCTACCCAAAGTGGAAGGTGAGATTAAAGTTCCTGAAGTTGACATCAAAGGCCCCAAAGTGGACATTGATGTTCCAGATGTGGATGTTCATGGCCCAGACTGGCACCTGAAGATGCCCAAGGTGAAAATGCCCAAGTTCAGCATGCCTGGCTTCAAAGGAGAGGGCCCAGAAGTGGATGTGAGCCTGCCTAAGGCTAACATTGATGTCTCAGGACCCAAGGTGGACATTGATGTTCCAGATGTGAACATTGAAGGGCCAGATGCAAAACTGAAGGGCCCCAAGTTCAAGATGCCTGAGATGAACATCAAGGCTCCAAAGATCTCCATGCCTGATATTGACTTAAACCTGAAAGGCCCCAAAGTGAAGGGTGATGTGGATGTGTCTCTGCCCAAAGTGGAAGGTGAGATTAAAGTTCCTGAAGTTGACATCAAAGGCCCCAAAGTGGACATTGATGTTCCAGATGTGGATGTTCATGGCCCAGACTGGCACCTGAAGATGCCCAAAATAAAAATGCCCAAGTTCAGCATGCCTGGCTTCAAGGGAGAAGGCCCTGAAGTAGATGTGAGCCTGCCTAAGGCTGACCTTGATGTCTCAGGACCCAAGGTGGACATTGATGTTCCAGATGTGAATATTGAAGGGCCAGATGCAAAACTGAAAGGCCCCAAGTTCAAGATGCCTGAGATGAACATCAAGGCCCCCAAGATCTCCATGCCTGACATTGACTTAAACCTGAAAGGCCCCAAAGTGAAGGGTGATGTGGATGTGTCTCTGCCCAAAGTGGAAGGTGAGATTAAAGTTCCTGAAGTTGACATCAAAGACCCCAAAGTGGACATTGATGTTCCAGATGTGGATGTCCATGGCCCAGACTGGCACCTGAAGATGCCCAAAATAAAAATGCCCAAGTTCAGCATGCCTGGCTTCAAAGGAGAAGGCCCAGAAGTGGATGTAAATCTGCCCAAGGCTGACCTTGATGTCTCAGGACCCAAGGTGGACATTGATGTTCCTGATGTGAATATTGAAGGTCCAGATGCAAAGCTGAAGGGCCCCAAGTTCAAGATGCCTGAGATGAACATCAAGGCTCCAAAGATCTCCATGCCAGATTTACATCTTAAGGGTCCCAAAGTGAAGGGTGATGTAGATGTTTCCCTGCCCAAAGTGGAAGGTGACCTCAAAGGCCCAGATGTTGACATCAAAGGTCCCAAAATGGACATCAATGCTCCAGATATGGACGTGCAGGGCCCAGACTGGCACCTGAAGATGCCCAAAATGAAAATGCCCAAGTTCAGCATGCCTGGCTTCAAAGCAGAGGGCCCAGAAGTGGATGTGAACCTGCCCAAGGTTGACCTTGATGTCTCAGGACCCAAGGTGGACATTGATGTTCCTGATGTGAATATTGAAGGACCAGATGCAAAACTGAAGGGTCCCAAGTTCAAGATGCCTGAGATGAACATCAAGGCCCCCAAGATCTCCATGCCTGACATTGACTTAAACCTGAAAGGCCCCAAAGTGAAGGGTGATGTGGATATGTCTCTGCCCAAAGTGGAAGGTGAGATTAAAGTCCCTGAAGTTGACATCAAAGGCCCCAAAGTGGACATTGATGTTCCAGATGTGGATGTTCATGGCCCAGACTGGCACTTGAAGATGCCCAAGGTGAAAATGCCCAAGTTCAGCATGCCTGGCTTCAAGGGAGAAGGCCCTGAAGTAGATGTGAACCTGCCCAAGGCTGACCTTGATGTCTCAGGACCCAAGGTGGACATTGATGTTCCTGATGTGAATATTGAAGGTCCAGATGCAAAGCTGAAGGGTCCTAAGTTCAAGATGCCTGAGATGAACATCAAGGCTCCAAAGATCTCCATGCCAGATTTACATCTTAAGGGTCCCAAAGTGAAGGGTGATGTAGATGTTTCCCTGCCCAAAGTGGAAGGTGATCTCAAAGGCCCAGAGGTTGACATCAAAGGTCCCAAAATGGACATCAGTGCCCCCGATGTTGATGTACATGGTCCTGACTGGCACTTGAAGATGCCTAAGGTGAAAATGCCTAAGTTCAGCATGCCTGGCTTCAAAGGAGAAGGTCCAGAAGTGGATGTAAATCTGCCCAAGGCTGACCTTGATGTCTCAGGACCCAAGGTGGACATTGAAGGCCCTAATGTTAATATTGAAGGACCAGAAGGGAAACTGAAGGGCCCTAAGTTTAAAATGCCTGATCTCCACCTTAAGGCACCCAAGATTTCAATGCCAGAAATTGACCTGAACCTGAAAGGACCAAAGTTGAAGGGTGATGTAGATGTTTCTTTACCTAAAGTGGAAGGAGACCTCAAAGGCCCTGAAGTTGATATCAAAGGTCCCAAAGTGGACATCAGTGCCCCAGATATGGATGTTCATGGCCCAGATTGGCACCTGAAGATGCCCAAGATGAAAATGCCTAAGTTCAGCATGCCTGGCTTCAAAGCAGAGGGCCCAGAAGTGGATGTAAATCTGCCCAAGGCTGACATTGATGTCTCAGGGCCTAAAGTGGACATTGATGTTCCTGATGTGAACATTGAAGGACCAGATGCAAAGCTGAAGGGTCCCAAGTTCAAGATGCCTGAGATGAACATAAAAGCTCCCAAGATCTCTATGCCTGACTTTGATTTGCATCTGAAAGGTCCCAAAGTGAAGGGTGATGTGGATGCTTCCTTGCCTAAAATGGAAGGTGAATTAAAGGGTCCTGGTATTGATATAAAGTGCCCCACTGTGGATATTGACACTCCTGATGTCAATATTGAAGTTCCAGAAGGAAAATTAAAAGGACCCAAATTTAAAATGCCAGACATGCATATCAAAGCTCCCAAGATCTCCATGCCTGACTTTGATTTAAATCTAAAAGGACCTAAAGTTAAGGGAGATGTGGACCTTGCACTCCCTAATGTTGAAGGTGATCTTAAAGGGCCAGAAATAGACATTGAGGGTCCTGAAGGAAAACTCAAAGGCCCCAAATTTAAGGTGCCAGATGTCCAATTCAAAACTCCACAAATCTCAATGAGTGACATTGATTTGAATGTGAAAGGGCCTAAGATAAAAGGAGATTTGGACATTTCTATTCCTAAACCAGAAGGGGACTTGAAAGGTCCCAAAGTGGATATCAAAGGCCCTAAACTGGACATTGACACTCCTGATATTGACATTCATGGTCCAGAAGGGAAACTGAAGGGCCCTAAATTTAAAATGCCTGATCTACACCTCAAGGCACCCAAGATTTCAATGCCAGAAGTTGACCTGAACCTGAAAGGGCCAAAGGTGAAGGGTGATGTAGATGTTTCTCTACCAAAAGTGGAAGGAGACCTCAAAGGTCCTGAAGTTGATATCAAAGGTCCCAAAGTGGACATCAGTGCCCCAGATGTGGATGTTCATGGCCCAGACTGGCACCTGAAGATGCCCAAGGTGAAAATGCCCAAGTTCAGCATGCCTGGCTTCAAAGGAGAGGGCCCAGAAGTGGATGTGAGCCTGCCTAAGGCTAACATTGATGTCTCAGGACCCAAGGTGGACATTGATGTTCCTGATGTGAACATTGAAGGGCCAGATGCAAAACTGAAGGGCCCCAAGTTCAAGATGCCTGAGATGAACATCAAGGCTCCCAAGATCTCCATGCCTGATATTGACTTAAACCTGAAAGGCCCCAAAGTGAAGGGTGATGTGGATGTGTCTCTGCCTAAAGTGGAAGGTGAGATTAAAGTTCCTGAAGTTGACATCAAAGGCCCCAAAGTGGACATTGATGTTCCAGATGTGGATGTTCATGGCCCAGACTGGCACCTGAAGATGCCCAAGGTGAAAATGCCCAAGTTCAGCATGCCTGGCTTCAAAGGAGAGGGCCCAGAAGTGGATGTAAATCTGCCCAAGGCTGACCTTGATGTTTCAGGACCCAAGGTGGACATTGATGTTCCAGATGTTAATGTTGAGGGTCCAGATATGAAAGTAAAAGGTCCCAAATTCAGGATGCCTGAGATTAACATCAAGGCTCCCAAGATCTCTATGCCTGATGTTGATCTGGAGTTAAAAGGACCCAAAGTAAAAGGAGCCTTTGATGGGTCTGTCCCTAAGATTGAAGGTACTCTCAAAGGACCTGAAATAGATATGAAAGGTCCAGGTCTGGATTTTGAAGGCCCTGATGCTAAACTTAGTGGGCCTAACTTGAAGATGCCATCGCTGGAGGTATCTGTTCCTAAAATAACTGGGCCTGATGCTAATGTGCACCTTAAGACACCGAAAGTTGGAATTTCTGCGCCTAAGTTAGGAGGTGGTGAGGTAGACCTCAAGGGGCCTAAAGTTGATTTAGAAACTCCAAGCTTAGATGTCCACATGGAAAGCCCTGATATTAATATTGAGGGGCCGGATGTTAAAGTTCCGAAATTTAAGAAACCCAAGTTTGGATTTGGTGCAAAAAGCCCCAAAGCTGACATCAAGACACCCACAGTTGATGTGACTGTCCCTGAAGCAGAGCTGAATGTTGATTCTCCTGAAATAAACATTGGTGGCAAGAGCAAGAAAAGCAAGTTTAAAATGCCTAAAATTCACATGAGTGGTCCTAAAGTTAAAGCCAAAAAACAGGGATTTGATTTGAATATTCCTGGAGGTGAGATTGATACCAGTCTCAAAGCTCCTGATGTAGATGTTAGTGTTGCAGGGCCTGATGCTGCACTCAAAGCTGAAGTAAAATCTCCCAAAGTCAAGAAAACTATGTTTGGAAAAATGTACTTTCCAGATGTAGAATTTGACATTAAGTCACCTAAATTTAAAGCAGAGGCTCCCCTACCTAGCCCCAAGCTGGAGGGTGAAATCAAGGTACCAGATGTGGATATTTCTTCACCAGGGATTAATGTGGAAGCTCCTGATATTCATATGAAGGCTCCCAAGTTCAAGGTGCCAGGCGTGGAAGCCTCAGGGCCAAAGATAGAGGGCAACTTGAAAGGTCCCAAGGTGCAGGCAAACTTGGACACACCTGACATCAACATCGAAGGCCCTGAAGCTAAAATCAAAGCACCCTCTTTTAGTGTTTCTGCTCCTCAAGTCTCCATACCCGATGTGAATGTTAATTTGAAAGGACCAAAGATAAAAGGTGATGTTCCCAGTGTGGGACTGGAAGGACCTAACATAGATCTACAAGGTCCAGAAGGGAAAATCAAGTTCCCTAAGTTTTCCTTGCCCAAGATCAGTGCCCCAGGTGTGAAAATGGAAGGTGGGAGCACTGAGATCGGCGCTCAGATGCCCTCTCTTGAAGGAGGGTTGAGCACATCAGATATGAAGCTTGAAGGGCCTCATCTGTCTCTAAAAGGCCCAGGAGTAGACTTGCCTTCGGTGGACCTCTCTATGCCAAAAGTGTCTGGGCCTGATCTTGACATGAACTTGAAAGGACCAAGTTTGAAGGGAGACCTGGGTGCCTCCAGTCCCAGCATGAAGCTGCACGCCCCAGGTCTTGACCTCAAAGGTGTTGGTGGAAAAGTACATATAGGAGCAGATGGTGTGAAAATGTCAGGGATTGATGCCACAACAGCACTCAGTGTTGGGGCACCAGATGTAACACTGAAGGGACCAAGTCTACAGGGAGATCTGGCTGTGTCTGGAGACATCAAATGTCCTAAAGTGTCTGTGGCTACTCCTGATGTTAGCTTGGAGGCTTCAGAAGGTGCTGTCAAACTTCCCCACATGAAACTGCCTCAGTTTGGCATCTCCACTCCGGGATCCGACTTGGACATTAACATCAAGGGGCCACAAGTTTGTGGAGAACTAAAGGGATCAGGGATGGATGTGAATCTGAAAGGGCCTCAGATCTCAGCACCAAGCATGGACTTTAACTTGGAAGGACCAAAAGTGAAGGGGAGCCTCGGGGCTGCGGGTGAATTGAAAGGCCCAGCGATTGGGGGAGCTCTTCCAGGCATCAGCATTCAAGGCCCAGAAGGAAACCTCCAAATGCCTGGAATTAAGGCTTCTGGGTGTGATGTGAAACTCTCATCAGGGCAGATTTCTGGTCCCGAAATTAAAGGAGATCTGAAAGGTTCAGGACTAGGTCTCCATGGAGCTGTTCCTGATATCGGTGTCAAGGGGCCTTCCTTTAATGTGGCATCTCCTGAGTCAGATTTTGGTGTCAGCTTGAAGGGCCCCAAAGTCAAAGGAGGTGTAGATGTTTCAGGGGGTGTCAGTGTCCCAGATATCAACCTGGGTGAAGGGCATATGAGTGTCAAAGGCTCTGGAGTTGAGTGGAAGGGACCCCAAGTCTCCTCTTCTCTAAACTTGGATACATCTAAACTTGCTGGGAACCTTCATTTCTCAGGACCAAAGATAGAAGGAGACGTGAAAGGGGGCCAGACCGGACTCCAGGGTCCCGGGCTGAGTGTGTCTGGGCCTCAAGGTCACTTGGAAAGTGAATCTGGAAAAGTAACATTCCCCAAGATGAAGATCCCTAAGTTTACCTTCTCTGGCCGCGAGCTCATCGGTAGAGAAGTAGGAGTGGATGTCAACTTCCCTAAAGTGGAGGCCAATGTGCAGGCTGGTGCTGGAGAAGGCAAGTGGGAAGAGTCTGAAGTAAAACTGAAAAAATCCAAAATCAAAATGCCCAAGCATATCTTTTCTAAATCTAAAGGAAAAGGTGGTGTCACTGGCTCACCTGAAGCATCCATTTCTGGGTCCAAAGGGGACCTGAAGAGCTCAAAGGCCAGCTTGGGCTCCCTGGAAGGAGAAGTGGAAGCGGAAGCATCTTCACCCAAAGGCAAATTCTCCCTATTTAAAAGTAAGAAGCCACGACACCGCTCCAACTCCTTCAGTGATGAGAGGGAGTTCTCAGCGCCTTCCACCCCAACTGGGACTTTGGAGTTTGCAGGTGGAGACGCTAAAGGCAAGCATGGAAAGCTGAAGTTTGGTACCTTTGGTGGCTTGGGATCAAAGAGCAAAGGTCATTATGAGGTTACTGGGAGTGATGATGAGGCAGGCAAGTTACAGGGGAGTGGCGTGTCCTTGGCCTCGAAGAAGTCCCGACTGTCTTCCTCCTCTAGCAACGACAGTGGGACCAAGGTTGGTATCCAGCTTCCTGAGGTAGAACTGTCAGTTTCCACAAAGAAAGAGTAGTGGGCCTTCATGCATGTACATATATATATATATAAAACATCAGCCTTGGGTGTGTTTGTATATAAACTCCAAAGAGAAACACCCCAATAGCCTAAGCAATAATGCAAAGATCTTGCCCCTGCCAGTGGCAAGTGCCGACAAACCAAGTGCCTGTAGGCTCCTGGGACTCTGCAGCTAGGTAAAGAGTTCTAAGTTCATCTGGCCCACGTGCAAAGTCAACAGTATTGCCTTAAGATTTCAGTTTTTTTTTTTTTTTTTGGTTTCTGTTTTCTTTTCTTTTTCCTTTTTCTTTCTTTCTTTTTTTTTTTGCATTGAACGCTGAGAGCTCGTGTTTACTAAGCAAGCTTTTGTGTTTATCTTCCTTATTTTTACTGAACATCTTCAGTACCTGGGTAATGGAAACCCACTCTTTTTTCATTGTAATGACTTTGGGGGCTTTTGTGAGTAAGGGAGGGTGGGATAAAAGGTGGCAGAGGGAGCAAGGTCTTAATTGCTCTGAAGGTTGGACCCGTGAAGCCCTGGCATAGACCTGAAGAGGTGGCAGCCAGTGGGTGGTTGTTTCTCAATCTCTGTAGCATGACTTTTTAATCCCCAGGTGTGTTAGTCCCAGCCTAGTTTGGTGCTCGAGGTGAGAGGGGATTTGAATCTGTTTGCAAATTGTCCAACCCACCAGGTCAACGTGAGGGGCTTACATTCTGGGTTTGATAAGAAAAGTGTTCATTCATGACTGCTATGTCCTGAGAAAAGTTCCGATTTCTTTTAACAAATGTCATCATGATTAAGGAAATGTCTGGCACTTTAATGGCAAATTAATTGAGAATGTATGAAAGTCATGAATGTACAAGCCAAATAAAGCTCTTTATTAACCCTG'
p7
(I30
S'MKTSAPEVKGDVKGPQMAVKGSRVDIETPNLEGTLTGPKISSPSGKIGACRISMADVDLNVAAPKGKGGVDVILPNVEGKAKGLEVDVKGPKMDISAPDVEVHGPEWNLKMPKFSVPGVKGEGLDVNVTLPEGDISISGPKVNVEAPNVNMEGLGGKLKGPDINLPEVSVKTPKISMPDVDLHIKGPKVKGEYEVTPPKLEGELKGSKVDIDTPQVDVHGPDLKIPKMKMPKFSVPGFKAEGPEVDVNLPKADLDISGTKVEVSAPDVSIEGSEGKLKGHKFKMPEMNIRAPKISMPDVDLHLKGPNVKGEYDVTVPRAEGEIKVPDVELKSAKLDIDVPNVDVQGPELHMKMPKIKMPKFGMPGFKAESPEMEVNLPKSDIDVSGPNVDVKVPDVNIEGPEGKLKGPKLKMPEMNIKAPKISMPDVDLHMKGPKVKGEYDVTMPKLEGDLKGPKVDVSVPDVDVHGPDWNLKMPKIKMPKFSMPSLKGEGPELDVNMPKADVDISVPKLDISAPDLNLEGPEGKLKGPKFKMPEMHFKAPKVSLPDVDLDLKGPKMKGNLDMSAPKIEGEMKAPDVDIKGPNVDIKAPEVDVQGPEWSLKMPKMKMPKFSMPTLKGEGPDVDVSLPKATIDVSGPKLDIETSDVSLEGPEGKLKGPKFKMPDMHFKAPKISMPDVDLNMKGPKVKGDMDVTVPKIEGEMKVPDVDIKGPKVDISAPDVDVQGPDWHLKMPKMKMPKFSMPGFKAEGPEVSLPKADLDVSGPKVDIDVPDVNIEGPDAKLKGPKFKMPEMNIKAPKISMPDLHLKGPKVKGDVDVSLPKVEGDLKGPDIDIKGPKMDINAPDMDVQGPDWHLKMPKMKMPKFSMPGFKAEGPEVDVNLPKADIDVSGPKVDIEAPDVSIEGPEGKLKGPKFKMPDMHFKAPKISMPDVDLNIKGPKGKADVDASLPEVEGGVKVPDVDIKGPKVGIDAPDVEVHGPDWHLKMPKVKMPKFSMPGFKGEGPEVDIPKANIDVSGPKVDIDVPDVNIEGPDTKLKGPKFKMPEMNIKPQKISMPDVSLNLKGPKVKADCDVSVPKVGGEIKAPAVDIKGPKVEAPDVEVHGPDWHLKMPKVKMPKFSMPGFKGEGAEVDVNLQKANIDVSGPKVDIDVPDVNIEGPEGKLKGPKFKMPSMNIQTHKISMPDVGLNLKGPKLKSGVDVSLPKVEGELKGPEVDVDVGDIDIECPEGKLKGPK'
p8
tp9
sS'GGAGATACTCACAATCTAGTTAGGGATGGTGACAGCTGAGCCAGAGCTGTGCAGCGAGGCAGAGTACGATGCGTGTCACGAAGGAGTTACAACAGCTCAGCAGCGAGAAGGAAAATGGAATTCTGATTGGTGGGAGTGCCATGGACCAAGCTTTGTGGAGGAGAAAACTGAAGAGAAGGCTGGAGTCTTGCCTGCAGGTTGAAGCCGCTGGAAGAGGGATGAGGAGAGCGAAGAAGGTTCCAGCCATGTGCAGTGAATGCAGAGGGGAGGGTGCATCAAGAGACTGCCCTGGGAAAGGCCGGGAACCAGGGGTGTGCTCCAGAGAAGAAGCCAAGTAATTAGCATGGCAGAAGGAGACTGCCACTGTGTTTGGCACAGCCATGGTTGGTCCTCCAAGAACACGTTCAGTTGTGTGTGATGCAATGACAGAAGTAACCATAAGGATGCAGATGCGGCTTTCTGAGGCCCAGCCAACAGTCACCGTGAAGCTGAGTGGCAAGGACCAGAACCCTGAAACTGAGAGCATTTCTCCCTATACGTTCCCCTCTCCTCCCAGCTTTCCAAACCCTCACCATCTGACTTTGTACCTCTTTCAAATGAAACAGGTTGCATATTGCTGAGCTGACAGAGGCTCCCTACCCAGACTAATAGAGCCCGCCACACGGAAGTAATTTCTTGTTAAACTTCTATCCAGTGAAATCCAACCACTGCACACAGCAGGCCCGGCTGTGCTGGTACTGCCAGCCTGCCACCGAGGCGCAAGGGAATAAAGGAAAATGCTTAGCATTAAATTTCATGTAAATCAGACTTTATTTGCTCTGGTGACAGGTTATTACCTTCTGCAGGGAACGAGGGGAGAAACGGCTGCCACTGAAGACAGAGTTCCCCCAGTGAGCTTCCATAGCAGCCTCTTGCAGCAGGCATGCCTAACTCACCTGCTTTGCCCCACCCATCCACTCTGCTACCTTCTCTGTAAATGGCCAGGGTCTACAGGCTCTTCTTGGCATAGAAGCCCTGCCTACACAGCCTTCCTGATGCTTCAGAGATGGTCACTATTTATGAGGACTTCCCCACTAAGGACATTGGGCACTCTTCACCTTGCTTTGTGGCTCAGTCTATCTCCCACCAAGAACATTCTATATAGCAATAAACTCATTCAGACTCAGCTC'
p10
(I36
S'MLSIKFHVNQTLFALVTGYYLLQGTRGETAATEDRVPPVSFHSSLLQQACLTHLLCPTHPLCYLLCKWPGSTGSSWHRSPAYTAFLMLQRWSLFMRTSPLRTLGTLHLALWLSLSPTKNILYSNKLIQTQL'
p11
tp12
sS'GGTGCCAAACTACAGCTATGGAGCAGGCACCTCCGGACCCCGAGAAGCTCTTGCAGCCTGGACCCCTGGAGCCGCTGGGTGGCCCTGGCGCTGTGCTGGAGGCCGCGGTCGGTGAGGAGAACGAGGGCACCCGAGAAGACGGCTCAGGGGTCGACACGATGACGGGAAATAATTTTTGGTTGAAGAAAATAGAAATCAGTGTTTCAGAAGCAGAGAAGAGAACCGGAAGGAACGCCGTGAACATGCAAGAAACGTACACTGCCTACCTCATCGAGACTCGGTCAGTTGAGCATGCCGATGGTCAGAGTGTGCTCACAGACTCGCTGTGGAGGCGGTACAGTGAGTTCGAGTTGTTGAGAAACTACCTTCTAGTGTACTACCCACATGTTGTTGTGCCACCTCTCCCAGAAAAGCGGGCAGAGTTCGTGTGGCATAAACTCTCTGCTGACAACATGGACCCAGACTTTGTGGAGAGACGACGCGTGGGCTTAGAAAACTTCCTCTTGAGGGTTGCTTCACATCCTGTCCTTTGTAGAGACAAAATCTTCTATTCATTTTTAACCCAGGAAGGTAACTGGAAGGAGACTGTGAATGAGACTGGATTTCAGCTGAAGGCAGACTCCAGGTTAAAAGCGCTTAATGCAACATTCAGAGTGAAAAACCCAGACAAGAGGTTTACTGAGCTGAGGCACTACAGTGATGAGCTGCAGTCTGTCATCTCGCATCTCCTTCGAGTCAGAGCTAGAGTAGCAGATCGACTCTATGGTGTATATAAAGTACATGGGAATTATGGGAGAGTTTTTAGTGAATGGAGTGCCATCGAAAAAGAAATGGGGGATGGGCTGCAGAGTGCTGGGCATCACATGGACGTGTATGCATCTTCTATTGATGATATTTTGGAAGATGAAGAGCACTATGCAGATCAGCTGAAGGAGTATCTGTTTTATGCAGAAGCACTTCGGGCTGTGTGCAGGAAGCATGAGCTTATGCAGTATGACCTGGAGACAGCTGCTCAAGACCTGGCTGCCAAGAAGCAGCAGTGCGAGGAGCTGGCCACCGGGACTGTGAGAACATTCTCGTTGAAGGGAATGACTACCAAACTCTTTGGTCAAGAAACTCCAGAGCAAAGAGAAGCCAGGATAAAGGTGCTAGAGGAGCAGATAAATGAAGGGGAACAGCAGCTGAAGTCTAAAAATCTGGAAGGCAGAGAATTTGTGAAAAATGCATGGGCTGATATTGAACGCTTCAAAGAACAAAAGAACCGGGACCTAAAGGAAGCTCTCATCAGCTATGCTGTCATGCAGATCAGCATGTGCAAAAAGGGAATTCAGGTTTGGACCAATGCTAAAGAATGCTTCAGCAAGATGTAACCCCATGAAGTGACTTTTCTCTGCAATCAAAGCCCCAAAACGAAGCACAAGTAAAAGAAAATCTATTGCTACCTTATACATAGAAGCATACTGTACATGGAACAAATCAGCTTTCTTTAAGCATAGTTGTGTTCATATAGCACAAATGATACATTTTAATGAAGAATAAATATTATAATTTGAAGTTTTGGGGACTGGTGCTGATTCCAAAAAAGTTAATTTAATAAGATAACCAACAGATTGTTAGTCAGGCTCCTGATCCAGTGCCTCCGTCAGGATGTGAGTTAATCTCCATGTGCACCTCTCAGTGCCCACTGTCCAGATCTCTTCACGGGCAGTTCTTCCCAGACCAGACGCCCAGATTTACTTTGTAGGACCCACTTCTGCTATACAGTTATTTTATCTTGCCTTAGAGTTGAGCTGTTTGGTTTGACAAAGCTCAGCAGAAACTTGTTGTGAAGTCTAAGGTTTTCTTCTGTGTTCCTAGATCCTGTACCATCTGCAACACTAGAAAATGCCTTCAGTTTGTGTCTCACCAAAATTTTGATACTGGTCAGAAATTTTATACTGCCAACAACGAAGTCTCAGCTTCTCAGATTTGCAGTGGAATAGATACATTATTATAATCTAGAAATTGCTATATAGAGAGTATTAATTTAACATTATTATTCTCAGATAAGAAGTGTTAACTTCGGCAGCAGCCTCCATTTCTTCTGCTCGGCTCTGTGCTCATGGCGTTTCAGGGTACGAGGTGTAGCATCTCCATGTGTGAGACACTCGTAGTGAGCACATGTGAGCGGTACCGTCACCATTAATGTGCGTTTCTGTTGCCTGGCTGTGATTTTTGTAAAGATAAATGATGTTGTTGTGCTTTAGTGTGTGTTTCATGGCACATGTTCAGAAGCCAAGCACACTCTCTGCCAGCTTGCAGACTCCTCCTAACCGTGCACTCATTATTTCTAATGTTTTAAAACTATACTCAGTACTGTTTGACATTTGACTTTTTTACATGTTTAAAATGTTGCTGGATTTTTGTGCTGTTTGCCAAACTTATATAATAAAGGAAGTGTTGTGTTTATTTCCAGAAGATTTGTATTATTTTAAGATGATCCATGTATGTAAATACCTGATTTTTTGTGAGAAAATAATGCATGCCATATTATGTTTTAAAGTGGCCTGATGTTGGTGTTTTGAGAAACAAGATACTAAAATTAGAAAAGATTTAAATTTTTTTGTTATGGTTTTGCTCTGGTTTGATTCTTTTTGAGACAGGGTTTCATGTAGCCTGGGGGCCCAGTCCTGGAAGTAGTTTTATAGATAAGGCTAGACACAAAAACCTATCTCTGCCTCAAAAGAACACCTATCTCTGCCACCCAAGTGAGTGCTGGGATTAAAGGCATGAGCCACTCTTGGCTTTGCTATGGTTTTCGAAAAGATAAGGTTGGTAGAAGCAAAATTTTTCAATGTGATACACATTTTCTTCTATGTGTGCCAACCTCTGTTGATTAACAAAACACCCTTCTACTTGGTAGTTAAAATCACAGCCTAGGACTCGGGCTGTAGCTCATAGTGTGCTCCTCCGTGTGTGCCAGGCCCTGGGTTCCATTCCTATCACCACAGAAAAGTAAAGAAGACAAGCGTCATTCACTCGGGTGATCCCAGCACTCAGGAGGGAGGGCAGCCTAGGCTACATAGTTCCAGGCCAGCGTGAGCTAGCTACAAAGCGAAGCCTTCCCCTGACCCCTGACCCCTGACCCCCAAAGAAACCTCTTTCATAAAATGACTTTTAAC'
p13
(I8
S'MEQAPPDPEKLLQPGPLEPLGGPGAVLEAAVGEENEGTREDGSGVDTMTGNNFWLKKIEISVSEAEKRTGRNAVNMQETYTAYLIETRSVEHADGQSVLTDSLWRRYSEFELLRNYLLVYYPHVVVPPLPEKRAEFVWHKLSADNMDPDFVERRRVGLENFLLRVASHPVLCRDKIFYSFLTQEGNWKETVNETGFQLKADSRLKALNATFRVKNPDKRFTELRHYSDELQSVISHLLRVRARVADRLYGVYKVHGNYGRVFSEWSAIEKEMGDGLQSAGHHMDVYASSIDDILEDEEHYADQLKEYLFYAEALRAVCRKHELMQYDLETAAQDLAAKKQQCEELATGTVRTFSLKGMTTKLFGQETPEQREARIKVLEEQINEGEQQLKSKNLEGREFVKNAWADIERFKEQKNRDLKEALISYAVMQISMCKKGIQVWTNAKECFSKM'
p14
tp15
sS'ATGCCTCCGCTCTGGGCCCTGCTGGCTCTCGGATGCCTGCGGTGTGGCTGGACTGTGAACCTCCAGCCCCAACTGGCCAGTGTGACCTTTGCCACCAACAATCCTACCCTCACCACCGTGGCCTTGGAGAAGCCTCTGTGCATGTTCGATAGCTCAGAGCCACTCAGCGGCTCTTACGAGGTTTACCTCTATGCTATGGTCGACTCAGCCATGTCCAGGAATGTGTCTGTACAGGACAGCGCTGGCGTCCCACTGAGCACTACTTTCCGGCAAACCCAGGGTGGGAGGTCAGGCCCCTATAAAGCTGCGGCCTTTGACCTGACCCCTTGTGGTGACTTGCCCAGCCTGGATGCTGTTGGAGATGTGACCCAGGCCTCAGAGATCCTGAACGCATACCTAGTCAGGGTGGGCAACAACGGGACCTGTTTTTGGGACCCCAACTTCCAGGGCCTCTGCAACCCACCCCTGACGGCGGCCACTGAGTACAGATTCAAATATGTCCTGGTCAACATGTCCACAGGCTTGGTGCAGGACCAGACACTATGGTCAGATCCCATCCGGACCAACCGGCCCATCCCCTACTTGGCCATCGACACGTGGCCCGGCCGGCGGAGTGGAGGCATGATTGTCATCACGTCCATTCTGGGCTCCCTGCCCTTCTTCCTGCTCGTGGGTTTCGCTGGAGCCATCATCCTCAGCTTTGTGGACATGGGCAGTTCTGATGGGGAAATGACACACGACTCACAGATCACCCAGGAGGCTGTCCCCAAGACCCTGGGGACTTCTGAGCCTTCCTACTCATCTGTGAACCGGGGCCCACCCCTAGACAGAGCAGAGGTGTTCTCCAGCAAGCTTCAAGACTGAAACAACCCAAGCCCCGGCACCAACCCATGGCCACTTTTCAACTTGGCCCTGTGGTTGGCAGTGATGGTGTTTATGCTCTGACTGGACCAGATGTGAAACATGACATCTTGGTCCAACCTCATGAAAAAGCTAAATAA'
p16
(I2
S'MPPLWALLALGCLRCGWTVNLQPQLASVTFATNNPTLTTVALEKPLCMFDSSEPLSGSYEVYLYAMVDSAMSRNVSVQDSAGVPLSTTFRQTQGGRSGPYKAAAFDLTPCGDLPSLDAVGDVTQASEILNAYLVRVGNNGTCFWDPNFQGLCNPPLTAATEYRFKYVLVNMSTGLVQDQTLWSDPIRTNRPIPYLAIDTWPGRRSGGMIVITSILGSLPFFLLVGFAGAIILSFVDMGSSDGEMTHDSQITQEAVPKTLGTSEPSYSSVNRGPPLDRAEVFSSKLQD'
p17
tp18
sS'GGAGGTTTCTGACTGGAGAAATGGCCACTCTCTGTCTCTTCGACATGGATGGGACCCTGACTGCCCCGCGGCAGAAAATTACAGAAGAAATGGATGGCTTTCTACAAAAATTGAGGCAGAAGACCAAAATTGGAGTGGTAGGTGGGTCAGATTTTGAGAAACTGCAAGAGCAACTGGGAAATGATGTGGTTGAGAAATACGATTATGTGTTTCCAGAGAATGGCTTGGTAGCGTACAAAGATGGGAAGCTATTGTGTAAGCAGAATATTCAAGGGCATCTGGGGGAGGATGTGATCCAAGACCTGATCAACTACTGTCTGAGCTACATTGCAAACATTAAACTCCCTAAGAAAAGGGGAACTTTCATTGAATTCCGAAATGGCATGTTGAATGTGTCCCCAATTGGAAGAAGCTGCAGCCAAGAAGAACGAATTGAATTCTACGAACTCGATAAAAAAGAACATATACGACAAAAGTTCGTAGCAGACCTGCGGAAGGAGTTTGCAGGGAAAGGCCTCACGTTCTCCATAGGTGGCCAAATCAGCATTGACGTCTTTCCTGAAGGATGGGATAAGCGGTATTGCCTGAGACACCTGGAACATGCTGGCTATAAGACCATTTATTTCTTTGGAGACAAGACTATGCCGGGTGGCAATGACCATGAGATCTTCACAGACCCCAGAACTGTGGGCTACACAGTGACGGCCCCCGAAGACACACGCAGGATCTGTGAGGGGCTCTTCCCTTGACCCGAGGAGTGCCGGACTGACCAACAACACTGAAAGGGGCATCTGATGATGAAAGAGAGCAGCCACCCAGAGTTACCCACCTGGGATAGAACTGAAGACTTCTGTGACATGCTCCGTCTGCAACCTGTGGTGGAGGCTGAGGCAGGAAGGAACACCACTATTCTGTCAAAGGGTTAATGTTTCTGTTTTCAAGCCAGCTTCCCCTCTGTGAGCCACAGACGACAGTGTGGCCTGCTGCCTGACAGATAGCTGACCAAGTGACAACTGATCCCACAGTTTACACTTGCACTGGCCTGGCTGGCCATCTCTATTTGCTATATCTTAAAGCCAGACTGCTTTCCTGTCACCGCAGGAGGGGAGGACAGAGGACCCAGCAAAGCAGCACCTCACTGCAGTCCTCTTTAACCCCCAGGCTGACCAACCTAGGTAGCAGACGCAGTACCTAAGGCCACAGCAGCAGGGGTGCTCTCCAGCCTCTTCTTGGAGAGTGCACGTGTGTCCTCCAGAAGCTCGGGGACAGCCTTCCAAGAACACTTCCCAGGCAGCTTCCCAGTGCCCAACCACCATATGTCTCCACTGCCCTACCCTTGGCTGCCCCTACTCTGTCCACACCCACAGCAGAATGCCAGGTCCTCACCCTGTGGCATCCTTGGGTTTTATGGCAGTGCTGTGAAGCCCACTGAAGGGACAGCACCATACCTCACTTCTCAGTCTGGTCACTTTAACCCTCAGTGTCAAAAGGGTGTCTACCCCAGGTTGGCAGAGAACTTGGCTTCCGAGAGCTGCTTTCCCCACTTGGCTCCAGTAATGCTGGAGCCCCTAGCTGTCCTGGCTGTAGCAGTTCCAAGCCAGCCCAGATGCTGTGTTCTACCTGCAGGTCCAGTGTCTCCCACTGTGCCAGGTGGACTCCAGGCCTTGCCAGTTCCTACAGTGGCTATCACAGAACCCCCCTGCCCCACTGTCTTCATTCAACTCTCCCACCTAATAAAGGGCCTCTGCTCTCCAGGCAGTACATGATTGTGGCCGAATCATACATGTATGATCTTGCTGATGGGGCAGTGTGGCTGCCCAGGTCCAAGGACTTGTGCT'
p19
(I1
S'MATLCLFDMDGTLTAPRQKITEEMDGFLQKLRQKTKIGVVGGSDFEKLQEQLGNDVVEKYDYVFPENGLVAYKDGKLLCKQNIQGHLGEDVIQDLINYCLSYIANIKLPKKRGTFIEFRNGMLNVSPIGRSCSQEERIEFYELDKKEHIRQKFVADLRKEFAGKGLTFSIGGQISIDVFPEGWDKRYCLRHLEHAGYKTIYFFGDKTMPGGNDHEIFTDPRTVGYTVTAPEDTRRICEGLFP'
p20
tp21
sS'ATGGCCAGCATCACCCAGCTGTTCGATGACCTCTGCGAGGCTCTCTTACCTGCTGCCCAAGCTCGCCCCGGCCAGCGCAGTGTGAACAGGAAGAGGGCGAAGCGGAGCCTTAAGAGGGTGGCCTACAATGCCCTTTTCGCAAATCTTTTTCAAGAGGACACCCATCAACGGCAGCCCGACTCGTCGAAGCTCCCCGTGAAAAACAAGGTCCTCATGCTGTCCTTCGATTTGAGGGTGGGGGGCTTGGGGCCAGAGGCTGACCGTTTGGAGGAGCTCGTGGAGAAACTTGAAGCAGCCCCTGACTGTCCTTTTGTGGAGGTAGCATCAGTGTTGGACCTCTTAGTTCAGCTGGCAGGAAGTGGCCCCCCTCAAGTGCTGCGTAGAAAACGGGATTACTTCTTTAACAACAAGCATGCAGGCCGAAACATACCCTACAGCGGCTACGATTGCTATGACTTGAGTGTGTTTGAAATGGACGTTCGGTCATTTATCTCTGGGGAGGAGAATTTGTGTCATCACACGGTCCAGGAAGCGCTTCAGGTGATGGAGGCTGCCCCAGGCACTGGCCTGCCCACCGTTGGGCTCTTCTCAATTGGTGACTCTTGTGGTGACAGGTTTGAGAGAGACACCAGGGTCTCCCTCTTTGGTGCACTTGTGCATAGCCGCACCTATGACATGGATGTGCGACTGGACCTACCACCTGTGCCAGACAGCGCGGACTTCTCTGGACTAGCCATCAAGGTCCCACAGATTGTGGATCAGTGGGAAGATGAAGGTTTCCAGTCAGCTTCCAATTTAACTCCCGACTCCCAGTCTGAACCAAGCATGACCCCCGATTTGGACCTGTGGGAAGCTGTGCTCACATACGAAGCCAGCAAGCGGAGGTGCTGGGAGCGTATTGGATGCCCCCCTGGTCACCGAGAGGAGCCCTACCTCACTGAGGCAGGACGGGATGCCTTTGACAGGTTCTGCAGGCTCCGTCATGGAGAGCTACAGGCCCTCAGTGGGGGCCTTCTACAGGCCCCGAAGCCTGTGCTGGTGGAGGAAAGCGAGCTGGTGAAAGACTCACTGAACGTTCTGCTGGGCGTTGTTTCTGCTACATTTTCCCTGTGTCGGCCGACTCAAGCCTTTGTAGTGGAGCCGGGTGTGCATGTGTCAGGTGCATCTCCTGAAAGCATCAGCAGCATCCTCTCAGAGGTGGCGGAGTATGGAACCTGTTACACACGGCTGAGCCATTTCTCTCTGCAACCTGTTGTAGGCTCCTTGTGCAGCAGGGGCCTTGTTTTCCAGGCCTTCACCAGCGGCCTAAGGAGGTACTTGCAGTATTACCGTGCCTGTGTGCTCTCCACTCCACCCACCCTCAGTCTCCTCACCATTGGCTTTCTCTTCAAGAAGCTGGGCCGGCAGCTCAGGTACTTGGCTGAGCTTTGTGGTGTTGGCACTGTATCCCTGGCGACCAGTGGAGAACCCAGGGCTGTGTTCCCCACTGGGGTGAAGCTTCTGTCCTACCTCTACCAGGAAGCACTGGATAACTGCAGTAATGAGCACTATCCCGTTTTGCTGTCCCTCCTGAAGACCAGCTGTGAGCCCTACACACGGTTCATCCACGATTGGGTGTACAGTGGAGTCTTCAGAGATGTTTATGGGGAGTTCATGATCCAGGTTAACCATGAGTACCTCAGCTTCAGAGACAAGTTTTACTGGACCCATGGCTACGTGCTCATTTCCAAAGAGGTGGAGGACTGTGTTCCTGTATTCTTGAAACACATTGCTCATGATGTGTATGTCTGTGGGAAGACCATCAACCTACTGAAGCTCTGCTGTCCCCGGCATTACCTTTGTTGGTCTGATGTCCCTGTCCCTCGGATCTCGGTGATTTTCTCTCTTGAGGAACTGAAGGAGATTGAGAAGGACTGTGCTGTCTATGTTGGGCGGATGGAGAGAGTCGCACGTCATAGCTGTATCAGCAAGGAGGAAAAGGAATTACGTATGGAAATTGCGAAACAAGAACTAATTGTCCATGCCCGGGAAGCCGCGTCCAGGGTCCTGAGCGAGTTGAGTGACCGGCAGATGGCAGAACAGATTGCTCAGGACACTCGGAAGCGAGAGCAGTTTCAGCGACTGAAGGAACAGTTTGTGAAGGATCAGGAGCGACGCCTGGCAGCCAGACAAGAAGAGCTAGATGATGACTTCAGCTATGCCCGTGAGCTCCGTGACCGGGAGAAGAGGCTAAAGGCCTTGGAGGAAGAGCTGGAGAGGAAGGCCAGGCAGGCGCTGGTTGACCATTATAGCAAGTTGTCTGCAGAGGCAGCTCGTCGAGAGCAGAAGGCTCTGTGGAGAATCCAGAGGCATAGGCTGGAAAGCGCACGACTTCGTTTTCTCCTAGAAGACCAGAAGTGCATTCAGGAGATGCTGAGAGACATGGAGGCTCAGCAGCCCCAGGAGCCGCCGAGTGTGTTCCCATCCACAGGCTCTCAGGTAATAAGC'
p22
(I38
S'MASITQLFDDLCEALLPAAQARPGQRSVNRKRAKRSLKRVAYNALFANLFQEDTHQRQPDSSKLPVKNKVLMLSFDLRVGGLGPEADRLEELVEKLEAAPDCPFVEVASVLDLLVQLAGSGPPQVLRRKRDYFFNNKHAGRNIPYSGYDCYDLSVFEMDVRSFISGEENLCHHTVQEALQVMEAAPGTGLPTVGLFSIGDSCGDRFERDTRVSLFGALVHSRTYDMDVRLDLPPVPDSADFSGLAIKVPQIVDQWEDEGFQSASNLTPDSQSEPSMTPDLDLWEAVLTYEASKRRCWERIGCPPGHREEPYLTEAGRDAFDRFCRLRHGELQALSGGLLQAPKPVLVEESELVKDSLNVLLGVVSATFSLCRPTQAFVVEPGVHVSGASPESISSILSEVAEYGTCYTRLSHFSLQPVVGSLCSRGLVFQAFTSGLRRYLQYYRACVLSTPPTLSLLTIGFLFKKLGRQLRYLAELCGVGTVSLATSGEPRAVFPTGVKLLSYLYQEALDNCSNEHYPVLLSLLKTSCEPYTRFIHDWVYSGVFRDVYGEFMIQVNHEYLSFRDKFYWTHGYVLISKEVEDCVPVFLKHIAHDVYVCGKTINLLKLCCPRHYLCWSDVPVPRISVIFSLEELKEIEKDCAVYVGRMERVARHSCISKEEKELRMEIAKQELIVHAREAASRVLSELSDRQMAEQIAQDTRKREQFQRLKEQFVKDQERRLAARQEELDDDFSYARELRDREKRLKALEEELERKARQALVDHYSKLSAEAARREQKALWRIQRHRLESARLRFLLEDQKCIQEMLRDMEAQQPQEPPSVFPSTGSQVIS'
p23
tp24
sS'GAGCAGGGCCACCCATCCAGACACCTTGCAGGAGAACTTTCCAGAAGAAACCTCACCCAGCCTCCACACTGCTGTCCTTCTCTGCACGCTGCTGCAGCTGTGGTCCCAAGATGCCAGCTCTCCATCTGCTGTTTCTGGCCTGCTTGGTGTGGGGAATGGGGGCCAGGACAGCACAGTTCCGAAAGGCCAATGATCGGAGTGGCCGATGCCAATACACCTTCACTGTGGCCAGCCCCAATGAATCTAGCTGCCCAAGGGAGGACCAGGCCATGTCAGCCATCCAAGACCTTCAGAGAGACAGCAGCATCCAGCATGCAGACCTAGAGTCCACCAAGGCCCGGGTCAGATCCCTGGAGAGTCTCCTCCACCAGATGACCTTGGGCCGAGTTACTGGGACCCAGGAGGCCCAAGAGGGGCTGCAGGGCCAGTTGGGTGCCCTGAGGAGAGAACGGGACCAGCTGGAGACCCAAACCAGGGATCTGGAGGCAGCCTATAACAATCTCCTTCGAGATAAGTCGGCTTTAGAGGAAGAGAAGAGGCAGCTGGAACAAGAGAATGAAGATTTGGCCAGGAGGCTAGAAAGCAGCAGCGAGGAGGTAACAAGGCTGCGGAGGGGCCAGTGTCCTTCCACCCAGTACCCCTCTCAGGACATGCTGCCAGGCTCCAGGGAAGTCTCTCAGTGGAATTTGGACACGTTGGCCTTCCAGGAATTGAAGTCAGAGTTAACTGAGGTTCCTGCTTCCCAAATCTTGAAGGAAAATCCATCTGGCCGACCCAGGAGCAAAGAAGGAGACAAAGGATGTGGAGCGCTAGTCTGGGTAGGAGAGCCAGTCACCCTGAGGACAGCTGAAACAATCGCTGGCAAGTATGGAGTGTGGATGAGAGACCCCAAGCCCACCCACCCCTACACCCAGGAAAGCACATGGAGGATTGACACGGTTGGCACAGAGATCCGCCAGGTGTTTGAGTACAGTCAGATAAGCCAGTTCGAGCAGGGCTATCCTTCCAAGGTCCATGTGCTCCCTCGGGCACTGGAGAGCACGGGTGCTGTGGTGTATGCGGGGAGCCTCTATTTCCAGGGGGCTGAGTCCAGAACTGTGGTCAGGTATGAGCTAGACACGGAGACCGTGAAGGCAGAGAAGGAAATTCCTGGAGCTGGCTACCACGGACACTTCCCGTACGCGTGGGGTGGCTACACAGACATTGACTTAGCTGTGGATGAGAGCGGCCTCTGGGTCATCTACAGCACGGAGGAAGCCAAGGGGGCCATAGTCCTCTCCAAATTGAACCCAGCGAACCTGGAACTTGAGCGTACCTGGGAGACTAACATCCGTAAGCAGTCTGTGGCCAATGCCTTTGTTATCTGTGGCATCTTGTACACGGTGATCAGCTACTCTTCAGCCCATGCAACCGTCAACTTCGCCTACGACACTAAAACGGGGACCAGTAAGACCCTGACCATCCCATTCACGAATCGCTACAAGTACAGCAGTATGATTGACTACAACCCCCTGGAGAGGAAGCTGTTTGCCTGGGACAACTTCAACATGGTCACCTATGATATCAAGCTCTTGGAGATGTGAGGAGCCTCTATGCCTACCAGCAAAGGCCAGAAAAGGTGAAGTTCCGGGCTCCCGGGTGAAGCAGCTGTCAGCAGAGGCAGCCAGATGCATGGAGTTTCTCCTCCTGCTAAAGATTTTGTTTATCCGGGTCAATGTACAGCTAGCTCCCCTCTGACTGACACGTCCTCCAGGCTTGTATAGTCGCATAGACTCTGTTCTCTTCTGTCAGCTTTCAAAGGGCTGTTCCTCTTTTAAAAATCACATAGTGTAGCAGTCCAGAGGAAAAACTAGAAGTAAGGTTGTTTCTTCATGAAACCATTGCTTTTGCACGCTATTATGGTTACCATAAGCTTTGCGAGGCAGCGGCGGTTCTGCGGAGCGACCGCTCCTGTGGTTAGAACTGCTCCTGCCGAAGGTGTATTATACTCCAGGGGGCTTCTAGTGCTACAGATACAGCATGTGGTTGGGTGGTACGTAAACCCTTTGCCCTGTGAAATAAAGTTATCTTACATG'
p25
(I32
S'MPALHLLFLACLVWGMGARTAQFRKANDRSGRCQYTFTVASPNESSCPREDQAMSAIQDLQRDSSIQHADLESTKARVRSLESLLHQMTLGRVTGTQEAQEGLQGQLGALRRERDQLETQTRDLEAAYNNLLRDKSALEEEKRQLEQENEDLARRLESSSEEVTRLRRGQCPSTQYPSQDMLPGSREVSQWNLDTLAFQELKSELTEVPASQILKENPSGRPRSKEGDKGCGALVWVGEPVTLRTAETIAGKYGVWMRDPKPTHPYTQESTWRIDTVGTEIRQVFEYSQISQFEQGYPSKVHVLPRALESTGAVVYAGSLYFQGAESRTVVRYELDTETVKAEKEIPGAGYHGHFPYAWGGYTDIDLAVDESGLWVIYSTEEAKGAIVLSKLNPANLELERTWETNIRKQSVANAFVICGILYTVISYSSAHATVNFAYDTKTGTSKTLTIPFTNRYKYSSMIDYNPLERKLFAWDNFNMVTYDIKLLEM'
p26
tp27
sS'GACAGTTGGTCCGAGCTGCTGAAAGGTCTGGTCGCAGAGACAGGAACGCAGCATCCTCAGCGTGCTCCATCCCGGCAGTGTCTTCCTGCGCTCCGCCGGGCGGCGAGCCTCCGGACGACAGCCCCTCTGCTTCTCGGAGAAGCCTGATGAAGTCCTCCGATATCGATCAGGATTTATTTACAGATAGCTACTGCAAGGTGTGCAGCGCACAGCTGATATCCGAGTCCCAGCGGGTGGCCCATTATGAGAGTCGAAAACATGCCAGCAAAGTCCGGCTGTATTACATGCTTCACCCCAGGGATGGTGGGTGTCCTGCCAAGAGGCTCCGAGCAGAAAATGGAAGCGATGCTGACATGGTGGATAAGAATAAATGCTGTACACTCTGTAACATGTCCTTTACCTCAGCTGTGGTGGCCGACTCACATTACCAAGGCAAAATCCACGCCAAAAGGTTAAAACTGTTGCTAGGAGAGAAACCTCCACTGAAAACCACAGCCGCTCCGCTGAGCTCACTTAAGGCTCCTCGAGTGGATACGGCCCCCGTGGTCGCATCTCCCTATCAAAGAAGAGACTCAGACAGGTACTGCGGTCTCTGCGCAGCCTGGTTTAACAATCCTCTGATGGCCCAGCAGCATTACGAAGGCAAGAAACACAAAAAGAACGCAGCCCGCGTTGCCTTGCTAGAGCAGCTCGGAACATCTCTGGATCTGGGAGAACTGAGAGGTCTGAGACGTACTTACAGATGTACCACGTGCAGTGTGTCGCTCAACTCCATAGAACAGTATCATGCACATCTGCAAGGATCAAAACATCAGACCAAGTGACTGAAAGCCACTGTCTCCCCAAGAGTCCTTCAAGCCTTCAGCTCATGATTGGAACTCCTGAAAAGCTGCTGAGTTCTCAGCCTCTTCCATGTGAAGATGGTGATTGTTGGAATACACAGACTATCACAACTGAGATGTTTTGCTGAAGCAGAAGACATGTGATGTTTGGAAAGAATGAAAGTAAAACCCAACAGACAGTGACCAATGCTCTTGCATTGGCTTGACTTGCAACACTTCGATAATCTTCACTGATCTTCTCTTGTCATGACTTCATAAAGAAGAAATGCAACAAAGAACTTTTCGTGGTATTCTGGCTGCTTCTTATCACTTCTACAGACTCATGCCAATTCCGCAGAGCCTTGAGGTTTCTCCTAGAGGGAGCCACAGATACTAATTCATGTTTGATGTTTGCCAATTGGACTAGACTGCTGCTACTGAACTGTGTTTGGAATTGCCCCAAAGTACATCCACAGGTACTACAGGTCCACATCCCATTCATCTTATTAACCATCTTTCTCCCCTACTTTAGGTGGGTGGGATGGAAAGTAGGTTGAAGTGTTCAAGAACCCGTATTAAAGGAGGTTTTGAAAAAATTCTAAGAGTTTACATTTTACAACAATAAGAACAATGAAATTATTTATTTAATTTTAAACAAAACCATTCCTTTGCCCAACCAAAGTACCTCATTAGCTTTCATGCTAAATGGCACCTTGATGTTTTCACTGTTCTGAGTAGGCTCTCATGTTAACTCACACGTTCACCCATGCATGGAGGATGTCACAGAAAGGCCTAGGATAGTGTTCCTCAACCTGTGGGTCATGCCCCCATTCTGCATATCAGATATTTACACTATGATTCACAGCAGTAGCAAAATTACAGCTATGAAGTAGCAACAACGATAATTTTACAGTTGGTGGTCACCCCAACTTAAGGAGCTATATTAAAGGGTTGCAGCATTAGGAAGGTTGAAAACCACTGACTAGGAGGTAAATGACTATGGTTAGCTTGTGAATGGACTTGAAGGGCTTCTTTGCATCTATAGGTTAGACTTTATAGGTCAATTTTACTTATATACCTTCTGCCTTCTTAAAGTGGCAAAATGGACACTTGTTAACATTAAGAAGTATAGCCAACCCTCTGACACATAACAAAATAAGAAGCTAAGGATGCACACACATACTTTATTTGGTGGCAATCTGTCATACAAAGAAATTAGTGAGTATTCAGGTAGTCAAGCATTACATATAAAGCAAGTCAAGTGATGTATTAAGAACTTATCATTAACTAACTGATTTGTTGATTATGCTTAAACTGGTACACAATTACCATCGGTACAAATCATTTCCCCAGCATTCTATTTTTCATGATCTAAAACATCTCTGAGTGACATAAGTCCTTAGTAAGCAAACCAAAAATAAATAAATAAATAAAATAATCCCCAAAACC'
p28
(I6
S'MKSSDIDQDLFTDSYCKVCSAQLISESQRVAHYESRKHASKVRLYYMLHPRDGGCPAKRLRAENGSDADMVDKNKCCTLCNMSFTSAVVADSHYQGKIHAKRLKLLLGEKPPLKTTAAPLSSLKAPRVDTAPVVASPYQRRDSDRYCGLCAAWFNNPLMAQQHYEGKKHKKNAARVALLEQLGTSLDLGELRGLRRTYRCTTCSVSLNSIEQYHAHLQGSKHQTK'
p29
tp30
sS'ATTATTGGCGTTCATCCCAGGGCTAGAGCCGGAGCAGACTGTCAGAAGGCTGAGCCTTCAGTATCCCTCGGTGCCGCATGGCCTTTAGTGTTGGAAAGCCGGAAGCAAACGGTTTGGATGTGGAGACATGGCCTCTGGTTTTCCTGCTGAGGCTGAGGCAAGAGAAAGGAGGGAAGATACCACAGAAGGGTTCAGAAACAAAGGCTTGCGTAAGAATGGGCTTCCTCTTCTGAGAGCACCACACATCCCTCGTCCTCTTCACCTGCCTGTCTGCAATCCTGACCAGAACCTTCTCTCAAGCTTAGATCATTCCCGAATCCCACTTCTAGCCTTGCTCAAGCTCTTTGGAATCAAGCTCAAACTCCTGAATGTTCCAAGACACACCCCTTCTAGAGATGCTGGATCCAACCCAAACCTGCCCACTCCGGAACCCACCATGTGTTTAAGCCACACCCCTCCTAGTACCCCTCTCCCCAGTCCCTTTTAGCCCCATTCCAGAATGGTGTAGGACACCACTTCCCTTTTAGGCTCCACATCCAGTATGTGTGGAATTCAACTTTTGGCTGACTGGTCCTCTCTCTACAGAGGCCATCTCCTCTCCACCCATTTCATCCAAGCCACCTCCACCCCTCTACTCTTGGGGTTGAATTTCCATTTGAGAGCTTCTTAAGTTCAGGCGATGCTGGAGGAACCAAGGCTAGAGTTAGGAGGGGCAGAGGGAGAGAAGGAAGGGGGAAAAAGTCACATCGACCCACTCCATGCAGCCAAGGTCTGGCCCCCTTCCTGTCCCCTTTCTAGAGCCCCCTTACATCACGGGACAGGGCTGGGGAACCGATAGGGGCTGAGGAGTGCAAGGTCAGGGGTAGGGAGGAGCCCATTCAGGACTGGGCCCCTAGTGCATGGAGGAGTGGGTGAAGGTAGGGCTCAGACAGATAAATAGATATTTATATATAATATATATATATATAAACAGCAAAGACAGGGTCTCCTGGGTTGAGGGGTGGAGACCTAGGATATGGGGA'
p31
(I17
S'MAFSVGKPEANGLDVETWPLVFLLRLRQEKGGKIPQKGSETKACVRMGFLF'
p32
tp33
sS'AGGTGCCGTCTGCCGGCCGCCGCGGGAGCGAGGAGCGCTGGGCGGCGCGGCTCCACCATGGCTCTGACCCTGTTCGATACAGATGAATATAGACCTCCTGTTTGGAAATCTTACTTATACCAGCTGCAGCAGGAAGCCCCTCACCCTCGAAGGGTCACCTGCACTTGTGAGGTAGAAAACAGACCAAAGTATTATGGAAGAGAGTATCATGGCATGATCTCTAGAGAAGAGACTGACCAGCTCCTGAGTGTGGCTGAGGGGAGCTACCTCATCCGTGAGAGCCAGCGGCAGCCAGGAACGTACACTTTGGCTTTAAGATTTGGAAGTCAGACCAGAAACTTCAGGCTGTACTACGATGGAAAGCACTTTGTTGGGGAGAAACGCTTTGAGTCCATCCACGATCTGGTGACTGATGGCTTGATTACTCTCTATATTGAAACCAAGGCAGCAGAATACATTGCCAAGATGACGATAAACCCAATTTATGAGCACATAGGATACACAACCTTAAACAGAGAGCCAGCATACAAACAGCACATGGCAGTCCTGAAAGAGACACATGATGAGAAAGAGGCTACAGGCCAGGATGGGGTATCAGAGAAAAGGTTGACATCACTTGTTAGAAGAGCAACTCTGAAAGAAAATGAACAAATTCCAAAATATGAAAAGGTTCACAATTTCAAGGTGCATACGTTCCGAGGGCCACACTGGTGTGAATACTGTGCCAACTTCATGTGGGGCCTCATTGCTCAGGGAGTGAAATGTGCAGATTGTGGGTTGAATGTTCACAAGCAGTGTTCCAAGATGGTCCCCATTGACTGTAAGCCAGATCTGAAGCACGTGAAGAAGGTGTACAGCTGTGACCTGACAACGCTCGTGAAAGCTCACATCACCAAGCGGCCAATGGTGGTAGACATGTGCATCAGGGAGATCGAGTCCAGAGGTCTTAATTCTGAAGGACTCTACCGAGTGTCAGGATTTAGTGACCTGATTGAAGATGTCAAGATGGCTTTTGATAGAGATGGTGAGAAGGCGGATATTTCTGTGAACATGTATGAGGACATCAACATTATCACTGGTGCACTTAAACTGTACTTCAGGGATCTGCCAATTCCTCTCATCACATACGATGCCTACCCCAAGTTCATTGAGTCTGCCAAAATTATGGACCCTGACGAGCAATTGGAGACCCTTCACGAAGCACTGAGATCGCTGCCGCCTGCCCACTGCGAGACGCTCCGGTACCTCATGGCGCATCTCAAGAGAGTGACCCTTCATGAGAAGGAGAATCTGATGAGTGCAGAGAACCTTGGGATCGTGTTTGGACCAACCCTCATGAGATCCCCAGAGCTCGACCCCATGGCCGCCCTGAACGACATACGCTATCAGAGACTGGTGGTGGAGCTGCTTATCAAAAACGAAGACATTTTATTTTAGAGTTTTGATTTGAGGAGAAGAAAAATGGTTTACAGATGAAGGAATGTTTTCTAGTAATTTAATTAGCTTCATTAGCTGAATTGTTTCTTCGTTAGAGGTTTGGCCAAATACCCAGATTAAAATGAAGGAACTTCCTGTCATTTCTATAGCACCGCTCAGCTGTCCTTGTAAAACAGTGCACACACGCTTTCTGGTCCCGGTAACCCTGGGTGTCTATCATGTTAAGAGAAACTCAAGCTACTGCATGATTACCCCTTTTTGGTGAGGAAACCCCACATTGAGGAATCACAGACTTGTGCCTGCACCACCTCTGTCCTGGGTTGTCTGTGGTTGTCACCCAGCATGCTTCCCAGAGTAAACTGTCATGACTTTGCTTTTGGGGTCCATGCCATTGGTTTCTGATGCTTGCACACACACACACATAAGCAGTGCCCTGGCTGTTACATCACCATCCCCATACCATATGCCAACTCCACAACGGTTCCTTTCCAGCTTCTTCCTCCTCCTCTGACATAGCGCTTTGTCCTCAGCAGAAGCCAGATGTGTTTTAGATCTTACTTCAGTACGCTACCAATAAAAATGCACCACACAACATTTTCTGTTAAATTATTGGTTTTCAACTGTAAATTTATATTTTTACCTGGCATGCAGTTATTAATTTATTAAATTTGGCTTTTAGAAATCAAAAAAAAAAAAAAAAAAAAAAAA'
p34
(I14
S'MALTLFDTDEYRPPVWKSYLYQLQQEAPHPRRVTCTCEVENRPKYYGREYHGMISREETDQLLSVAEGSYLIRESQRQPGTYTLALRFGSQTRNFRLYYDGKHFVGEKRFESIHDLVTDGLITLYIETKAAEYIAKMTINPIYEHIGYTTLNREPAYKQHMAVLKETHDEKEATGQDGVSEKRLTSLVRRATLKENEQIPKYEKVHNFKVHTFRGPHWCEYCANFMWGLIAQGVKCADCGLNVHKQCSKMVPIDCKPDLKHVKKVYSCDLTTLVKAHITKRPMVVDMCIREIESRGLNSEGLYRVSGFSDLIEDVKMAFDRDGEKADISVNMYEDINIITGALKLYFRDLPIPLITYDAYPKFIESAKIMDPDEQLETLHEALRSLPPAHCETLRYLMAHLKRVTLHEKENLMSAENLGIVFGPTLMRSPELDPMAALNDIRYQRLVVELLIKNEDILF'
p35
tp36
sS'CGGAAGTGGCCGTGGAGGCGGAAGTGGCGCGGCCGCGGAGGGGCCTGGAGTGTGGCGGGACCGGGAGCGGCGGGAGCTGCGGCTGGGGGCGGCGGCGGCGGCGGCGGCGGAGGCGCGCTGGAGGTGGCCATGGCCAAGCAGTACGACTCGGTGGAATGCCCGTTCTGCGATGAGGTCACCAAGTACGAGAAACTTGCCAAGATCGGCCAAGGCACATTCGGGGAAGTCTTTAAAGCCAAGCACCGTCAGACGGGCCAGAAGGTGGCTCTGAAGAAAGTGTTGATGGAGAATGAGAAGGAGGGGTTCCCCATCACAGCCTTGAGGGAAATCAAGATTCTACAGCTCCTAAAACATGAGAATGTGGTGAACCTAATTGAGATTTGTCGGACCAAAGCCTCACCGTATAACCGCTGCAAGGGCAGCATCTATCTGGTGTTTGACTTCTGTGAGCATGACCTTGCTGGGCTGCTGAGCAACGTCTTAGTCAAGTTCACGTTGTCTGAGATCAAGAGAGTGATGCAGATGCTGCTGAACGGCCTCTACTACATCCACAGGAACAAGATCCTGCACAGGGACATGAAGGCTGCGAATGTGCTCATTACCCGGGATGGGGTCCTGAAGCTGGCAGATTTTGGGCTGGCCCGTGCCTTCAGCCTAGCTAAGAATAGCCAGCCCAACCGATACACCAACCGTGTGGTGACATTGTGGTACCGGCCTCCGGAGCTGCTGCTCGGAGAGCGGGACTACGGCCCGCCCATTGACCTTTGGGGTGCTGGGTGCATCATGGCAGAGATGTGGACTCGTAGCCCTATCATGCAGGGTAACACAGAGCAGCACCAGCTCGCCCTCATCAGCCAGCTCTGTGGCTCCATCACCCCAGAGGTGTGGCCAAACGTAGACAAGTATGAGCTGTTTGAAAAGCTGGAACTTGTGAAGGGCCAGAAGCGGAAGGTGAAGGACCGTCTGAAGGCCTACGTGCGCGACCCCTATGCTCTGGACCTCATTGACAAGCTGCTGGTGCTGGACCCCGCGCAGCGGATTGACAGTGACGATGCCCTCAACCACGACTTCTTCTGGTCGGACCCCATGCCCTCGGACCTCAAGGGCATGCTGTCTACTCACTTGACGTCTATGTTTGAGTACCTGGCACCGCCACGGCGGAAGGGCAGCCAGATCACCCAGCAGTCCACCAACCAGAGCAGAAATCCCGCCACCACCAACCAGACGGAATTTGAACGTGTCTTCTGAGGCCGGAACTGGCCGGTGTTGTTCTTAGGTTAGGAGTGGATTGCTTCCTTTGCATGGAACATGTGACATGATGGGACATTTGAGATTTTCTCCTCCAGTACATATTAACTCCCACCCTGGCACTGGGAACAGCTGCCTGAGTGGGCTGGGGTGGAGCTATCCTGCCTGCCCCTCTCTGGAGGTCTCAGCGTGGACACAAAGTGAGGTGGGAGAGGCTCACCCACTGTGACTTTCTAAGAACTACTTGCATGGTGGGAGGAAGGCACAGGTCCCTCGCCATCGCCAGCTCTTCCTCTGGATGAGAGTTTGAGGGACAGAGGCGCCTCCAAAATGGGCTACTTTTGGTCTGGACCTTAGGGGCGTGGGGCTGTGTGAACTCCTGGTTCCTTTAAAAGGAGAATTTTATTTTGTTTTGTTAAGTTTAGAGACATTCCTGGACGCAGTTTGATTGGTTAAATTAAAAGTTGGTTATTTTTTTCCAGTAAAAAAAAAAAAAAAAAAAAAAAAAAAAAAAAAAA'
p37
(I40
S'MAKQYDSVECPFCDEVTKYEKLAKIGQGTFGEVFKAKHRQTGQKVALKKVLMENEKEGFPITALREIKILQLLKHENVVNLIEICRTKASPYNRCKGSIYLVFDFCEHDLAGLLSNVLVKFTLSEIKRVMQMLLNGLYYIHRNKILHRDMKAANVLITRDGVLKLADFGLARAFSLAKNSQPNRYTNRVVTLWYRPPELLLGERDYGPPIDLWGAGCIMAEMWTRSPIMQGNTEQHQLALISQLCGSITPEVWPNVDKYELFEKLELVKGQKRKVKDRLKAYVRDPYALDLIDKLLVLDPAQRIDSDDALNHDFFWSDPMPSDLKGMLSTHLTSMFEYLAPPRRKGSQITQQSTNQSRNPATTNQTEFERVF'
p38
tp39
sS'GGGAAAAACACATGGTGGCTCTGCGCTACAAGACTCAAGTGGCGTTCTCTGCGGCTGACTGGAACTTCTCTCGTAGTGACGGACCTCAAAACTGACTCGGAAGATGCTGGCCTCCAAGCACACACCATGGAGGCGGCTTCAGGGCATTTCCTTCGGAATGTATTCGGCCGAAGAGCTCAAGAAGTTAAGTGTTAAATCCATTACAAATCCTCGATACGTGGACTACCTGGGAAACCCTTCAGCAAATGGCCTGTATGATTTGGCTTTGGGTCCTGCAGATTCCAAAGAAGTATGCGCTACCTGCGTGCAGGACTTCAACAACTGCTCTGGACACCTGGGCCACATTGATCTCCCGCTCACAGTCTACAACCCTTTCCTCTTTGATAAACTCTACCTGCTGCTTCGAGGCTCCTGTTTGAGTTGCCACATGCTGACTTGTCCTCGGGCTGCAATTTACCTGTTGATCTCCCAGCTGAGGGTCCTGGAAGTTGGAGCCCTGCAAGCAGTCTACGAGCTTGAGCGAATTCTCAGCAGGTTTCTGGAAGAAACTGGAGATCCTTCCGCCTTCGAAATTCAAGAAGAGTTAGAAGAATACACAAGCAAAATTCTGCAGAACAACCTCTTGGGGTCCCAGGGCACACATGTGAAAAATGTGTGCGAGAGCAGAAGCAAACTTGTCGCTCAGTTCTGGAAGACACACATGGCTGCGAAGCAGTGTCCACACTGCAAGACGGGACGGTCGGTGGTTCGAAAGGAGCACAATAGTAAACTAATCATCACATACCCAGCCACGGTGCACAAGAAATCAGACCAGGAGGGCACAGAACTCCCAGAAGGAGTGCCGGAAGCTCCAGGAATTGACAAGGCTCAGATGGGGAAACGAGGGTACCTGACCCCAAGCAGCGCCCAAGAACACCTTTTCGCCATTTGGAAGAATGAAGGATTCTTTCTGAATTATCTTTTTTCGGGATTGGATGATATTGGCCCAGAGTCCAGTTTCAACCCCAGTATGTTCTTTCTAGACTTCATAGTCGTACCGCCATCCAGGTACCGTCCCGTCAATCGCCTGGGTGACCAGATGTTCACTAATGGCCAGACAGTAAACTTGCAAGCTGTCATGAAGGATGCAGTTTTGATCCGGAAACTTCTGGCGTTGATGGCCCAAGAACAGAAACTGCCCTGTGAGATGACAGAACTCACCATAGACAAGGAAAATGACTCCTCAGTGGCTATCGACCGATCCTTCCTGGGTTTGCTTCCAGGCCCGTCTCTCACAGATAAACTTTACAACATTTGGATTCGCCTTCAGAGCCACGTCAATATTGTGTTTGACAGTGAGATGGACAAATTGATGTTGGAAAAGTACCCTGGCATAAGACAGATCCTAGAGAAGAAGGAAGGCCTGTTCCGGAAGCACATGATGGGAAAGCGAGTTGACTACGCAGCCCGCTCGGTCATCTGCCCAGACATGTACATCAACACCAATGAGATCGGAATCCCCATGGTATTTGCCACAAAACTGACTTACCCTCAGCCAGTTACCCCCTGGAACGTGCAGGAACTGAGACAGGCAGTCATCAATGGACCCAATGTGCACCCAGGAGCCTCCATGGTCATCAACGAGGATGGCAGTCGCACAGCCCTGAGCTCAGTGGATGCTGCGCAGCGGGAAGCTGTGGCCAAACAGCTCCTGACACCAGCCACAGGGGCTCCGAAGCCTCAGGGGACAAAAGTTGTGTGCCGGCATGTGAAAAATGGGGACATCCTCCTCCTGAACCGACAGCCTACCTTGCACAGACCCTCCATCCAGGCCCACCGTGCCCGCATTCTGCCTGAAGAAAAAGTCCTACGCCTTCACTATGCCAACTGCAAGGCCTACAATGCTGACTTTGATGGAGATGAGATGAACGCCCACTTCCCCCAGAGTGAGTTGGGCCGAGCTGAAGCCTATGTCCTGGCCTGCACTGATCAGCAGTATCTTGTTCCCAAGGATGGCCAGCCATTGGCAGGACTGATCCAAGATCACATGGTTTCAGGTGCAAACATGACCATTCGGGGATGCTTTTTCACCCGGGAACAGTACATGGAACTGGTGTACCGAGGGCTCACAGACAAAGTGGGACGCGTGAAGCTCTTTCCTCCCGCCATCCTGAAGCCCTTCCCACTGTGGACAGGAAAACAGGTTGTGTCGACCCTCCTCATAAACATAATTCCAGAGGACTACGCCCCCCTGAACTTATCTGGAGAGGCAAAAATTGGCAGCAAAGCCTGGGTGAAGGAAAAGCCACGGCCTATCCCTGACTTTGACCCGGACTCCATGTGTGAGTCCCAGGTGATCATCAGGGAAGGAGAGCTGCTCTGCGGAGTGCTGGACAAGGCACACTATGGGAGCTCTGCCTACGGCCTGGTCCACTGCTGCTATGAGATCTATGGGGGTGAGACCAGCGGCAGGGTTCTCACCTGCCTAGCCCGCCTCTTCACTGCCTACCTCCAGCTCTATAGAGGTTTCACCTTGGGTGTAGAAGACATTTTGGTTAAGCCAAATGCAGATGTGGTGAGACAGCGTATCATTGAAGAATCTACCCAGTGTGGACCCCAGGCTGTCAAGGCTGCATTGAGCCTGCCAGAAACTGCATCATGTGATGAAATCCAAGGGAAATGGCAGGATGCCCATCTGAGCAAAGACCAGAGGGATTTTAACATGATTGATAAGAAGTTCAAGGAGGAAGTGAACCATTACAGCAATGAGATTAACAAGGCATGTATGCCTCTTGGCTTGCACAGACAGTTCCCCGAAAACAACCTGCAGATGATGGTGCAGTCAGGAGCCAAAGGGTCAACCGTGAACACGATGCAAATCTCTTGCCTGCTGGGCCAAATTGAATTGGAAGGTCGGAGACCCCCACTGATGGCGTCTGGCAAGTCACTGCCCTGCTTTGAGCCTTACGAGTTCACCCCCAGGGCTGGTGGCTTTGTCACTGGAAGGTTTCTTACCGGTATCAGGCCTCCTGAGTTCTTCTTCCACTGCATGGCAGGACGAGAAGGCCTGGTGGACACTGCTGTCAAAACCAGCCGTTCTGGCTATCTCCAAAGGTGTATCATCAAGCACCTGGAGGGGCTGGTCATCCAGTACGATCTGACGGTCCGTGACAGCGATGGCAGCGTGGTCCAGTTCCTGTATGGGGAGGACGGCCTGGACATCCCCAAGACACAGTTCCTACAGCCCAAGCAGTTCCCCTTTCTGGCCGGCAATTATGAGGTGATAATGAAATCCAAGCATCTTCATGAAGTTTTATCCAGAGCAGATCCCCAGAAAGTGCTCGGCCACATCAAAGCCATTAAAAAATGGCATCACAAGCATTCCGGTGCCCTGCTGAGGAAAGGCGCCTTCCTCAGTTTTTCCCAGAAGATCCAGGCAGCTGTGAAAGCTTTGAACCTAAAGGGCAGTATCCAGAATGGCCGCAGCCCCGAGACCCAGCAGATGTTACAGATGTGGTATGACTTGGATGAAGAGAGCCGATGGAAATACCAGAAGAGGGCTGCCCCTTGTCCCGACCCTAGCCTTTCTGTGTGGCGCCCAGACATCTACTTTGCATCTGTGTCTGAAACATTTGAAAAGAAGATTGATGACTTCAGTCAGGAATGGGCAGCTCAAGCAGAGAGGAGTTACAAGAAATCAGAGCTTTCCCTCGACAGGCTGAGAACCTTACTGCAGCTGAAGTGGCAGCGCTCACTGTGTGACCCAGGCGAGGCTGTTGGCCTCCTGGCTGCCCAGAGCATCGGAGAGCCCTCCACACAGATGACACTGAACACCTTCCACTTTGCAGGCAGAGGCGAGATGAACGTCACCCTGGGCATTCCAAGATTGAGGGAGATTCTCATGGTGGCCAGTGCCAACATCAAAACGCCCATGATGAGTGTGCCTGTGTTCGACACCAAGAAAGCATTGAAGAAAGTGAAGAGTCTAAAGAAGAGGCTCACCAGAGTGTGCCTGGGGGAGGTATTGCAGAAAGTTGACATCCAGGAGTCCTTCTGTATGGGAGAAAAACGGAATAAGTTCCAGGTGTATGAGCTCCGGTTTCAGTTCCTGCCACATGCATATTACCAGCAGGAGAAGTGCCTGAGACCCGAGGACATCTTGCACTTCATGGAAACCAGATTCTTTAAGCTACTAATGGAAGCTATCAAAAAGAAGAAAAACAAAGCATCAGCCTTCAGAAATGTGAATTCGAGGAGAGCTACACAGAAGGACCTCAATGACACTGAGGACTCGGGGAGGAGTCAGAGAGAGGAGGAAAGGGATGAGGAAGAGGAGGGGAACATTGTGGATGCTGAAGCTGAGGAGGGCGATGCAGACGCTTCTGACACCAAACGC'
p40
(I13
S'MLASKHTPWRRLQGISFGMYSAEELKKLSVKSITNPRYVDYLGNPSANGLYDLALGPADSKEVCATCVQDFNNCSGHLGHIDLPLTVYNPFLFDKLYLLLRGSCLSCHMLTCPRAAIYLLISQLRVLEVGALQAVYELERILSRFLEETGDPSAFEIQEELEEYTSKILQNNLLGSQGTHVKNVCESRSKLVAQFWKTHMAAKQCPHCKTGRSVVRKEHNSKLIITYPATVHKKSDQEGTELPEGVPEAPGIDKAQMGKRGYLTPSSAQEHLFAIWKNEGFFLNYLFSGLDDIGPESSFNPSMFFLDFIVVPPSRYRPVNRLGDQMFTNGQTVNLQAVMKDAVLIRKLLALMAQEQKLPCEMTELTIDKENDSSVAIDRSFLGLLPGPSLTDKLYNIWIRLQSHVNIVFDSEMDKLMLEKYPGIRQILEKKEGLFRKHMMGKRVDYAARSVICPDMYINTNEIGIPMVFATKLTYPQPVTPWNVQELRQAVINGPNVHPGASMVINEDGSRTALSSVDAAQREAVAKQLLTPATGAPKPQGTKVVCRHVKNGDILLLNRQPTLHRPSIQAHRARILPEEKVLRLHYANCKAYNADFDGDEMNAHFPQSELGRAEAYVLACTDQQYLVPKDGQPLAGLIQDHMVSGANMTIRGCFFTREQYMELVYRGLTDKVGRVKLFPPAILKPFPLWTGKQVVSTLLINIIPEDYAPLNLSGEAKIGSKAWVKEKPRPIPDFDPDSMCESQVIIREGELLCGVLDKAHYGSSAYGLVHCCYEIYGGETSGRVLTCLARLFTAYLQLYRGFTLGVEDILVKPNADVVRQRIIEESTQCGPQAVKAALSLPETASCDEIQGKWQDAHLSKDQRDFNMIDKKFKEEVNHYSNEINKACMPLGLHRQFPENNLQMMVQSGAKGSTVNTMQISCLLGQIELEGRRPPLMASGKSLPCFEPYEFTPRAGGFVTGRFLTGIRPPEFFFHCMAGREGLVDTAVKTSRSGYLQRCIIKHLEGLVIQYDLTVRDSDGSVVQFLYGEDGLDIPKTQFLQPKQFPFLAGNYEVIMKSKHLHEVLSRADPQKVLGHIKAIKKWHHKHSGALLRKGAFLSFSQKIQAAVKALNLKGSIQNGRSPETQQMLQMWYDLDEESRWKYQKRAAPCPDPSLSVWRPDIYFASVSETFEKKIDDFSQEWAAQAERSYKKSELSLDRLRTLLQLKWQRSLCDPGEAVGLLAAQSIGEPSTQMTLNTFHFAGRGEMNVTLGIPRLREILMVASANIKTPMMSVPVFDTKKALKKVKSLKKRLTRVCLGEVLQKVDIQESFCMGEKRNKFQVYELRFQFLPHAYYQQEKCLRPEDILHFMETRFFKLLMEAIKKKKNKASAFRNVNSRRATQKDLNDTEDSGRSQREEERDEEEEGNIVDAEAEEGDADASDTKR'
p41
tp42
sS'ACTTCCGTCGGGCTTGCCGGGAGTCGCGCGCTGCTGCATCCACGGAGGCGGTGGGCTCGGGCAGTCATGGAGCACTCGGGAACCAGCGAAGTGACAGGCGCAGACACGGCGGGACCCGACCCTCAGCTGGCGGTCACCATGGGCTTCACAGGATTCGGGAAGAAAGCTCGCACATTTGACTTGGAGGCCATGTTCGAGCAAACTCGAAGGACAGCGGTGGAAAGAAGCCGGAAAACACTGGCGGAACCAGTATTTGGAAGGCTGGGCCAGAGGTGGCTGTCACCATTGCTTGTTGACCCAGACAGTATAGAACATTGTGACACACACTGATGTGGCTGCTGCTGTTGAATCCCTGCTTTAATGAGCTGTAGGAGATACTTAATGAAGCCTTACTTCCAGATGGCTTTTCCAGATGGTTGGCAGTTCTAGGAACCACCTTAGGGTCTCCAGAGAACACTGGCAGTGTGCTTTTTTTGGCTCTAACTCAGATCTCTCTTGTACTAGAGGACGGTCTGGAGTCTGGGAACAGCTGGATTTAAATCAGTGCTGTGATAGTACTTGTCATGTTTGTTTATTTTTGTTTTTGTTTGCAGTTGAGACAGGGTCACACTGTAATCCTGGCTGACTTTCTGTGTAGACCAGGATGGCTTTGACTTCTGGCAGGGTATCTCCTTCAGCCTCCTGAATGCTCAGATTAGAGGAACGAGCTACCAATACCTAGATCTGACCCAAATTCAATTTTAGTGACAAAGAAGAGATATGGGATCTTACAATATTACCCTGGGGAGGCTTGAACTCATGGACCAAGTTATCCTTCTGTCTCAGCTCCCTGAGTACCAAGTATTTAGGAGTGCACTACTGTGCCCAGCAGTTAGTTTTGGTTTTAAAATGCTGAATTGTGGGGCTGGAAGGTGGCTCAGCGATTACGAGGACTAGATATTCTTCCAGAGCACCTGGGTGGAGTTCCCAGCATCCACCAGATCTCACAACCCCTTGACCTTCAGAGTCTGGGGATAGGACACCCTCTTCCGGCCTCCTTGGACACTGCACACATATGGTGCCCAGACATCCATGCAGGCAAAAGCATTCATACATGTAACAGTAATAAATAAAATGTTCAAAAGTTAAAATGGTGCATTATTCAGCAATACATATACTATATGGTTAGTGAACTTGAAGCTAATATCACTGGAAGTAAGCCTTTTTGGTGAGATGTAAAGATGTCGATGTGTATATAGTCATATGTACGTATGGTTTTTTTGAGACAGGATCTCACTAAAACTTATCATATAGACTGGGCTGGCCTTAGACTTACAGAGATCCTCAGCCTCTATTTCCTGAATGCTGGGATGAAAGACATGTGCCATTAAGGTGCCCCCCTCACTCTCCCCCCTTCTTTTTGTTGTTTTTTTTTTTTTTTTTTTTTTTTTAAGACAAGGTAGCCTGAAACTTGGTATGTAGGTTAGACTGGCTTCTAACTCAAAGAGATCCACCTGCTTCTACCTCCCAAGTGCTGGCATTAAAGGCGTGTAACCCTGTGTCTGGCTGCTACTGCTTTTTAAAATTCATTATGAGAAATTATAAACTTATAAGTATTACTATCTATATAAGCTACTATTATTCATGGTTAGTTATTATTTTCTTATTGCTATAATAATAAACATTTTTATTTGCTTTTCCTCTCTGATTATTTTGAAGC'
p43
(I21
S'MEHSGTSEVTGADTAGPDPQLAVTMGFTGFGKKARTFDLEAMFEQTRRTAVERSRKTLAEPVFGRLGQRWLSPLLVDPDSIEHCDTH'
p44
tp45
sS'TTTGTGTGGACAGTAATGACCGCACGTTTCCGATTGCCTGCTGGCAGAACCTACAATGTCCGAGCATCAGAGTTGGCCCGAGACAGACAGCATACAGAGGTCGTTTGCAACATTCTTCTTCTGGATAACACTGTACAGGCTTTCAGAGTTAACAAACATGATCAGGGGCAAGTTCTGTTGGATATAGTCTTCAAGCATCTTGATTTGACTGAGCGAGACTATTTTGGTTTACAGTTGGCTGACGATTCCACAGATAACCCAAGGTGGCTGGATCCAAACAAACCAATAAGGAAGCAGCTAAAGAGAGGATCACCTTACAATTTGAACTTTAGAGTCAAATTCTTTGTAAGTGACCCCAACAAGTTACAAGAAGAGTATACAAGGTATCAGTACTTTTTGCAAATTAAGCAAGACATTCTTACTGGAAGATTATCCTGTCCTTGTAACACTGCTGCCCTTTTAGCATCATTTGCTGTTCAGTCTGAACTTGGAGACTACAATCAGTCAGAAAACTTGGCAGGCTACCTCTCAGATTATTCTTTCATTCCTAATCAACCTCAAGATTTTGAGAAAGAAATTGCAAAGTTACATCAGCAGCACGTTGGCCTATCTCCTGCAGAAGCAGAATTTAATTACCTAAACGCGGCACGTACCTTAGAACTCTATGGAGTTGAATTTCACTATGCAAGGGATCAAAGTAACAATGAAATCCTGATTGGAGTGATGTCAGGAGGAATTCTGATTTATAAGAACAGGGTACGGATGAATACTTTTCTGTGGTTGAAGATTGTAAAAATTTCTTTTAAATGCAAACAGTTTTTTATTCAACTTAGAAAAGAGTTGCATGAATCTAGAGAAACATTACTGGGATTTAATATGGTGAATTATAGAGCATGTAAAACTTTGTGGAAAGCGTGTGTAGAACATCATACATTCTTCCGCCTGGATAGACCACTTCCACCTCAAAAAAATTTTTTTGCACATTATTTTACATTGGGTTCCAAATTCCGGTACTGTGGGAGAACTGAAGTCCAGTCAGTTCAATATGGCAAAGAAAAGGCAAATAAAGACAGGGTATTTGCAAGATCTCCAAGTAAGCCTTTGGCACGGAAATTAATGGATTGGGAAGTAGTCAGCAGAAATTCATTATCTGATGACAGGTTAGAAACACAAAGCCTCCCATCCCGGTCTCCACCTGGAACTCCCAACCATCGGAATTCTTCATTCACACAAGAGGCAACCCGGGTTCGGCCGTCTTCAGTTGGTCATTTGGTAGACCATGTGGTTCACATGTCCCCCAGTGAGGATTTTGTAAGTCAGAGATCTCCATCATCAACGCAAGCTAATAGCATAGTTCTGGAGTCATCACCATCACAAGAGACCCCTGAAGATGGGCAGCCACCAGCTTTACCACCCAAACAATCTAAGAAAAATAGTTGGAACCAAATTCATTTTTCAAACTCTCAGCAAGATCTAGTCACCCATACTAATGAATCCTTTGATGTGCCCTCTTCCCCTGAAAAGTCCACTCCTAATGGTGGCATTCCACATGATAACCTTGTTCTAATCAAAATGAAACCTGATGAAAATGGAAGGTTTGGATTCAATGTAAAGGGAGGATATGATCAGAAGATGCCTGTAATTGTTTCCCGGGTAGCACCAGGAACACCTGCTGACCTCTGTGTCCCTCGCTTGAATGAAGGGGACCAAGTGGTACTAATAAATGGTCGGGACATTGCAGAACATACCCATGATCAAGTAGTCTTGTTTATTAAAGCTAGCTGTGAGAAACATTCTGGGGAACTCGTGCTCCTAGTCCGACCTAATGCTGTATATGATGTAGTGGAAGAAAAACTAGAAAGTGAACCAGACTTCCAGTATATTCCTGAGAAAGCCCCACTAGATAGTGTCCATCAAGATGACCATTCCTTGCGGGAGTCAATGATCCAGCTAGCTGAGGGGCTTATCACTGGAACAGTACTGGCACAGTTTGATCAACTCTATCGGAAAAAACCTGGAATGACAATGTCTTGTGCCAAATTACCTCAGAACATTTCCAAAAACAGATACAGAGATATTTCACCTTATGATGCTACACGGGTCCTTTTAAAAGGTAATGAAGACTACATCAATGCAAACTATATAAATATGGAAATTCCTTCTTCAAGTATTATAAATCAATACATTGCTTGTCAAGGGCCATTACCACACACTTGTAAAGATTTTTGGCAAATGACTTGGGAACAAGGCTCCTCCATGGTTGTGATGTTGACCACACAAGTTGAACGTGGCAGAGTTAAATGTCACCAGTATTGGCCAGAACCCTCAGAAAGCTCATCCTATGGATGCTATCAAGTCACCTGCCACTCTGAAGAAGGAAACCCTGCCTATATCTTCAGGAAGATGACACTGTTTAACCAAGAGAAAAATGAGAGCCGTCAACTTACTCAGATTCAGTACACAGCCTGGCCTGACCATGGAGTACCTGATGATTCGAGTGACTTTCTGGATTTTGTTTGTCATGTACGAGACCAGAGGGCTGGAAAAGAAGAGCCCATTATTGTTCATTGCAGTGCTGGAATTGGAAGGACTGGGGTTCTTATTACTATGGAAACTGCCATGTGTCTCATTGAATGCAATCAGCCAGTTTATCCACTAGACATTGTAAGAACAATGAGAGATCAAAGAGCAATGATGATCCAAACACCTAGTCAATACAGATTTGTATGTGAAGCTATTCTGAAAGTTTATGAAGAAGGATTTGTTAAACCATTAACAACATCATCAAATAAATAAAACAAAAAGGTTGGAACAAGTACTGGGAAACTGATTTTGTTATGTTCACTGTGCCATAATACTGCTTGCAAGAAATGGCCTCTCAC'
p46
(I31
S'MTARFRLPAGRTYNVRASELARDRQHTEVVCNILLLDNTVQAFRVNKHDQGQVLLDIVFKHLDLTERDYFGLQLADDSTDNPRWLDPNKPIRKQLKRGSPYNLNFRVKFFVSDPNKLQEEYTRYQYFLQIKQDILTGRLSCPCNTAALLASFAVQSELGDYNQSENLAGYLSDYSFIPNQPQDFEKEIAKLHQQHVGLSPAEAEFNYLNAARTLELYGVEFHYARDQSNNEILIGVMSGGILIYKNRVRMNTFLWLKIVKISFKCKQFFIQLRKELHESRETLLGFNMVNYRACKTLWKACVEHHTFFRLDRPLPPQKNFFAHYFTLGSKFRYCGRTEVQSVQYGKEKANKDRVFARSPSKPLARKLMDWEVVSRNSLSDDRLETQSLPSRSPPGTPNHRNSSFTQEATRVRPSSVGHLVDHVVHMSPSEDFVSQRSPSSTQANSIVLESSPSQETPEDGQPPALPPKQSKKNSWNQIHFSNSQQDLVTHTNESFDVPSSPEKSTPNGGIPHDNLVLIKMKPDENGRFGFNVKGGYDQKMPVIVSRVAPGTPADLCVPRLNEGDQVVLINGRDIAEHTHDQVVLFIKASCEKHSGELVLLVRPNAVYDVVEEKLESEPDFQYIPEKAPLDSVHQDDHSLRESMIQLAEGLITGTVLAQFDQLYRKKPGMTMSCAKLPQNISKNRYRDISPYDATRVLLKGNEDYINANYINMEIPSSSIINQYIACQGPLPHTCKDFWQMTWEQGSSMVVMLTTQVERGRVKCHQYWPEPSESSSYGCYQVTCHSEEGNPAYIFRKMTLFNQEKNESRQLTQIQYTAWPDHGVPDDSSDFLDFVCHVRDQRAGKEEPIIVHCSAGIGRTGVLITMETAMCLIECNQPVYPLDIVRTMRDQRAMMIQTPSQYRFVCEAILKVYEEGFVKPLTTSSNK'
p47
tp48
sS'GCGCTGTGCGGTTCCGGCGTCAGGGCCCGGCATGGCGGGGGTCGGGGCCAGGCCGGGCCGGACCCGGACCTAAATGCCTCTATTTCTCTCCGCGCTGTTGGTCTTGCTGCTGGTTGCGCTTAGCGCACTCTTCCTAGGCCGGTGGCTTGTGGTCCGGTTGGCCACCAGGTGGTGTCAGCGCAAGTTGCAGGCAGAGCTAAAGATTGGCTCCTTCCGATTTTTTTGGATCCAGAATGTCAGTCTTAAGTTTCAGCAGCACCAGCAGACGGTGGAAATTGACAACTTGTGGATTTCCAGCAAACTCCTTAGCCATGATCTGCCAAACTATGTGGCATTGTGCTTTGGAGAAGTGCGCATCAGGACAGATCTACAGAAGGTTTCTAGCCTGTCTGCCCCATTCTCTCAGAACACAGAGGTGGAGCAAAAGGAACTGTCCCTCAGCCCATCCTTGTTGAAGATCTTCTGCCAACTATTCTCCATTCATGTAGATGCCATAAACATCATGGTTCTTAAGGTGGCTACCTCTGAGTCCTTGTGGCACATCCAGATCAGTAGAAGCAGATTTCTTTTGGACAGTGATGGGAAGAGTCTCATCTGTAAAGTGAACCTATCAAAGATCAATAGCAAAGTCCTGAAGAGTGGTCAGCTGGAGGATACATGTCTGGTAGAGCTCTCACTGGCCCTGGACCTGCGCCTACAGGTCAGCGTCAGCAGTTGGCATCTGACGGCTGTCACTGTGGATGTGTGGACACTCCATGCTGAGCTGCATGAAGGTCTCTTCCATAGTCAGCTACTGTGTCATGCCCCAGGCCGGATTTCCAAATCAGTTTCTTGTTCAGATTTGACTGAGAACTTTGCTGAACCAACTCTGCCTGGCCTATACCTCCTCCAGCGGCTGCCAGACCAAGTCAAGGTGAAGATGGAGAACACAAGTGTGGTGTTGTCTATGAACAGTCAAAAACGGCACTTGACTTGGACACTGAAGCTGCTGCATTTCCTGTACCACCGTGATGAGGACCAACTGCCGCTTCGAAGCTTCACAGCAAACTATGATATGGCACAGATGAGCACTGAACTCCTATTGGAAGATGGGTTGTTGCTGTCCCAGAGTCGCCAACGAATTGTCTGCCTCAACTCCCTCAAGGCTAATGTGCAGGTGACCACCATCGACCTCTCAGCTTCTCTAGTTCTGAACACCTGTATCATTCATTACCGACACCAGGAGTTCTCTCACTGGCTCCTTATGCTAGCACTGGAGACCCAAGGAGCCAGTTCACCTGATCTTAAACAAAAAAAAAAAAAAA'
p49
(I10
S'MPLFLSALLVLLLVALSALFLGRWLVVRLATRWCQRKLQAELKIGSFRFFWIQNVSLKFQQHQQTVEIDNLWISSKLLSHDLPNYVALCFGEVRIRTDLQKVSSLSAPFSQNTEVEQKELSLSPSLLKIFCQLFSIHVDAINIMVLKVATSESLWHIQISRSRFLLDSDGKSLICKVNLSKINSKVLKSGQLEDTCLVELSLALDLRLQVSVSSWHLTAVTVDVWTLHAELHEGLFHSQLLCHAPGRISKSVSCSDLTENFAEPTLPGLYLLQRLPDQVKVKMENTSVVLSMNSQKRHLTWTLKLLHFLYHRDEDQLPLRSFTANYDMAQMSTELLLEDGLLLSQSRQRIVCLNSLKANVQVTTIDLSASLVLNTCIIHYRHQEFSHWLLMLALETQGASSPDLKQKKKK'
p50
tp51
sS'GCGTGTACCACTGCTCCCCTCCCGTTCAAAGGCGACAAGATCATTTGCCAAAAGGAGGAGGAGGCAAAGGAAGCAACAGGTCTACATGTTCATGAACGGAAGATTGAGGTCATGGAGAATCCTTCCTGTCGGCGAGGAACCACAAACACCAGCAACGGGGATACAAGTGAGAGTGAACTCCAGGTGGGAAGTCTTTTAAATGGGAGAAAGTATAGTGACTCAAGTCTACCTCCTTCAAACTCAGGGAAACTTCAGAGTGAGACGAGCCAGTGCTCACTAATCAGCAATGGGCCATCGTTGGAACTAGGTGAGAATGGAGCGCCTGGAAAACAGAACTCAGAACCAGTAGACATGCAGGATGTCAAAGGTGATCTGAAAAAAGCCCTCGTCAATGGAATCTGTGATTTTGATAAAGGAGATGGTTCTCATTTAAGCAAAAACATTCCAAATCACAAAACTTCTAATCATGTAGGAAATGGTGAGATATCTCCAGTAGAACCACAAGGGACTTCGGGTGCCACTCAGCAAGATACTGCCAAAGGTGACCAACTAGAAAGAGTTTCTAATGGACCTGTGTTAACTCTGGGTGGGTCACCGTCCACAAGCAGTATGCAAGAAGCCCCGAGTGTGGCGACACCGCCGTTGAGTGGTACTGACCTGCCTAACGGACCTCTAGCTTCAAGTTTGAATTCAGATGTGCCTCAGCAACGCCCAAGTGTAGTTGTCTCACCACATTCTACAGCCCCTGTCATACAGGGGCATCAAGTCATAGCAGTTCCCCACTCAGGACCTAGAGTGACCCCTTCTGCTCTATCATCTGATGCTCGGTCTACAAACGGCACAGCCGAGTGCAAAACTGTAAAGAGGCCGGCAGAGGATAATGATAGGGACACTGTCCCGGGAATCCCAAATAAAGTAGGGGTTAGAATTGTTACAATCAGCGACCCCAACAATGCTGGCTGCAGTGCAACCATGGTTGCGGTCCCAGCTGGAGCGGACCCAAGCACTGTAGCGAAAGTAGCAATAGAAAGTGCTGCTCAGCAAAAGCAGCAGCATCCACCGACCTACATGCAGAGTGTGGCCCCACAGAACACTCCTATGCCACCTTCACCAGCTGTACAAGTGCAGGGCCAGCCTAGCAGTTCTCAGCCTTCTCCAGTCAGTGCGTCCAGTCAGCATGCAGATCCAGTGAGAAAACCTGGGCAGAACTTCATGTGTCTGTGGCAGTCTTGTAAAAAGTGGTTTCAGACTCCCTCACAAGTGTTCTATCATGCAGCTACTGAACATGGAGGAAAAGATGTGTATCCGGGGCAGTGTCTTTGGGAAGGCTGTGAGCCTTTCCAACGGCAGAGGTTCTCTTTCATTACCCACTTACAGGATAAGCACTGTTCAAAGGATGCCCTGCTTGCAGGATTAAAGCAAGATGAACCAGGACAAGTGGCAAATCAAAAATCTTCTACCAAGCAGCCCACCGTGGGGGGCACAGGCTCTGCGCCCAGAGCCCAGAAGGCCATTGCAAGCCACCCCAGTGCTGCACTCATGGCTCTGCGGAGAGGCTCAAGGAACCTCGTCTTCCGGGACTTCACAGATGAAAAAGAGGGACCAATAACTAAACACATCCGACTAACAGCTGCCTTAATATTAAAAAATATTGGTAAATACTCAGAGTGTGGGCGCAGATTGTTAAAGAGACATGAAAACAACTTATCAGTGCTCGCCATTAGTAACATGGAAGCTTCCTCTACCCTTGCCAAATGCCTTTATGAACTTAATTTTACAGTTCAGAGTAAAGAACAAGAAAAAGACTCAGAAATGCTGTAGTGAATCCTACCCCACTGACACAGTGGGGTCTCAAAGTCAAATACATTTCACATACTGTTACTGAAGAAAGCACCAAGTCTTAATGGAGCAGAGACCATAGAATGAATTATTTTGTGTCCTCCATGATGCTGAGAGGAAACTTCGTATTCTGATCTCTGAACGAATCCCTTTCTTTTCTGCT'
p52
(I4
S'MENPSCRRGTTNTSNGDTSESELQVGSLLNGRKYSDSSLPPSNSGKLQSETSQCSLISNGPSLELGENGAPGKQNSEPVDMQDVKGDLKKALVNGICDFDKGDGSHLSKNIPNHKTSNHVGNGEISPVEPQGTSGATQQDTAKGDQLERVSNGPVLTLGGSPSTSSMQEAPSVATPPLSGTDLPNGPLASSLNSDVPQQRPSVVVSPHSTAPVIQGHQVIAVPHSGPRVTPSALSSDARSTNGTAECKTVKRPAEDNDRDTVPGIPNKVGVRIVTISDPNNAGCSATMVAVPAGADPSTVAKVAIESAAQQKQQHPPTYMQSVAPQNTPMPPSPAVQVQGQPSSSQPSPVSASSQHADPVRKPGQNFMCLWQSCKKWFQTPSQVFYHAATEHGGKDVYPGQCLWEGCEPFQRQRFSFITHLQDKHCSKDALLAGLKQDEPGQVANQKSSTKQPTVGGTGSAPRAQKAIASHPSAALMALRRGSRNLVFRDFTDEKEGPITKHIRLTAALILKNIGKYSECGRRLLKRHENNLSVLAISNMEASSTLAKCLYELNFTVQSKEQEKDSEML'
p53
tp54
sS'GAGAGTAGAGAGGAAGGTCTAGGAGCCTGTGGAGTCTAAGGAAGATCGCGGGAGGCGTGTTCCTCCGGAGTTTGCTTTTCCTTGGGAGCCTCGCGCGCACACCCATCCCTTCTAGTCTGGCAACTGTGTCTAGGAGGTGGGGAGCCTCTCTCTGATCCACCGGACCATCGCTGGAGCTTGCAGGCTGAGCAAGATCTCCCCCTAGAGAAGCCTGGCTGTCCGGGGAAGTTTCCCCGAGCTGAGACTGTGCTGCAGCCCTGGTCACCCGCCACCCTGCGCGCCACCCTCGTTCTCCAGCTCAGGCTCCGGCTGGCCCGTGCGCGGACCTGGAGCTGTCTGCTTCCGAGGAGCTCTAAGGTGAAAAAAAGAAAGGCGTGAGAGCAACATAAGAAGACTTAAAATCCAGGTTAAGATGAGTATCTTTTGCCTTGCGGCATACTTTTGGCTGACCATGGTGGGAGGCGTAATGGCTGACAATCCGGAGAGATACAGCGCTAATCTAAGCAGCCACATGGAAGACTTCACCCCTTTTCCGGGGACGGAGATCAACTTTCTGGGCCCACCCATCGACCCCCTAATTTGGGCCGTGATAGCAATGGCTCAATGCACGGCTATTGCCACAGCAGACTAAAATCACGAGAGCTTTCAGATATATTAACACTGTGATATCCTGCACCACTTTCATCGTGGGAGTGGTGGGGAACGCAACTCTACTACGAATCATTTATCAAAACAAGTGTATGAGGACGGCCCCAATGCGCTCATAGCCAGCTGGCCTCTTGGAAGACCTTATCTACGTGGTCATTGACCTCCCCATCAACGTGTTTAGCTCTTGCAGGACGCTGCCTTTCGACCACAATGATTTTGGAGTGTTNCTCTGCAAGCTGTCCCCCTTCCTGCAGAAGTCCTCCGTGGGCATCACCGTCTTGAACCTCTGTGCTCTCAGTGTGGACAGGTACAGAGCAGTGGCTTCCTGGAGCCGAGTTCAAGGAATCGAGATCCCCTTGATTACCGCCATTGAAATCGTCTCCATCTGGATTCTTTCCTTCATCTTGGCCATCCCGGAAGCAATCGGCTTCGTCATGGTACCCTTCGAATACAAGGGCGAGCTGCATAGGACCTGCATGCTCAACGCCACGTCCAAGTTCATGGAGTTTTACCAAGATGTGAAGGACTGGTGGCTCTTTGGGTTCTACTTCTGCATGCCCTTGTTGTGCACAGCAATCTTCTACACCCTCATGACCTGTGAGATGCTCAACAGGAGGAACGGCAGCTTGCGGATCGCCCTTAGTGAGCACCTCAAACAGGTAAACACAATTCACAGGAAGGTGGCTGAGGCCTTTGGAAATCAGCACGCCATGGAGGCATTGATCAGTCACTAACGAGATACACTTGCCTCCAGTATGCCGTACAGTAATATGTCGTGCAGATGTGTATTCTAGGAGCAATAGGCTAGGCCACACAGCCTACCGTGAGATAGATAGTACCATTCAATTCTATGGTGTTTGCTCAGTGTTGAAATTTCCAAACCACACATTTCTCAGAACCTCTCTGTCATTGAACTGCACATGACCATGTTGTATGTAACAGATTTACCCTGATTTTCTAAAAATAAAAATGTTCTCTT'
p55
(I25
S'MVPFEYKGELHRTCMLNATSKFMEFYQDVKDWWLFGFYFCMPLLCTAIFYTLMTCEMLNRRNGSLRIALSEHLKQVNTIHRKVAEAFGNQHAMEALISH'
p56
tp57
sS'GTGGAGAGTCAGTGTGGACTTAGGCCACAAAAGATGGAGGTCCATTTGCCTAGATTGCCATTGATGAAAATCTTCTCCTATCTGGATGCCTACAGTTTGCTACAGGCTGCCCAAGTGAACAAGAACTGGAATGAACTTGCAAGCAGTGATGTCCTGTGGAGGAAGTTGTGTCAGAAGAGATGGCTCTTCTGTGACATGGTTACCCTACAGCTCCTGGGCACAGAGACATGGAAGCAGTTCTTCGTTTTCCGAACATGGCAAGAACATGCCAAGACCCGGGCAAAGCCAGAAGATTTCACTTACAAGGAAATTCCTGCGGAGTATGGATTTCGGGCAAATGTATGTTATATCTCAGGGTGTGGCTTAACAAGAAACGTACAAGACAGGTCGGTCATCTGTATGGTGAGTTCCATGACCAAGTTGTCCACCTGGGATATTCGTGAGGGCATTATGACCTGGGTAAGCACAGAACAGCCAGCCTATATCAAGCTGTTGACTACCCTCCCTGAGATGCACATTGCGGTCACTGTAGATACACACTCAACTATCAAACTGTGGGACTGCCACAACAGGGAAGCTCTGGCAACTAACTGCCTGTTCTCCTCCTGTAAATTACTGAAAGCTGTGTTTTCAAAGGATGACCCAATTGTCTTGGTAGGCGATATCTCGGGAAACCTCTACATCTTTAGGATTCCTGACTTACACCTCATTTCCAAGGTGAATGTATTCCCATACGGTATTGATGAACTCCACTGCTCTCCTCAGAAGAAATGGGTCTTTCTGATTATGAAACACCCACGTGTCTTGACAAAGGTCGTTTACATGAACAGCTTACTGAGGACATCAGAATTCTCTGCCCCTGTGTCTACCATTCTCAAATTTTCATTATGTGATAAAGCCTTCTGGACCCCAAGAAGGGAAGACAGGATAACCCAGATGTCCAGAGGTGTCCCCCCAAGACCCACAAAATTTGCCACATTTGATATGAAGCTGGAAGAGATTGGGAACAAAGTAACTGTTCAAGAATATTTGGTCGCAAGCTTCTCTTTGCAAGATTATGAGGCGAGTCCAGAATGGATGGGAGTCAGTAATAAGGACGTGATTGTTTGTTCAACTGGATCCTCTCTCTTGCTCTTCAACATACATGGTCTCCGTCTTCAGACATTTCACTACTGCCCAGAAGAGATCTTGAGACTATGGGTGGACCCCCTTCATGTCATCGTCACCTGTAACGATGGCTCTATGGATGTGTATGCATGGGAGGAGAGAAGCCTGCTGCTCAGAAAGTGTTATCGGCTGCAAAACAGGAGAAATCTGCCACCAGAAAGGTAATTTCTGCTTCTTGACTTAAACTGGACATTAATTTTAAAACATTTCTGGAGCTGGAGAGTTGGCTCAGCAATTAAAAGCACTGGCTGCTCTTCCAGAGGACTTGGGTTCCATCCCCAGCATCCACATGGCAGCTCACACCTGTCTGTAACTCCAGTTCCAGGGGATCTGACTGACACCCTCACACCAATGCAGTGAAAGTAAAGTTAAACATATTGAAAAGTTCTGTGCAAAAATGCATTTTAAAAAGAGAAATGAACTTTCTATAAAATGTATGACTAAATGTATGATCTCCAGCATCACCCAGAACAGATATTGGCTGTGTATGTGTAATATTTAAGAAGTAGAGTCAGGAGGATCCAGAAGTGCAAGGTCACCTTCTGCTATGTAGGAAATTTGGCAGCCAAATTGGGTTTATTGCAAAACCATCACAAACAAACAAAAATTGGAACTGGCTAAGTATAACACAAGCCTTTAATCTCAGCACTCGGGAGGCAAACAAGTGACTATTTTGTCAGTTCCTGGTCTACATAGTGACTCCCAGGACAGCCAAGACTAGAGAGATTCTGTATTAGGAATGAAATGAGGGAGGGAAAAAAAGAATTGCTAGTTCTTGGAATCTCAGCACATTCAGTTATGTCAACAGTCTCAGGCCCACAGTAGAAGTGGGGAGAATGCATCCTCATATCTTGTCTTTAATGTCAGGATGGGTTCTCCTGAGAGCAGCCCCACTAGGGTTGCTTCATCATTGAGCTGTCATTATCTCCATTTGACTAATTTTCCTTGAGTTTTACTTGCCTTCATCCAAAATATTTTCAGTGATCATGGTATGGGGTAGTACAGTCCCCAAACCCTGCATCCAGGCTGCTGAAGCAAGTGCTGATTGCCAGTTAGCAAGACAACCTGACCCTGTCTCC'
p58
(I19
S'MEVHLPRLPLMKIFSYLDAYSLLQAAQVNKNWNELASSDVLWRKLCQKRWLFCDMVTLQLLGTETWKQFFVFRTWQEHAKTRAKPEDFTYKEIPAEYGFRANVCYISGCGLTRNVQDRSVICMVSSMTKLSTWDIREGIMTWVSTEQPAYIKLLTTLPEMHIAVTVDTHSTIKLWDCHNREALATNCLFSSCKLLKAVFSKDDPIVLVGDISGNLYIFRIPDLHLISKVNVFPYGIDELHCSPQKKWVFLIMKHPRVLTKVVYMNSLLRTSEFSAPVSTILKFSLCDKAFWTPRREDRITQMSRGVPPRPTKFATFDMKLEEIGNKVTVQEYLVASFSLQDYEASPEWMGVSNKDVIVCSTGSSLLLFNIHGLRLQTFHYCPEEILRLWVDPLHVIVTCNDGSMDVYAWEERSLLLRKCYRLQNRRNLPPER'
p59
tp60
sS'GACTTTGTGGAACCTCTAGGGTTAGTGTGCTCCAGATCCCATCATGCTTGGCCTCTGGCTGCTCAGCGTCTTATGGACACCAGTAGCCCCTGGACCTCCTTTGCCCCATGTGAAACAGTATGAAGTGGTTTGGCCTCGGCGCCTAGCTGCATCCCGCTCCCGCAGAGCCCTGCCCTCCCACTGGGGCCAGTACCCAGAGAGTCTGAGCTATGCTCTTGGGACCAGCGGGCACGTTTTCACCCTGCACCTTCGAAAGAACAGGGACCTGCTGGGCTCAAGCTACACAGAGACCTACTCAGCTGCCAATGGCTCTGAGGTGACAGAGCAACTGCAGGAGCAGGACCATTGCCTCTACCAAGGCCATGTGGAAGGGTACGAGGGCTCAGCTGCCAGTATTAGCACCTGTGCTGGCCTCAGGGGCTTTTTCCGAGTTGGGTCCACTGTCCACTTGATTGAGCCTCTGGATGCTGATGAAGAGGGGCAACATGCGATGTATCAGGCAAAGCATCTGCAACAGAAGGCTGGGACCTGTGGGGTCAAAGATACCAACCTGAATGACCTAGGGCCTCGGGCATTAGAAATATACAGGGCTCAGCCACGGAACTGGCTGATACCCAGAGAAACCCGCTATGTGGAGTTGTATGTGGTTGCAGACAGCCAAGAGTTCCAGAAGTTGGGGAGCAGAGAGGCCGTGCGCCAGCGAGTGCTGGAGGTTGTAAACCACGTGGACAAGCTTTATCAGGAACTCAGTTTCCGAGTTGTCCTGGTGGGCCTGGAGATCTGGAACAAGGACAAATTCTACATCAGCCGCTATGCCAACGTGACACTGGAGAACTTCTTGTCCTGGAGGGAACAGAACTTGCAAGGGCAGCACCCACATGACAACGTGCAACTTATCACGGGGGTTGATTTCATTGGGAGCACTGTTGGACTGGCTAAGGTGTCTGCCCTGTGTTCCCGTCACTCCGGAGCTGTGAATCAGGACCACTCCAAGAACTCCATTGGTGTAGCCTCCACCATGGCCCATGAGCTGGGCCACAACCTGGGCATGAGCCATGATGAGGACATTCCAGGATGCTACTGTCCTGAACCACGGGAGGGTGGTGGCTGCATCATGACCGAAAGCATCGGCTCCAAGTTCCCCAGGATATTCAGCAGGTGTAGCAAGATTGACCTAGAGTCATTCGTGACAAAACCCCAGACAGGCTGCCTGACCAATGTTCCAGATGTCAACCGGTTCGTGGGTGGCCCTGTGTGTGGAAACCTGTTTGTGGAGCATGGAGAGCAGTGTGACTGTGGCACACCTCAGGACTGTCAAAACCCCTGCTGCAATGCCACCACTTGCCAGCTGGTCAAGGGGGCAGAGTGTGCCAGTGGTACCTGTTGTCATGAATGCAAGGTGAAGCCAGCTGGAGAGGTGTGTCGTCTCAGTAAGGACAAATGTGACCTGGAGGAGTTCTGTGATGGCCGGAAGCCAACATGTCCCGAAGATGCCTTCCAACAGAATGGCACTCCCTGCCCAGGGGGCTACTGCTTTGATGGGAGCTGTCCCACCCTGGCACAGCAGTGCCGGGATCTGTGGGGGCCAGGTGCTCGGGTAGCAGCCGACTCCTGCTATACCTTTAGCATCCCTCCGGGCTGCAATGGGAGGATGTACTCTGGCAGCCTGCCTTCTGTCTGCAGGATCAACCGGTGTGGAGCGCTGTACTGTGAGGGAGGCCAGAAGCCCCTTGAACGCTCCTTCTGCACTTTCTCCTCCAACCATGGAGTCTGCCATGCTCTTGGCACAGGCAGCAACATTGACACCTTTGAGCTGGTATTGCAGGGCACCAAGTGCGAGGAGGGAAAGGTTTGCATGGATGGAAGCTGCCAGGACCTCCGTGTATACAGATCTGAAAACTGCTCTGCTAAATGCAACAACCATGGGGTATGCAACCACAAGAGGGAGTGCCACTGTCACAAGGGCTGGGCACCACCCAACTGTGTACAGCGGCTGGCAGATGTATCAGATGAACAAGCAGCGTCTACGAGCCTCCCAGTCAGTGTGGTTGTGGTCTTGGTGATCCTGGTGGCTGCGATGGTCATCGTGGCAGGCATCGTCATCTACCGAAAGGCTCCGAGACAAATCCAGAGGAGGAATGTGGCACCCAAGCCTATCTCGGGGCTCTCCAACCCCCTATTCTACACAAGGGACAGCAGCCTGCCAGCTAAGAACAGGCCTCCAGACCCTTCTGAGACAGTTTCTACCAACCAGCCCCCAAGACCCATAGTGAAACC'
p61
(I16
S'MLGLWLLSVLWTPVAPGPPLPHVKQYEVVWPRRLAASRSRRALPSHWGQYPESLSYALGTSGHVFTLHLRKNRDLLGSSYTETYSAANGSEVTEQLQEQDHCLYQGHVEGYEGSAASISTCAGLRGFFRVGSTVHLIEPLDADEEGQHAMYQAKHLQQKAGTCGVKDTNLNDLGPRALEIYRAQPRNWLIPRETRYVELYVVADSQEFQKLGSREAVRQRVLEVVNHVDKLYQELSFRVVLVGLEIWNKDKFYISRYANVTLENFLSWREQNLQGQHPHDNVQLITGVDFIGSTVGLAKVSALCSRHSGAVNQDHSKNSIGVASTMAHELGHNLGMSHDEDIPGCYCPEPREGGGCIMTESIGSKFPRIFSRCSKIDLESFVTKPQTGCLTNVPDVNRFVGGPVCGNLFVEHGEQCDCGTPQDCQNPCCNATTCQLVKGAECASGTCCHECKVKPAGEVCRLSKDKCDLEEFCDGRKPTCPEDAFQQNGTPCPGGYCFDGSCPTLAQQCRDLWGPGARVAADSCYTFSIPPGCNGRMYSGSLPSVCRINRCGALYCEGGQKPLERSFCTFSSNHGVCHALGTGSNIDTFELVLQGTKCEEGKVCMDGSCQDLRVYRSENCSAKCNNHGVCNHKRECHCHKGWAPPNCVQRLADVSDEQAASTSLPVSVVVVLVILVAAMVIVAGIVIYRKAPRQIQRRNVAPKPISGLSNPLFYTRDSSLPAKNRPPDPSETVSTNQPPRPIVKP'
p62
tp63
sS'ATGGACGTTCTGCTTGAGATTTCAAGAATTTTGAATACCAGCTTAGATATGGAAACGCTGTCTATTTGTGTACGGCTTTGTGAACAAGGAATCAACCCAGAAACCTTATCATCTGTTATTAAGGAGCTTCGCAAGGGTACTGAAGCACTAAAGGCTGCTGAAAACACAAGCTGA'
p64
(I0
S'MDVLLEISRILNTSLDMETLSICVRLCEQGINPETLSSVIKELRKGTEALKAAENTS'
p65
tp66
sS'GGGTACTTCTCGGCGCGGCGATTCCTCCGGCCGGGCCCTGCCGTCCCGCGTTCCCCGGAGCGCACGTCTCCGGGGGGAGGGAGCAGGGCTGGTGGGCGCCCGCGGCGCACAGCGGGACCCACGGGGCCCCGCGACCAGCCGAGCCTGGAGCCGGGCCGGGGCGGGGCAGCCGGCTCCAGCCCGGAGCAAACTTCGCCGCCGGGCGGGGCGTGGCGGGGACCCGGGCCCGAGCCGGAGGAGGGGGCGGCCGCGGCCCCTGCCTCTGCGCGCGAGTCGCCGGGCACCATGCTGTCGGGCTCTCCGGGCCAGACTCCGCCGGCGCCTTTCCCCAGCCCTCCACCGCCAGCCCCGGCCCAGCCGCCGCCGCCGTTCCCCCAGTTCCACGTCAAGTCGGGCCTGCAGATCCGAAAGAACGCCATCACCGACGACTACAAGGTCACCAGCCAAGTGCTTGGCCTGGGCATCAACGGGAAGGTGCTGCGGATCTTCGACAAGAGAACCCAGCAAAAATTCGCCCTAAAGATGCTCCAGGACTGTCCGAAGGCGCGCAGAGAGGTGGAGCTGCACTGGAGGGCCTCCCAGTGCCCACACATTGTGCACATCGTGGATGTCTATGAGAACCTGTATGCCGGGAGGAAGTGCCTGCTGATTGTCATGGAGTGTCTCGATGGTGGAGAGCTCTTTAGTCGAATCCAGGACCGAGGAGACCAGGCATTCACAGAAAGAGAGGCGTCAGAGATCATGAAGAGCATCGGCGAGGCCATCCAGTACCTGCACTCGATCAACATTGCTCACCGGGATGTCAAGCCTGAGAACCTCTTATATACTTCCAAAAGGCCCAATGCCATTTTGAAACTCACTGATTTTGGCTTTGCCAAGGAAACCACCAGTCACAACTCTTTGACCACTCCGTGTTATACACCATACTATGTGGCTCCGGAAGTCCTGGGCCCGGAGAAGTATGACAAGTCCTGTGACATGTGGTCCTTGGGTGTCATCATGTATATTTTGCTGTGTGGGTATCCCCCCTTCTATTCCAATCACGGCCTTGCCATCTCTCCGGGCATGAAGACTCGTATTCGAATGGGCCAGTATGAATTTCCTAACCCGGAGTGGTCAGAAGTATCAGAAGAAGTGAAGATGCTTATCCGGAATCTGCTAAAAACAGAGCCCACCCAGAGAATGACCATCACAGAATTCATGAACCACCCCTGGATCATGCAATCTACGAAGGTCCCTCAGACTCCACTGCACACCAGCCGTGTCCTGAAGGAGGACAAGGAACGATGGGAGGATGTCAAGGAGGAGATGACCAGTGCCTTGGCCACGATGCGTGTTGACTATGAGCAGATCAAGATAAAGAAGATAGAAGACGCATCCAACCCTCTGCTTCTCAAGAGGCGGAAGAAAGCTCGTGCTGTGGAGGATGCGGCTCTCGCCCACTGAGCCGCTCTGTCTCCCACCCACTGGAGGACAAGCAATAACTCTACATGAATATATTTTTTAGACAAAGAGACACAAGTTGCCCAATGCTGCCTCCTGTTCTCTTGGGCTGCGTGGCGCCCAGAAATGCCTCCGGCTTTATTCTGCCCTTGGCTCTGGCTCCCCCGAGGTGGGGGCTGGAGGATGTGTGAGGGGCAAGGTGCTCCTGAGCCCGTTGCTCTTTTGCATTTTATCTGTAATTTGGCGTAGAGTTTTTATGGAACCTGTCTTCTTGTCCTTTTCCCCACTCCTCACTCCTTCCCCAGGTCCTTTCCCATCTACAAAGGCTGAGGCTTATCCACAGGTGTTGTGGAAGTTGTTATAGGGAAAGTCCCTAGGTTGCCCTATCTGTCTCCTCTGGCCTCCCACTGTAACGTGGGGTCCTCACTGGCTCTAGAATCTGGGAGTTCCAGGGAGAAGGCAGCAGAGTGGCAGTAGGTGGCCCTTGGAGTCAATGTTCCTTTGCAATTATACAACCCTGGGATTGACTGCTGCCTTTGGAAATTTATTGACTGTATGCTAACTGTGTTTGAATTAATTTATATCAGACTGGAAAATGTACTGGGTGGGTTTTAATTTATTTTTTTCCTCTGACAGTGAAGCATCAGTGTTTTGAAATCCTTTACTCTATAGCTTGCTATCTGGGTGGCCCTGGCAGTGTATACAATGTGTTCCAGCTAGAGCTGCCTTCCAGTGGGCTGTCTCTGGAAACTAGCTGGAAATGCAGCTGAGGATCTGAAATTTCTTTTTTCTTTTCTTTTCTTTTCTTTCTTTTCTTTTCTTTTCTTTCTTTTCTTTTCTTTTCTTTTCTTTCTTTCTTTCTTTCTTTCTTTCTTTCTTTCTTCTTCTTCCTCCTCCTCCTCCTTCTTCTTCTCCTCCTCCTCTTCCTCCTTCTCTTCCTCCTCCTTCTCTTCCTCCTCCTTCTCTTCCTCCTCTTTCTCCTCCTCCTTCTCCTTCTTTCTCCTTCTGCTTCTTTCTCTTCCTCTTCCTCCTCTTCTATTTTGTTCTTCCTTCCATTTCCTTCCCCCACCTTTTTAATTGCACTGTCTTCATAGTATCACATTTGCCAAAGGTGGCAGCTTTGGCACTTAAAGCCCTGAGAAGTGTTTTGCTTTCCTAGACTGTGGGGTGAGCAGAGTGTGCCTGGGAATGTCTGCTTCCTCTTTGTTCAGCTGGAGACAAGCAAGGGTGG'
p67
(I7
S'MLSGSPGQTPPAPFPSPPPPAPAQPPPPFPQFHVKSGLQIRKNAITDDYKVTSQVLGLGINGKVLRIFDKRTQQKFALKMLQDCPKARREVELHWRASQCPHIVHIVDVYENLYAGRKCLLIVMECLDGGELFSRIQDRGDQAFTEREASEIMKSIGEAIQYLHSINIAHRDVKPENLLYTSKRPNAILKLTDFGFAKETTSHNSLTTPCYTPYYVAPEVLGPEKYDKSCDMWSLGVIMYILLCGYPPFYSNHGLAISPGMKTRIRMGQYEFPNPEWSEVSEEVKMLIRNLLKTEPTQRMTITEFMNHPWIMQSTKVPQTPLHTSRVLKEDKERWEDVKEEMTSALATMRVDYEQIKIKKIEDASNPLLLKRRKKARAVEDAALAH'
p68
tp69
sS'CGCGTTTGTACTCGGAGATGCGGAGCTAAAAGGTTCAGGCTTTACTGTGCCGGGAGGAACAGAAGAACTTCCAGAAGAGGAGGGAGGAGGTGGTAGTAGCGGTCGGAGACAGGGTGGCCGCAACATCTCTGTGGAGACAGCAAGTCTGGATGTCTATGCCAAGTACGTGCTGCGAAGCATCTGCCAACAGGTCAGTCTCACCTTCCCCCCCATACCACCTATAAATGCTTCTATGTAATCTAGCCCTGTTTCTAGCCCATGACCACACTACCTCCCTGCTATACATTGGGTCCTTTACCTGCCCCTGGCACAACTTCCCAGGGTTGCCTGCTGTCCTCTAATTATCAGCCTCCTTAGGAATGGGTAGGAGAACGTTGCCTTAAGTCACTGTGTGAGGATAGCAATGATCTACAAGACCCAGTGTTGAGTAGTGCCCAGGCCCAGCGCCTCATGCAACTTATCTGCTACCCACATCGACTGCTGGACAATGAGGATGGAGAAAACCCCCAGCGGCAGCGCATTAAACGTATTCTCAAGAATTTAGACCAATGGACCATGCGCCAGTCCTCTTTGGAGCTACAGTTGATGATCAAGCAGACCCCCAACACTGAGATGAACTCTCTCTTGGAGAACATTGCCAAGGCCACAATCGAGGTTTTCCAACAGTCAGCAGAGACGGGGTCATCTTCTGGAAGTACAGCAAGCAACATGCCCAGCAGCAGCAAGACCAAACCTGTGCTCAGCTCTCTAGAGCGATCTGGTGTATGGTTGGTGGCTCCTCTCATTGCCAAACTGCCCACTTCAGTCCAGGGCCATGTATTAAAAGCTGCTGGGGAGGAACTGGAAAAGGGTCAGCACCTGGGCTCTTCTTCCCGTAAAGAACGAGATCGACAGAAACAGAAGAGCATGTCCCTGTTGAGCCAACAGCCTTTCTTATCACTGGTGCTAACATGTCTGAAAGGACAGGATGAGCAGCGCGAGGGACTCCTGGCCTCCCTCCACAGCCAGGTGCACCAGATTGTGATTAATTGGCGAGAAAACCAGTACTTAGATGATTGCAAACCAAAGCAGCTAATGCATGAGGCACTCAAACTGCGGCTCAACCTGGTGGGGGGCATGTTTGACACTGTGCAGCGTAGTACCCAGCAGACTACAGAGTGGGCCCAGCTTCTCCTTGAGATCATCATCAGCGGCACTGTGGACATGCAGTCTAACAATGAGCTCTTCACTACTGTGTTGGACATGCTGAGCGTGCTTATCAACGGAACGTTGGCTGCAGACATGTCCAGTATCTCGCAAGGCAGCATGGAGGAAAACAAGCGTGCATATATGAACCTGGTGAAGAAGCTTCAGAAGGACTTGGGGGAGCGCCAATCAGACAGTCTGGAGAAGGTTCACCAACTGTTGCCACTACCCAAGCAGAACCGAGATGTCATAACCTGTGAGCCACAGGGCTCCCTTATTGACACCAAGGGCAACAAGATTGCTGGCTTCGATTCCATCTTCAAGAAGGAGGGTCTACAAGTTTCTACCAAACAAAAGATCTCTCCCTGGGAGCTTTTTGAGGGCCTGAAGCCATCAACAGCACCACTGTCATGGGCCTGGTTTGGCACAGTCCGAGTGGACCGCAGAGTGGCACGAGGGGAGGAGCAGCAGCGGCTGTTGCTCTATCATACCCACCTGAGGCCTCGACCCAGAGCCTATTACCTGGAACCACTACCTCTGCCCCCAGAAGATGAGGAGCCACCAGCCCCTGCCCTACTAGAGCCTGAGAAAAAGGCTCCTGAGCCCCCCAAGACTGACAAACCAGGGGCTGCTCCTCCGAGCACTGAGGAGCGCAAAAAGAAGTCTACCAAGGGCAAAAAACGCAGCCAGCCAGCCACCAAGAACGAGGACTATGGCATGGGGCCAGGTCGGAGTGGCCCCTATGGTGTGACAGTGCCTCCAGACCTTCTACACCATGCAAATCCTGGTTCTATATCCCACCTTAGCTACAGGCAAAGCTCCATGGGCCTGTATACCCAAAACCAGCCACTACCTGCTGGTGGCCCTCGTGTGGATCCATACCGCCCCGTGCGATTACCAATGCAAAAGCTGCCAACTCGACCAACTTATCCCGGTGTGCTGCCTACAACTATGTCTACTGTCATGGGCCTAGAACCCTCTTCTTATAAGACATCTGTATACCGGCAGCAGCAACCCACAGTGCCCCAGGGACAGCGCCTTCGCCAACAGCTCCAGCAGAGTCAGGGGATGTTGGGACAGTCATCTGTCCATCAGATGACCCCTAGTTCTTCCTATGGTTTGCAGACTTCCCAGGGCTATACATCCTATGTTTCTCATGTGGGATTGCAGCAACACACAGGCCCTGCAGGTACCATGGTGCCCCCCAGCTACTCCAGCCAGCCTTATCAGAGCACCCACCCTTCTACCAATCCTACTCTTGTAGATCCTACCCGCCACCTGCAACAGCGGCCCAGTGGCTATGTGCATCAGCAGGCCCCAACCTATGGGCATGGACTGACTTCCACTCAAAGGTTTTCACACCAGACACTGCAGCAGACACCCATGATGGGTACCATGACTCCGTTGAGTGCCCAGGGTGTCCAGGCAGGCGTCCGTTCAACTTCCATCCTGCCTGAGCAGCAGCAACAACAACAGCAGCAGCAGCAACAGCAGCAGCAGCAACAGCAGCAGCAGCAACAACAACAGCAGCAGCAGCAGCAGCAACAACAACAGCAGTACCATATCCGACAGCAACAGCAGCAGCAGCAGATGCTACGGCAACAGCAGCAACAACAGCAACAGCAGCAGCAGCAGCAACAGCAGCAGCAGCAACAACAACAGCAACAGCAGCAGCAGCAGCCACACCAGCAGCAGCAGCAGGCAGCTCCTCCCCAACCCCAGCCCCAGTCCCAGCCCCAGTTCCAGCGCCAGGGCCTGCAGCAGACCCAGCAGCAGCAACAGACAGCAGCTTTGGTCCGGCAACTTCAACAACAGCTCTCTAATACCCAGCCACAGCCCAGCACCAACATATTTGGACGCTACTGAGTCACCTGGAGGAACTGCTTGTACACTGGATGTGGCCCAGCCTTTCTGCTTAATTCCCAGTCCCCTTCCTGGGCGAGCTCCAGTAGTGGTTGGGGTCCTTCCCTCAGGCTCCATTTTTAATGAATTTTTAGTATTTTTGTTAATGTGAAACATTGAACTGTTGGGTTTTGTATATTATTTATATAGAGATCCTAGAGCTGCTGCACTCAATACACAGAGCTTCTTTGCAAAAAAAAAAAAAAAAAAAAAAAAAAAAAAAAAAAAAAAAAA'
p70
(I15
S'MQLICYPHRLLDNEDGENPQRQRIKRILKNLDQWTMRQSSLELQLMIKQTPNTEMNSLLENIAKATIEVFQQSAETGSSSGSTASNMPSSSKTKPVLSSLERSGVWLVAPLIAKLPTSVQGHVLKAAGEELEKGQHLGSSSRKERDRQKQKSMSLLSQQPFLSLVLTCLKGQDEQREGLLASLHSQVHQIVINWRENQYLDDCKPKQLMHEALKLRLNLVGGMFDTVQRSTQQTTEWAQLLLEIIISGTVDMQSNNELFTTVLDMLSVLINGTLAADMSSISQGSMEENKRAYMNLVKKLQKDLGERQSDSLEKVHQLLPLPKQNRDVITCEPQGSLIDTKGNKIAGFDSIFKKEGLQVSTKQKISPWELFEGLKPSTAPLSWAWFGTVRVDRRVARGEEQQRLLLYHTHLRPRPRAYYLEPLPLPPEDEEPPAPALLEPEKKAPEPPKTDKPGAAPPSTEERKKKSTKGKKRSQPATKNEDYGMGPGRSGPYGVTVPPDLLHHANPGSISHLSYRQSSMGLYTQNQPLPAGGPRVDPYRPVRLPMQKLPTRPTYPGVLPTTMSTVMGLEPSSYKTSVYRQQQPTVPQGQRLRQQLQQSQGMLGQSSVHQMTPSSSYGLQTSQGYTSYVSHVGLQQHTGPAGTMVPPSYSSQPYQSTHPSTNPTLVDPTRHLQQRPSGYVHQQAPTYGHGLTSTQRFSHQTLQQTPMMGTMTPLSAQGVQAGVRSTSILPEQQQQQQQQQQQQQQQQQQQQQQQQQQQQQQQQQYHIRQQQQQQQMLRQQQQQQQQQQQQQQQQQQQQQQQQQQQPHQQQQQAAPPQPQPQSQPQFQRQGLQQTQQQQQTAALVRQLQQQLSNTQPQPSTNIFGRY'
p71
tp72
sS'GCGGGTCGATGGCCGCTCGCATCGGCTACTACGAGATCGACCGCACCATCGGCAAGGGCAACTTCGCTGTGGTCAAGCGGGCCACGCACCTCGTCACCAAGGCCAAGGTTGCTATTAAAATCATAGATAAGAGCCAGCTGGATGAAGAAAACTTGAAGAAGATTTTCCGGGAGGTTCAGATAATGAAGATGCTTTGCCATCCACACATCATCAGACTCTACCAGGTCATGGAGACAGAGCGCATGATTTACCTGGTGACAGAATACGCTAGCGGAGGGGAGATATTTGACCACTTGGTAGCCCATGGAAGAATGGCAGAGAAGGAAGCTCGACGGAAGTTCAAACAGATCGTCACAGCGGTGTATTTTTGTCACTGTCGGAATATCGTTCATCGTGATTTAAAAGCCGAAAACTTACTTCTGGACGCCAATCTGAATATCAAAATAGCAGACTTTGGCTTCAGCAACCTCTTCACTCCAGGGCAGCTGCTGAAGACGTGGTGTGGCAGCCCTCCCTATGCCGCCCCAGAGCTCTTCGAAGGGAAGGAATATGATGGGCCCAAAGTGGACATATGGAGCCTTGGAGTTGTCCTCTATGTGCTGGTGTGTGGCGCCCTGCCGTTTGATGGGAGCACACTGCAGAATCTGCGGGCCCGCGTGCTGAGTGGCAAGTTCCGCATCCCGTTCTTTATGTCCACAGAGTGTGAGCACTTGATCCGCCACATGCTGGTGTTAGATCCAAATAAGCGCCTCTCAATGGAACAGATCTGCAGGCACAAGTGGATGAAGCTCGGAGATGCAGACCCCAACTTTGACAGGTTAATAGCGGAGTGCCAGCAACTGAAGGAGGAAAGGCAGTCGGACCCCCTCAACGATGATGTCCTCTTGGCTATGGAAGACATGGGGCTGGACAAGGAGCGCACACTTCAGTCATTAAGGTCAGATGCCTATGACCACTATAGTGCAATCTACAGCCTGCTGTGCGATCGACACAAGAAACATAAAACTCTGCGTCCCGGAGCACTTCCCAGCATGCCCCAAGCCATGACTTTCCAGGCACCAGTCAATCTCCAGGCGGAGCAGACAGGCACTGCTATGAACCTTAGCGTCCCTCAAGTTCAGCTGATCAACCCAGAGAACCAAATTATAGAGCCTGACGGGGCTGTGAACTTGGACAGTGATGAGGGTGAAGAGCCTTCTCCAGAAGCCTTGGTTCGCTATTTGTCAATGAGGAGGCACACGGTGGGAGTGGCTGACCCACGCACGGAAGTTATGGAAGATCTGCAGAAGCTGCTGCCTGGCTTTCCTGGAGTAAACCCACAGGGTCCATTCCTACAAGTGGCCCCTAACATGAACTTCACGCACAACCTGTTGCCCATGCAGAGTCTGCAGCCAACTGGGCAGCTTGAGTACAAGGAACAGTCTCTGTTACAGCCGCCTACACTACAGCTACTGAACGGAATGGGGCCCCTTGGCCGGAGAGCCTCAGATGGAGGCGCCAACATCCAACTGCATGCCCAGCAGCTGCTCAAGCGCCCACGGGGACCGTCCCCACTTGTCACCATGACACCAGCAGTGCCAGCAGTTACCCCTGTGGATGAGGAGAGCTCGGATGGGGAGCCAGATCAGGAAGCTGTGCAGAGGTACTTGGCAAATAGGTCCAAAAGGCACACACTGGCCATGACCAGCCCGACAGCTGAGATCCCACCGGACCTGCAACGGCAGCTAGGACAACAGTCTTTCCGTTCCCGGGTCTGGCCTCCTCACCTGGTACCTGACCAGCATCGCTCCACCTACAAGGACTCCAACACCCTGCATCTCCCTACGGAGCGTTTCTCCCCCGTGCGCCGGTTCTCAGACGGGGCTGCAAGCATCCAGGCCTTCAAAGCTCACCTGGAAAAAATGGGCAACAGCAGCAGCATCAAGCAGTTGCAGCAGGAGTGTGAGCAGCTGCAGAAGATGTACGGGGGGCAGGTGGATGAGAGGACCCTGGAGAAGACCCAGCAGCAGCATATGTTGTACCAGCAGGAGCAGCACCATCAGATCCTCCAGCAGCAAATCCAAGATTCTATTTGTCCTCCTCAGCCCTCCCCACCTCTTCAGGTTGCCTGTGAAAACCAACCAGCCCTCCTCACCCACCAGCTCCAGAGGTTAAGGATTCAACCTTCAAGCCCACCCCCCAACCATCCCAGCAACCATCTCTTCAGACAGCCAAGTAACAGTCCTCCCCCGGTCAGCAGTGCCATGATCACGTCTCACGGTGCTACGTCTCCCTCCCAGTTTCAAGGCTTACCCTCCCATGGTGCAATCTTCCAGCAGCAACCCGAGAACTGTTCCCCGCCTCCCAGTGTAGCACTAACCTGCCTGGGCCTACAGCAGGCTAGCCAGTCACAGCCAGTGACTATCCAGCTACAGGAGCCAGTTGACATGCTCAGCAACATGGCCGGAACCGCGGCAGGCTCTGCAGGGCGGAGCATCCCCATCAGCCCCAGCGCCAGTCAGATTCAGATACAGCACCGAGCCAGCCTAATGGCTCCCTTCAGCTATGGGCACCGGCCCTTGTCCAAGCAGCTGAGCGCTGACAGTGCAGAGGCCCACAGCTTGAACATGAATCGGTTCTCCCCTGCCAACTACGACCAGGCGCATTTACACCCCCATCTGTTTTCGGACCAGTCCCGAGGTTCCCCCAGCAGCTACAGCCCTTCAACAGGAGTGGGGTTTCCTCCAACTCAAGCCCTGAAAGTTCCTCCGCTTGACCAGTTCCCCACTTTCCCTCCCAGTGCCCAGCAGCAGCCACCCCACTATACCACGTCAGCACTACAGCAGGCCCTGCTATCTCCTACACCGCCAGACTATCCCCGACACCAGCAGGTTCCCCATATCCTTCAAGGACTGCTCTCTCCCCGGCATTCACTCACCGGCCACTCGGACATTCGGCTGCCTCCGGCAGAGTTTGCACAGCTCATCAAAAGGCAGCAACAGCATCGACAGCAGCAGCAGCAGCAGCAGCAGCAACAAGAATACCATGAATTGTTCAGGCACATGAACCAAGGGGATGCTGTTAGCCTAGCTCCCAGCCTCGGGGGACAGAATATGACAGAGCACCAGGCTTTATCTTATCAAAATGCTGACTCGTACCACCGCCACCACACCAGCCCCCAGCATATCTTACAGATCAGGGCGCAAGATTGTATCTCACAGGGTCCCTCGCCCACCCCCACCCATGGCTATGCCCATCAGCCACCACTAATGCATTCGGAGAGTATGGAGGAAGACTGCTTGTGTGAGGGGCTCAAGGAGGGCTTCCCAGACAAGAGCTCAAGCACACTGACCAAAGGTTGCCACAACAGCCCTCTGCTCTTGTGTACCAGTGGGCCTGGGGACCCTGAGCCTTTGCTGGGAACTGTGAGTCAGGCCCGGGAGCTGGGGATCCATCCCTACGGACACCAGCCAACTGCCACCACGTTCAGTAGAAATAAGGTGCCCAGCCGAGAGTCTGTCCTAGGGAACTGCCTGGAAAGAAGTTCTCCTGGACAAGCAATGGAGCTGCCGGATCACAACGGCCTTGGGTACCCAGTACGGCCCTTAGTCAGTGAGCACCTCAGGTCCCGGACGCTCCAGAGACACCACACGATCCAGAACAGCGACGATGCCTATGTACAGCTGGATACCTTGCCAGGAATGAGCCTGGTGGCAGGCAAGGCGCTGAGCTCTGCCCGGATGTCAGATGCAGTTCTTAGTCAGTCTTCACTCATGGGCAGCCAACAGTTTCAGGATGAGGAAGATGAAGAATGTGGGGTGAGCCTGGGCCACGAGCATCCAGGCCTGGGTGATGGCAACCAGCATCTCAACTCCTCTCGCTATCCAGCTACGTGTGTTACAGACATCATGCTCAGCCACAAGCACCCAGAGGTCTCCTTCAGCATGGAGCAAGCCGGCGTGTAGCAAGATATGGAAAGTTCAAGTACAGCTCCAGGAGGAGGCTGAGTCTAGACCAATAGACCAACAGTGTCCAACAGCGCCGCACCGCTCCTCCGTCTGTGTCTCCACCACAACAGTGCAGCTCCTTCCCCTACACTAGGCACCAGTAGGCCGGCGCTTGGGTTGCGAGGGACATTTGCCATGTTTGCTTGTATGACCAAGGCACCAAGGAAATAAACAGGAAATCAGTGTCCTCCATCTTTCATGAGCCAGCATCTGGTGTGCTTGAGTTGAGTTCTGCTGTTAGGAGGTTTGCTTGTGTTTTGTTTTGGAAATTTTCCTTTGGAGATAACTTATTCTCTTTGCCTTGCCCACCCCTACCCCCTTGAGCATATTCCCCCCCCCCTCTCTCTCGTTTTCACCTACCATTTCTGAGGTAGATGAACCAGAGGTTAGTATTCAGGGGCTGAACCTCAGGACCCTCCCTTCCACAGCCTGTCTCAGACCAGACTCTCTCCCTCTGCCCCGGTCTACCAGGAACAAATGCTAGACCGGAGCTTGGTGGCCAAGAAAAGGAGAGGAGGGGGCAGTGGCCCCTGCCTTTGGAGATTGGAACAGAAGAAAAAACTGAGCCTGGGATCTGGCAGAATCTCCTGCTGGCCTCTACTAGAATCCTATCTGGCCCAGCAGAATTCCATCAGATCCCAGCACAGGCCGGATGGCCTGGTGCTGAAGGTTTGCCATCCAGAATGGCTCAGTGTAGGCCCCTCTGGTGTGTGGTCCAGTTCCCCTCCAGTCACCAACTGGTTCCCCCTCATGAGTGAACACCCAGGAGTGGTGCACTGTGCTGTTTGTGTGATCTCCATTCTTATTCTCTACTGCGTTGTAAAAAGGGCCGTTGGTCCATTTGTGTGCACACGTATGAGTGTGTACATGCCCTTCCCTGCGGCCTCTTTGTCACAGACAAGAATTGAGGCTGTACTGGGTCTCTTAACCTTCTCCTCTCCCCAGCATCCTCGGCCCCTATATTTTAATTCTTGATCATGTAGGAATTGTTTTTGATAAATGTTGATATTATTGTTATTATTGTTATTATTAATAAAGACAAAAAGGATTTTGTTTATTTGTTTAAAAGAGAAATGTTTAACCAGATTCTGTGCTGTTGAACTGTGGCTTGCAACTTCTGTTTGAAGTGTTTTCCTTGGCTTTGGCATCGTGAGCCACTCTCCTGTGCCAGCAGCGGATGCAGTGGCCTCCCTTCCCCAGCCGAAGCAGCACATAGGCAGTGGCTACTGTCCTTGTCACTTCCTTTCTCTCTGCAGTCAGAAACCAAAGTCTGGGGCCAAACGAGGCCGGCCCGGCTTCTCTTCTGGTCTTCAAAACCAGAGAGGGATGGTCCCTGCTCTGACTCCCAGCCCTCATTTCTGAGAGCCAGGGGCCACCAACCTCTGAGTATGCACAGAAGAAAGCCGCTGCCTACCATGGCATCTGGACATTACCAGCAGGGTCCCTAGCCATCTTATCCTTCCGCACCAACCCTGAAAGCTTGCCTCTTTGAACAAATCCATTGTCTCTTGAATGGATTTGTTTTCAATGTGAGAGCTTGGCTGGGGACCTGTTTCGTGGTCCCATGTCCTCCAATTTCCCCTCCACTTCAGGTGTCACTAATTACTAGCCAGAAGATGTCTGACTCCCAAGAAAGCTTGACAAGCCATTGTCAGCTTCCAAGCTCAGTCCAGCTCTGATGCTCCAGCCCCGCCCTGCTGCTCCCCACGCTCAGCCTGACCTGTTTACGTGGTACTGGATTGATGGAAGAGCAGGCACCACCCTCCAGAGCCACCCAGACGAAAGCCAGTGAGCCTATTAACCGTGCCATCTTGCGAACTATTTTCAAGATCACCATTGCTTTATATTGTAGTAACCAATATGCGCAGTATATGTTGAATGTATATGAATCTACTTTGCTATTTCTGTTCTTTGAAAATGTAAGAAGTATTTTTCCTTTCTCATTTCTGTTGATCTAAAAATGATAATAATAATAATAATCTCCAGATTCAAGTTGCTAAGAGCTTTTGTCCTTGTTTGTGTGGGACATCTACAACTTAGTGACTTGGTTGGACTGTAGGAGGTTGTGGAAATAAAAACCTGATTATGTACTAAAAAAAAAAAAAAAAAAAAA'
p73
(I41
S'MAARIGYYEIDRTIGKGNFAVVKRATHLVTKAKVAIKIIDKSQLDEENLKKIFREVQIMKMLCHPHIIRLYQVMETERMIYLVTEYASGGEIFDHLVAHGRMAEKEARRKFKQIVTAVYFCHCRNIVHRDLKAENLLLDANLNIKIADFGFSNLFTPGQLLKTWCGSPPYAAPELFEGKEYDGPKVDIWSLGVVLYVLVCGALPFDGSTLQNLRARVLSGKFRIPFFMSTECEHLIRHMLVLDPNKRLSMEQICRHKWMKLGDADPNFDRLIAECQQLKEERQSDPLNDDVLLAMEDMGLDKERTLQSLRSDAYDHYSAIYSLLCDRHKKHKTLRPGALPSMPQAMTFQAPVNLQAEQTGTAMNLSVPQVQLINPENQIIEPDGAVNLDSDEGEEPSPEALVRYLSMRRHTVGVADPRTEVMEDLQKLLPGFPGVNPQGPFLQVAPNMNFTHNLLPMQSLQPTGQLEYKEQSLLQPPTLQLLNGMGPLGRRASDGGANIQLHAQQLLKRPRGPSPLVTMTPAVPAVTPVDEESSDGEPDQEAVQRYLANRSKRHTLAMTSPTAEIPPDLQRQLGQQSFRSRVWPPHLVPDQHRSTYKDSNTLHLPTERFSPVRRFSDGAASIQAFKAHLEKMGNSSSIKQLQQECEQLQKMYGGQVDERTLEKTQQQHMLYQQEQHHQILQQQIQDSICPPQPSPPLQVACENQPALLTHQLQRLRIQPSSPPPNHPSNHLFRQPSNSPPPVSSAMITSHGATSPSQFQGLPSHGAIFQQQPENCSPPPSVALTCLGLQQASQSQPVTIQLQEPVDMLSNMAGTAAGSAGRSIPISPSASQIQIQHRASLMAPFSYGHRPLSKQLSADSAEAHSLNMNRFSPANYDQAHLHPHLFSDQSRGSPSSYSPSTGVGFPPTQALKVPPLDQFPTFPPSAQQQPPHYTTSALQQALLSPTPPDYPRHQQVPHILQGLLSPRHSLTGHSDIRLPPAEFAQLIKRQQQHRQQQQQQQQQQEYHELFRHMNQGDAVSLAPSLGGQNMTEHQALSYQNADSYHRHHTSPQHILQIRAQDCISQGPSPTPTHGYAHQPPLMHSESMEEDCLCEGLKEGFPDKSSSTLTKGCHNSPLLLCTSGPGDPEPLLGTVSQARELGIHPYGHQPTATTFSRNKVPSRESVLGNCLERSSPGQAMELPDHNGLGYPVRPLVSEHLRSRTLQRHHTIQNSDDAYVQLDTLPGMSLVAGKALSSARMSDAVLSQSSLMGSQQFQDEEDEECGVSLGHEHPGLGDGNQHLNSSRYPATCVTDIMLSHKHPEVSFSMEQAGV'
p74
tp75
sS'ATGATTTTAAAGTACATTAAAGAAATTATTTTCCCCTCCATGACAGTGCTTGGCACTCTGGGAAACATGTTTGTTTTTGTGAATTATATGTTCAGTTGGTGGGGAAGCCCTGAGAAGAAACCCATACACCTCATTCTCATCCACTTGGCTTTTACAAACATCATAATCCTTCTTACAAAAGGATTGCAAAAGACAATAGCAGCTTTTGGTTTGAGAAACTTCCTGGATGACATAGGCTGTAAGAGCATTGTCTACCTGGAAAGGGTATCCCGTGGCCTCTCCATCTGTACCAGCAGTCTCCTCACTGTGGTCCAGGCCATCACCATCAGTCCCAGAGCATCTGGATGGAGGAGGCTCAGGACAAAGTCTGCATGGCACATCCTTCCATTCTTGCTATTCTTTTGGATACTCAATGGTTTAATAAGTATGAACCTAATCCATTCCATCACAGGTACAGGTTTTAATATATCACAGCTTGAGAATAGAGACAGCTATTGCTATTTTATGCTAGAAAGTCAGGAAATAAAATGGATTGTTCTCCCTCTCATGGTCATGAGAGATGCAGTGTTTCAGAGTGCCCTGGGAGGGGCCAGTGGCTACATGATATTTCTTCTCCACAAGCACCACCAGCATGTCCTCTACCTTCAGAATTCCAAGCTTCTCTACAGAACTCCCCCTGAGCTGAGAGCTGCCCAGAGTGTCCTCCTTCTGATGCTCTGTTTTGCTTTCTTCTACTGGACAGATTGTGCGTTTTCTCTAATTTTAAGTCTCTCTTCAAGGGACAAAACCTTGATGGTAAATACTCAAGAATTTCTGGCCCTTGGTTATGCAACTTTTAGCCCTTTTGTGCTGATTCACAGGGATGGGCTTCTGGTTGATTGGTGGCATGCTCAGATGGAGAAATTGAGAAAATGTTACTCTCGTTTATATGTGCAATAG'
p76
(I5
S'MILKYIKEIIFPSMTVLGTLGNMFVFVNYMFSWWGSPEKKPIHLILIHLAFTNIIILLTKGLQKTIAAFGLRNFLDDIGCKSIVYLERVSRGLSICTSSLLTVVQAITISPRASGWRRLRTKSAWHILPFLLFFWILNGLISMNLIHSITGTGFNISQLENRDSYCYFMLESQEIKWIVLPLMVMRDAVFQSALGGASGYMIFLLHKHHQHVLYLQNSKLLYRTPPELRAAQSVLLLMLCFAFFYWTDCAFSLILSLSSRDKTLMVNTQEFLALGYATFSPFVLIHRDGLLVDWWHAQMEKLRKCYSRLYVQ'
p77
tp78
sS'GGCCCGCAGCGGTGCCGGCCCCAGCGACCCTCCGCGGCCCCCAGGTCCTACGCCGCCAGCCTCCATGGACTCGTTCGACCCCCAGCAGCTGGGGCTGTCCCCCGCGCGCTTCGCTGGCACCTTTGGCAGTGGGGCGGCCTCCGTCAGCTGCAGCCGACTCCGCCAGGTTCAAAGTGTCCTGACCCAGAGCAGCAAGTCTCAACCTGATGGGATCCTCTGCATCCTCGGAATTGACAGCAGGTACAATGAAGGCTGTAGAGAGCTGGCAAATTACCTGCTTTTTGGTTTGTACAGTCAGAATGCCACTGATTTTGAGAAAACGGGATTTTCTGAAGAAATTCTAGATGACGTGATTTTATTGATTAAATCAGATAGTGTCCATCTGTACTGTAATCCCGTCAACTACCGCTATCTTTTGCCTTACGTGGCACACTGGAGAAACCTGCATTTCCATTGCATGACGGAAAATGAGTATGAAGATGAGGAAGCAGCAGAAGAATTTAAGATTTCCAGCTTTGTGGACATGGTTCGAGACTGTAGTAGGATTGGTATTCCTTATAGCTCCCAAGGTCACTTACAGATATTTGATATGTTTGTGGTAGAGAAGTGGCCAATTGTCCAGGCCTTTGCACTTGAAGGCATTGGAGGAGATGGATTTTTTACCATGAAATATGAGTTGCAGGACGTGAGTCTGAGTCTGTGGAATGTCTACAGCAGGATGGACCCTGCGTCTCTGGAGAACATGCTTTCAGAAGACCTGGCGGTGTTTGAGCATCAGTGGACGAGCTTCTTTGCTAACTTTGATACAGAAATCCCTTTCCTGCTGGAACTTTCTGAATCTCAGGCGGGTGAGCCATTCAGAAGCTACTTCGGTCATGGAATGCTCTCCAGCCATATTACTGAAAACAGCCCTCATCGGCAGCCTTTTGTTCTCTTTGGCAACCACTCCACACGGGACAACCTGAGCGCTGGCAGCTTTAACTTCCCTTCTGAAGGGCACCTGGTGCGCAACACTGGTCCTGCAGGGAGCTTTGCCAAACACATGGTCGCTCAGTGTGTCTCACCAAAGGGACCTCTGGCCTGTTCAAGAACATACTTTTTTGGAGCTACTCATGTTCCTTATTTGGGTGACAACGAGAAGCTGCCCAGGACCACGGAGCAAATTAGGCTCTTATCCCAGATATATGCTGCTGTTATTGAGGCTGTTTTGGCTGGCATTGCATGTTATGCTAAAACTTGCAGTCTGGCAAAGGCCAAGGAAGTAGCAGAGCACACTCTGGAGTCTGGGTTAGTGTTCACTGAGTTGGTTCCATTCAAAGCAGATCTACGCTCCAAGGTGACTTTTCATATACATGCTGTGAATAACCAGGGAAGAATTGTGCCTCTGAATAATGAAGATAGCTTATCCTTTGTGAAAACGGCTCGTATGACCGTCTATGACATTCCTGACCTGCTGGGAGGAGGAGGAGGAGGATGCTTAGGGTCTGTGGTCTTCTCAGAGTCGTTTTTGACATCTCGGATCTTGGTTAAAGAAAAAGATGGCACTATTACCCCAGAGACCAGCTACATCATCCTGACAGCTGCCATCCCCAGATTCTGTTCCTGGCTGGTAGAAGATAGTGAAATAAAATTGTCTGAGAAAACCCTGCAAGCAACAAAGGGGGACGACTGTTGCTTGGGCACTTTGCTAACAGGAGGAAAGGGAGCGTATCTTTATTCCAACAGTCCACAGTCCGGGCCTGAGGAAGGGAGTGCGTATTTCTTCTCTGGTGGCCTTCTCTTTTCTCACCGTCATCACGGAAGTATCGTCATTGCCAAGGAGCATGTGGATGCTTTCTCCTTCTATGATGGGGACTCCACCAGCGTAGTGGCCGCCCTTCTCATACACTTCCGAAGCTCCATACTTCCTCATCTCCCAGTTCACTTCCACGGATCAAGCAACTTCCTGATGCTTGCCCTTTTCCCCAAATCAAAGATATATCAAGCATTTTACTCAGAGGTCTTCTCTCCCTGGCAACAGCAGGATAACTCAGGGCTTTCTTTAAAAGTGATCCAGGAGGATGGATTATCTGCGGAACAAAAGAGATTGCACTCCAATGCACAGAAGCTCTTCAGTGCGCTGAGCCCTCCTGCCCAGGACTGGAGCTCCCCAAAACTGCTCTCAGGCAAACTTCCTGAGCTGGACCGGTTTCTCCAGCATTTTGCCATCGGCAGCATTGGTCAGGAGCCTGTGATGCGAGCCCATCTTGTGGGCCTGCTGCAGCAACCTGAGATGAGCCCTGCTCACGAAGTAGAGAGTGACAAGGTTGTCATCAGCATTGTAACTGGTCTCCCAGGCTGTCATGCCAGCAAGCTCTGTGCTTTCCTGATCACTCTGCATAAGGAGTATGGCAGATGGATGGTATACCGGCAAATCATGGACAGCTCTGAATGTTTCCATGCTGCCCACTTCCAAAAATACCTTTCCAGTGCCCTGGAGGCCCAACAGAACCGTTCTGCCCGCCAGTCAGCTTACATCCGCAAGAAGACCAGGCTGCTGGTGGTACTACAAGGCTACACAGACGTCATTGATGTTGTGCAAGCCCTGCAGACTCACCCAGACCCAAACGTCAGGTCCTACTTCACCATTGGTGCCGTCACGGTGTGTGTGGAGCCCTTGAGCTGCTACATGGAGCACAGATTTCTCTTTCCTAAATGTCTTGACCAGTGTTCACAAGGTGTGGTGAGTAACGTGGTGTTTACCAGTCACACAGCAGAGCAGAAGCACCCTCTCCTTGTTCAGCTGCAGACCCTCATCAGGGCTTCCAATCCTACCGCAGCCTTCATTCTTGCCGAAAATGGGATTGTCACAAGGAATGAAGACATTGAGCTGATTCTCTCAGAAAATAGTTTTTCGAGTCCCCAGATGCTACGTTCTCGATACTTACTGTTCCCTGGCTGGCAAGCTAGTAAATTTGATGCTGGATCCGTCTTTCCGCTAATGGTTCAGATCTGTGTGTGGTTTGACTGTCCCCTGGAGAAAACCCGCTTTGTGAGCAGGTGCAGAGCAATTCAGTCTTCCATCAAGCCCAGTCCCTTCTCTGGAAACATCTACCACATCCTTGGCAAAGTGAAATTTTCAGATTCTGAAAAGACCATGGAGGTTTGCCACAATACTTTAACCAACTCCCTGACCATTGTGCCAGTTTTGGAGGGACCCACACCACCTCCCAACTCAAGAAGCAGCCCCCAAGACAACGGGCAGCCAGAATGCTACCTTGTGTTCATTGGCTGCTCCCTGAAGGAGGACAGCCTCAAAGACTGGCTTCGACAGTCAGCTAAGCAGAGGCCTCAGAGGAAAGCTCTGAAAACCAGGGGCATGCTGACCCAGCAAGAGATCAAGAACATCCATGTGAAACGCCACTTGGACCCCTTACCTGCAGGCTATTTTTACAATGGCACCCAGTTTGTTAACTTCTTTGGGGACAAGACTGATTTTCACCCACTCATGGACCAGTTCATGAATGATTATGTGGAAGAGGCCAATCGGGAGATCGAGAGGTACAACCGGGAGCTGGAGCAGCAGGAATACCGGGACCTCTTTGAGCAGAAGCCGAAGCCCTAGAGAAAGCTGGGCTTGTGCCTACCAGAGATGAATGAATGAATGGGTGTCCAGCTTTCCTGGAGGCCCCTCCTGAAGGGGCTGTCTCTGTCCTCCCTGGCCTGTGCCTGACAGTGTAGTACATGTTGTCTTTATTCTCTCTTCTCTCTGCACCATGAAAGGCATTGTGTGGACCACTGAGTGAGGGCGGGCACAGGATGAGCAGCTAGCTAGCACTGCCCTGTGAACCAGCAGCTCTGGGTGTCTGGTAAAAGATTCCATTGGACCGATGGACACCATGTAAGGCCGAGGAGAAGCCTTTGGTGTAGCTGCTGGTATTTAGAAGGACCCTGGTTCCCTAAGCAGTGGCCAGGCAGAGATCCACAATGCCTTCTAGATGAGAGCACTTCTGTGGGATGAATGGAAGTGAGATACGATGCTTTCTAGAAATGCAAGGCTCCGTCACTAATTGCAGCACCTTGGGAGGTTTGGTCCTTGAGTTCCTCTCTGTGGCATCACTTGGTTCTCTAATTTAGGGAGAAGAGCAGGCATGCTGCTCGAGCCCTGGAGTGCCTCCCCTCCCTGTTGAGGTGGATATCCTATAACTAGCTTGGACCCAGGGTCTAACCGTTTGGGGACTGTTGGTCTCTAGCACTCAGCCTCCCCACCTCCTGCTAATACATTTCAGAAAACCTCCCAAAACTGCCCCTGGCCCTGAATTTGTTTACTTGGTTCCCAAAGACCAGGAATTTGAAAAATTCTGATATCCAAATTGGAATTCCCTCCAGTAGTTTTGATTTAGGTTGGACCGAACAGCAAAGGTAAACTAACTTGCATTCCCAAGACTGACCTTGCTAATTAGTGTGAGGAATAAGGTCATTAAAGGTGACGTCTGCTAGGATTTGAGTGCCTCTGCTGCTGGACTGTAAATGTTTTCTGAGTTTCATGTACCTTTTGCATGCCTTAGAAGAAGCACATAGTAAAACCAGCATAGTGTTCTGTAATGTAGAAGGGTTTTTGAGAAAGGGCCCTGGCACAGAGGAGAGGTAAGATGGAGCATATGGGTCTGTGTGCCTGGTAACATGGCACTCTTTGGACAAATAGCAAAGTAGTAATCAAGGACTTGTCAATAAAATATACTTGTGTTAGGGGGAAAAAAATGGAAGCTGAATGAACTAAATTACAAGTCCCATTGGGTCAGAAATCTTGCATTAAGAAAAGCTTGTGAAGCCGGGTGTGGTGGCGCACGCCTTTAATCCCAGCACTTGGGAGGCAGAGGCAGGCGGATTTCTGAGTTCGAGGCCAGCCTGGTCTAGAATGAGTTCCAGGACAGCCAGGACTACACAGAGAAACCCTGTCTCGAAAAACCAAAAAAAAAAAAAAAAAAAAAAAAGA'
p79
(I23
S'MDSFDPQQLGLSPARFAGTFGSGAASVSCSRLRQVQSVLTQSSKSQPDGILCILGIDSRYNEGCRELANYLLFGLYSQNATDFEKTGFSEEILDDVILLIKSDSVHLYCNPVNYRYLLPYVAHWRNLHFHCMTENEYEDEEAAEEFKISSFVDMVRDCSRIGIPYSSQGHLQIFDMFVVEKWPIVQAFALEGIGGDGFFTMKYELQDVSLSLWNVYSRMDPASLENMLSEDLAVFEHQWTSFFANFDTEIPFLLELSESQAGEPFRSYFGHGMLSSHITENSPHRQPFVLFGNHSTRDNLSAGSFNFPSEGHLVRNTGPAGSFAKHMVAQCVSPKGPLACSRTYFFGATHVPYLGDNEKLPRTTEQIRLLSQIYAAVIEAVLAGIACYAKTCSLAKAKEVAEHTLESGLVFTELVPFKADLRSKVTFHIHAVNNQGRIVPLNNEDSLSFVKTARMTVYDIPDLLGGGGGGCLGSVVFSESFLTSRILVKEKDGTITPETSYIILTAAIPRFCSWLVEDSEIKLSEKTLQATKGDDCCLGTLLTGGKGAYLYSNSPQSGPEEGSAYFFSGGLLFSHRHHGSIVIAKEHVDAFSFYDGDSTSVVAALLIHFRSSILPHLPVHFHGSSNFLMLALFPKSKIYQAFYSEVFSPWQQQDNSGLSLKVIQEDGLSAEQKRLHSNAQKLFSALSPPAQDWSSPKLLSGKLPELDRFLQHFAIGSIGQEPVMRAHLVGLLQQPEMSPAHEVESDKVVISIVTGLPGCHASKLCAFLITLHKEYGRWMVYRQIMDSSECFHAAHFQKYLSSALEAQQNRSARQSAYIRKKTRLLVVLQGYTDVIDVVQALQTHPDPNVRSYFTIGAVTVCVEPLSCYMEHRFLFPKCLDQCSQGVVSNVVFTSHTAEQKHPLLVQLQTLIRASNPTAAFILAENGIVTRNEDIELILSENSFSSPQMLRSRYLLFPGWQASKFDAGSVFPLMVQICVWFDCPLEKTRFVSRCRAIQSSIKPSPFSGNIYHILGKVKFSDSEKTMEVCHNTLTNSLTIVPVLEGPTPPPNSRSSPQDNGQPECYLVFIGCSLKEDSLKDWLRQSAKQRPQRKALKTRGMLTQQEIKNIHVKRHLDPLPAGYFYNGTQFVNFFGDKTDFHPLMDQFMNDYVEEANREIERYNRELEQQEYRDLFEQKPKP'
p80
tp81
sS'GGAAGGACCTCTCCAGAGAATCCAGATTGCTCCTAGGGAGGCTCCAAACCTCCATTTGACAATGGGAAACTGGCTGGTTAACCACTGGCTCTCAGTTTTGTTTCTGGTTTCCTGGTTGGGGCTGAACATTTTTCTGTTTGTGTATGCCTTCCTGAATTATGAGAAGTCTGACAAGTACTATTACACGAGAGAAATTCTTGGGACTGCCTTGGCCTTGGCCAGAGCATCTGCTCTGTGCTTGAATTTTAACAGCATGATGATCCTGATTCCTGTGTGTCGAAATCTGCTGTCCTTCTTGAGGGGCACCTGCTCATTTTGCAACCGTACACTGAGAAAGCCATTGGATCACAACCTCACCTTCCATAAGCTGGTGGCATATATGATCTGCATATTCACAGTTATTCATATCATTGCACACCTATTTAACTTCGAACGCTACAGAAGAAGCCAACAGGCCATGGATGGATCTCTCGCTTCTGTTCTCTCCAGCCTATCTCATCCTGAGAAAGAAGATTCTTGGCTAAATCCCATCCAGTCTCCAAACATGACAGTGATGTATGCAGCATTTACCAGTATTGCTGGCCTTACTGGAGTGATTGCCACTGTAGCTTTGGTTCTCATGGTAACGTCAGCTATGGAGTTTATCCGCAGGAATTATTTTGAGCTCTTTTGGTATACACATCACCTTTTTATCGTCTATATCATCTGCTTAGGGATCCATGGCCTGGGTGGGATTGTCCGGGGTCAAACAGAGGAGAGCTTGGGTGAAAGCCATCCTCACAATTGTTCCCATTCTTTTCACGAGTGGGATGACCATAAGGGGAGTTGCAGGCATCCTCATTTTGCGGGGCACCCCCCTGAGTCTTGGAAGTGGATCCTTGCACCGATTGCTTTTTATATATTTGAAAGGATCCTTCGCTTTTATCGCTCCCAGCAGAAGGTCGTGATTACCAAGGTTGTCATGCACCCATCTAATGTTTTGGAATTGCAGATGAGGAAGCGAGGCTTTAGCATGGAAGTAGGACAGTATATATTTGTAAATTGCCCCTCCATTTCCTTCCTGGAGTGGCATCCCTTCACTCTGACTTCTGCTCCAGAGGAAGAATTTTTCTCCGTTCATATTCGAGCAGCAGGGGACTGGACACGAAATCTCATAAGGACATTTGAACAACAGCACTCACCAATGCCCAGGATCGAGGTGGACGGTCCCTTTGGCACAGTCAGTGAGGATGTTTTCCAGTATGAAGTGGCTGTACTGGTTGGGGCAGGGATTGGGGTCACTCCCTTTGCTTCCATCTTGAAATCTATCTGGTACAAATTCCAGCGTGCCGACAACAAGCTCAAAACACAAAAGATCTATTTCTACTGGATCTGTAGAGAGACAGGTGCCTTTGCCTGGTTCAACAACTTATTGAATTCCCTGGAACAAGAGATGGAGGAATTAGGCAAAATGGATTTTCTAAACTACCGTCTCTTCCTCACTGGCTGGGATAGCAACATTGCTGGTCATGCAGCATTAAACTTTGACAGAGCCACTGACATCCTGACAGGTCTGAAGCAGAAAACTTCCTTTGGGAGACCAATGTGGGACAATGAGTTTTCTAGAATAGCTACTGCCCACCCCAAGTCTGCGGTGGGGGTTTTCTTATGTGGCCCTCGGACTTTGGCAAAAAGCCTGCGCAAACGCTGTCAGCGATACTCGAGTCTGGATCCTAGGAAGGTTCAGTTCTACTTCAACAAAGAAACGTTCTGACTTGGAGGAAGCAGCACAGCTTCCACACTTTCCTTTGCTCTTCACTAACTTGGGGGTCAGTTACTAGATAACCCTTTGCCTCACAAGGCCTTCCCTCCCAACTTCAAGTTTGATCATACATGGGCTTGGCCGACCTGAGAGCTGCATAATTCACAAGTGCAAAACACATGAATTGGTTTTTATTGGGGGGGGGGGGGGCTGTAAATCCTGGGAACCTGCCTTTAGCTGAATTTTGCTGGCTGACACTTGCACAATTTAACATCAGGTGTCTTGCTTGATAATCTTCCCTCCCACTTGTCCCTCACAAAAGATTTCTAAGTAGGGTGACTTTTAAAATATTTATTGAATCCACGACAGAACAACAATCATAAATAAACAACATAGAACGACCAAGCTTCCCACTCCCATATCACCCACTAAGTACATTGTTACATGAGTTAATCCAGTGTGACCAACAATTTACACGTTACTTTGTCAAAATAATTGACTTTCCTTTTTGCTTATTGAACAATTTCCTAGTAATATCTTAAGTATATTAACTGTAATCAAATTTGTACTATAGTTAGAAGCCAACTATATTGTCACTTTGTATTGTTTGGAATAACTGGAAAGGCCTGACGC'
p82
(I3
S'MGNWLVNHWLSVLFLVSWLGLNIFLFVYAFLNYEKSDKYYYTREILGTALALARASALCLNFNSMMILIPVCRNLLSFLRGTCSFCNRTLRKPLDHNLTFHKLVAYMICIFTVIHIIAHLFNFERYRRSQQAMDGSLASVLSSLSHPEKEDSWLNPIQSPNMTVMYAAFTSIAGLTGVIATVALVLMVTSAMEFIRRNYFELFWYTHHLFIVYIICLGIHGLGGIVRGQTEESLGESHPHNCSHSFHEWDDHKGSCRHPHFAGHPPESWKWILAPIAFYIFERILRFYRSQQKVVITKVVMHPSNVLELQMRKRGFSMEVGQYIFVNCPSISFLEWHPFTLTSAPEEEFFSVHIRAAGDWTRNLIRTFEQQHSPMPRIEVDGPFGTVSEDVFQYEVAVLVGAGIGVTPFASILKSIWYKFQRADNKLKTQKIYFYWICRETGAFAWFNNLLNSLEQEMEELGKMDFLNYRLFLTGWDSNIAGHAALNFDRATDILTGLKQKTSFGRPMWDNEFSRIATAHPKSAVGVFLCGPRTLAKSLRKRCQRYSSLDPRKVQFYFNKETF'
p83
tp84
sS'GAGTCTGCGGGTGCTGGGCTGGGTGCTGGGCTTGGTGCTGAGAAGAGGCTCTGGCTCTTGGCTATTTTCAGGTCAAACACTAAGACTGTGTCCATGTTAGAGCTCATAGAAGTTAATGGAACCCCTGGTAGTCAGCTCTCTACTCCACGCTCGGGCAAGTCACCAAGTCCATCACCCACCAGCCCAGGAAGCCTGCGGAAGCAGAGGATCTCTCAGCATGGCGGCTCCTCGACTTCACTTTCATCCACTAAAGTTTGCAGCTCAATGGATGACAATGATGGCCCTGGGGAAGAAGAGTCTGAGGAAGGCTTCCAGATTCCTGCCACAATAACAGAGAGATACAAAGTCGGGAGAACAATAGGAGACGGAAATTTTGCTGTTGTCAAGGAATGTATAGAGAGGTCGACTGCTCGGGAGTATGCCCTGAAAATCATCAAGAAAAGCAAATGCCGAGGCAAAGAGCACATGATCCAGAACGAGGTCTCCATCCTACGGAGGGTGAAGCACCCCAACATTGTCCTCCTGATTGAAGAGATGGATGTGCCGACTGAACTGTATCTTGTAATGGAATTAGTGAAGGGTGGAGACCTTTTCGATGCCATCACCTCCACTAGCAAATACACAGAGAGAGATGCCAGCGGGATGCTGTACAACCTGGCCAGCGCCATCAAATACCTGCACAGCCTGAACATCGTCCACCGTGACATCAAGCCAGAGAATCTGCTGGTGTATGAGCACCAGGATGGCAGTAAGTCACTCAAGTTGGGTGACTTTGGCCTGGCCACAATTGTCGACGGCCCCCTGTACACAGTCTGTGGCACCCCAACATATGTGGCTCCAGAAATCATTGCAGAGACTGGATATGGCCTCAAGGTGGACATCTGGGCAGCTGGCGTGATCACTTATATCCTGCTGTGTGGCTTCCCTCCGTTCCGTGGAAGTGGGGATGACCAGGAGGTGCTTTTTGACCAGATCTTGATGGGCCAAGTGGACTTTCCATCTCCGTATTGGGACAATGTGTCAGATTCTGCTAAGGAGCTCATCAACATGATGCTGTTGGTTAACGTGGACCAGAGATTTTCAGCCGTGCAGGTCCTTGAGCATCCCTGGGTTAATGATGATGGTCTCCCAGAAAATGAGCATCAGCTGTCAGTAGCTGGCAAAATCAAGAAGCATTTCAACACAGGCCCCAAGCCGAGCAGCACTGCAGCAGGAGTTTCTGTAATAGCACTGGACCACGGGTTTACCATCAAGAGATCAGGGTCTTTGGACTACTACCAACAACCAGGAATGTATTGGATAAGGTATGAGATGGTGCAGCTCAACAGTCAGTGTTTCCATGGCAACGTGCTGGCAGTCTCCATTTACCAGTTCCTTCAGTGGATAAACATGTTTTTGATTTGTTACCCAGTCCATATGCTGCTTTATCGGTTTCATTTTAATCTTGATTGAGATGCCACACCCCCTCATTCCTTTTTTTCACCCATTCTTCACACTGACATTTGCCGGCTTTCTTTCCATCGCACATGCTCAGTATCGATTTCCCCTTACGGTTAAAAGGACAGTATATTCCGTGCTGATGCCAAAGCCTTTGCCTGTTGTTGCTGATTGCAGCAATGATGTTTCCAGTGCTCTCCTGCCCTGTAATAAATGGAACTACAGCT'
p85
(I42
S'MLELIEVNGTPGSQLSTPRSGKSPSPSPTSPGSLRKQRISQHGGSSTSLSSTKVCSSMDDNDGPGEEESEEGFQIPATITERYKVGRTIGDGNFAVVKECIERSTAREYALKIIKKSKCRGKEHMIQNEVSILRRVKHPNIVLLIEEMDVPTELYLVMELVKGGDLFDAITSTSKYTERDASGMLYNLASAIKYLHSLNIVHRDIKPENLLVYEHQDGSKSLKLGDFGLATIVDGPLYTVCGTPTYVAPEIIAETGYGLKVDIWAAGVITYILLCGFPPFRGSGDDQEVLFDQILMGQVDFPSPYWDNVSDSAKELINMMLLVNVDQRFSAVQVLEHPWVNDDGLPENEHQLSVAGKIKKHFNTGPKPSSTAAGVSVIALDHGFTIKRSGSLDYYQQPGMYWIRYEMVQLNSQCFHGNVLAVSIYQFLQWINMFLICYPVHMLLYRFHFNLD'
p86
tp87
sS'GACATTCCACCAGAAGCTTCCAGATGAGCCCACGGGATAACCCTTCGACAACACTGCTGAGACACGGAGAGCACACACACTTGGGAAACCCAGAAAGAGGCGTACTGAAATATGGCTCAGAGTGACTTCCTCTACCCACAAAACCCAAGGAGGCGACAGGAAGTAAACCGCCTACACCAGCAGCTGCTGGACTGCTTGTCTGACAGCTTCCAGGTCACCAACAAGCTCACAGGGGTTCTTAATACCCACTTGGGTTGCAGGCTGGCCTTCATTGAAATGAAAAGCGATGGAACCATCAAAGAAAACTGTGACATCATTATCCAAGCCATGACAAAAATCCAAAAGGAACTGCAAAAGATTGACGAGGCACTGAAAGACCAACTAGAGCCAACCCTTTATAGGGAAGCTGCAGGATATTAAGGAAAGGGAGACGGAGAAGATTGCCATCGTGCAGAAGGTCATTTCTGTCATCCTGGGAGAAGCTACATCTGCAGCCAGTGCAGTGGCTGTTAAACTGGTGGGCTCAAGTGTCACAACTGGCATAATTAGCAAGCTGGTCTCTGTGCTAGCTCACATCGGGACTTCTCTCCTTGGAAGCATTGGCGTTGCCGTGCTCAGCCTCGGGATAGATATGATCATTCAAGCCATCTTGGGAGCAGTGGAGAGGACACAGCTTCAGGCAGCCATCAAAAGTTATGAGAAGCACCTGGAGGAGTCAAGGCTGCCTCAGCAAAGTACCATCATGCTATCACTGAGGTTGCCACTGCTGTGAAGCGCCAGCTAAGATGAACAGATTAAATACAATTGTCTGCCACCCGGAAATGAAGGCAGAGCAACCTCAACAACATTATGTTCCAGAATGAACGAAAGCCCATGCATCTGCGAGGTTCTCCTCAGTTCAAAGCGTGGCTGGATGGATTGGGAAAGGATGAGATAATAAATGTTGTCTGTAATGCAGTCAATATTGACCACCTGTTTGTCATCTATCTCTTGAGTGGTCAAAGTGTGTGGAACCATTGTAAACAAAACAAGGCATAAAATGCAGTGATCCCTGCATAAAATATGTTAGAGTC'
p88
(I35
S'MAQSDFLYPQNPRRRQEVNRLHQQLLDCLSDSFQVTNKLTGVLNTHLGCRLAFIEMKSDGTIKENCDIIIQAMTKIQKELQKIDEALKDQLEPTLYREAAGY'
p89
tp90
sS'AGCCCGTGGGGCGCCCTTCCCGGTTCACCGACTCCGGCCCCGGGGCCTCCGGCTGTGGTGCTGCCGCCCTCCGTCCCGCCGTCCCTCCCCGTCCAGCTCGGGCCGCCGGGCTCCCGCAGGCCCCACCGCCCGCGTTCCTATGGACAGACGCACAGACACCTGCAGGAGAGACACTGCTGATCCTGTAACATGGAGGATTGTCTTCATACCTCATCTGAGAATCTGTCCAAATTGGTCAGCTGGGCCCACAGCCATGGGACCATTTGCAGCCTCATTCCAAACCTGAAACACTTGCTTTCTGAAGGTTCCCATGGGAACCTGACTGCAATGTGGGGCTGTAGTGCCGGCCATGCGTACCACTGGCCACTAACAGCTACTTGCAGAGCTGGGTCCCAAGAGAGGGTTTGTTTCCAGGACAACCGAAGTTTTAATTCTGATAGTCCCAGTATAATTGGGGTGCCTTCTGAGACACAGACTAGCCCTGTGGAAAGGTACCCTGGGAGACCTGTGAAGGCAAAGCTGGACTGTAATCGGACCAGAGACTCTTGTGACTTCTCTTACTGCAGTGAGCCCTCTGAACTGGATGAAGCTGTCGAGGAGTATGAAGATGAAAACACACTGTTTGACATGGTTTGCGAGTCTTCTGTTACAGATGAGGACAGTGACTTTGAACCCCAAACCCAGAGACCTCAAAGCATTGCTCGCAAAAGGCCAGGAATCGTCCCATCTTCCATCCATTCAAGTTCCCAGGGACAGATGGTCGATGAATGCAGTAATGATGTCATCATCAAGAAAATCAAGCAAGAGATTCCAGAAGATTATTACATTGTGGCAAATGCAGAGCTGACTGGAGGAGTGGATGGACCAGCCCTTTCATTGACACAGATGGCAAAACCCAAACCCCAGACTCATGCTGGTCCCTCCTGTGTAGGGTCTGCTAAACTGATTCCCCATGTAACATCTGCCATCAACACGGAATTAGACCCACACATTCTGTCAGCCTCTCCCTCTGTTATCTCCAGACCGATCATCCCAAAGACTGCTAGGGTATCTCTGGCTTCACCAAACAGAGGACCCCCTGGTGCCCATGGCACTGCCCACCAGGTGACCATGCAGATGCCTGTGAGCACATCACATCCTAACAAACAGATCAGTATCCCTTTGTCTGCTCTGCAGTTGCCTGGACAGGATGAGCAAGTTGCTTCGGAGGAGTTCCTGCCCCACTTGCCTAGCCAGGTCTCATCATGTGAGGTAGCCCTTTCTCCCTCTGTTAACACAGAGCCTGAAGTGAGCTCCAGTCAACAGCAGCCCCCTGCTGCTCCAACCATAACCACTGAAGCCACCGCGCAGTGCATTCCAGCTTATTCTACTAAGCTCAACAAATTTCCTGTATTTAATATTAATGATGACTTGAATGGTCTGTGTACCAGTGCAGTGAGCCCAAACACCACCAAAGCCACGAGGTACGCCCTAAATGTGTGGCGCTACTGGTGCATGACCAACGGGCTCAAAGACCACACGGACATCACCAAGATCCCTGCAGTGAAACTGAATGAGCTGCTTGAGAACTTTTATGTCACCGTCAAGAAGAGTGACGGCTCAGACTTCCTGGCTACCTCGCTTCATGCCATTCGCCGAGGCCTGGACCGCATCCTGAAGAACGCGGGTGTGGGCTTTTCCATCACCAGCAGCACCTTCAGCTCCTCCACCAAGAAACTCAAGGAGAAGCTGTGGGTCCTGAGCAAGGCAGGGATGTCGGGGGCCCGTTCCCGCAATATCGTCTACTTCTCCCTTTCTGATGAGGAGGAGATGTGGCAGGCAGGGTGTCTAGGGGATGACAGCCCAATTACTCTCCTGTCCACAGTGGTCAAGTACAACAGCCAGTATCTGAATATGCGGACTCTGCAGGAACATGCAGATCTGATGTATGGTGACATCGAGTTGCTCAAAGATCCGCAAAACCAGCCCTACTTTGCCCGGACCGACAGTGTCAAGCGGGAGAGCCGGAGTGGTTCGACCAGAGTGTGCCATGGGAAAATCTACCATGAGCACTCCAGGGGACACAAGCAGTGTCCTTACTGCCTCCTCTACAAGTACATGTACATCCACCGGCCACCCACCCAAATGGAGGCCAAGTCTCCCTTCTACCTTACAGCCCGGAAGGAGGCCACGGACATGGGCAGCGTGTGGTACGAAGAGCAGAGAATGGGGTTACGGTCTCTCCGGGGAATTGTCCCAAATTTAGCCAGGAAGGTCAAGCTGGAAAACTGTGAGAACTTCACCTTCGTCTCCTTCACTCAGGTCTCCAGGCGACTTGGCTCCCATAGCTGCTGCCAGTGAGCCCCCAGGGCCAGCAGGTTCTGAAGCCGCAGAGACTGATGTCCTCGCTCCGTGATCCAGCTGGTCTCCGTTACTACAGCCGGCCATTCCTCAGACTTGAGATTCACTTTTACATGAAAGTCGATGACTGAATAATTTGGATGTTTTATCTAAATGTTTGACACCTTGTTAAATCATAGAATATAACACAATATAAAATTACTATATACAAAAGTGAAGAAATTCATTTTATCTAGTGCCTTTTTAGCACAGGTTTTCTTGGAAAAAAAGAAAAGAAAAAGAAAAAAAAATGTTTTGAGTAGTTACTTAAAAAATATCCCAGTAGCCCAGTAGCTTTAGAATGGTATAGAATTATATATACTTTGTTGGTTTTCTGGGGTTTTTTGTTTTTCCCCACGTAGGGACCTAGAGCAGGAGAGGCAGACATAGTAGAGAAAACTCTCACTCAGCACCCTTGTGTTTTGTTGGGGCCCTGGCAGTGGGCTGCTTGCAGAAATAAAAGATACATTGTTGCTACGCTGTCTGTCCATAGAGGCAGTTTGGTGACAGGAAGATCAGTTCTCTGAAAGGGTGTACAGGAAACACGGTGTGCAGTGGACTCGGTGGTGTGCACTGTGAGGAGTTCTAGATAGCGGAGGGTGGACTTGGAAAGCCCCCGCGGCCCAGATGTGAAACCCCCCCGAAGCAGAAGTGCCTGCGTCTGTCCAGTTCTCCTTAGAGAACACTTGCTGTTTGAACTTCCTTTTGTTTGTTTTGTTGTTTAATCTGCATTGTTACATCTCGGATTTACATCTCACAGTTGTGTTGGCAGGAGTCCCTGGACCTGTGAGGCTAGCAGCGATGCTTGACTAGGAGAATCAACAGAGAGAGTCACAAGGCAAACACTCCCAGGGCATCTTAAGGGCCCTGGGAATCCTGTAGGCTGGCACTATGTTAGGGACACTGATTCAGGCAGCCTGCCAGGAAACCAAGCCCGGCACAGGGACATAGTTACTGGATCAGAGTGTCACGGTAGGTCATTCCTGCATTTAAAAATCATTTCGCATTAATAAAAGTCAACCTGACCATGTGTTACTTAAAAAGCAGACTTTTCTAGCAACTACTGTGAATACGTGTTTTTAAAATGGAGCCCAAAGAGTGCTAATTAATAGTAGTAATTTCTACTCTATTTTCTATTCCAGGAAAGACTGCTCTAATTGTACCATTATGTTCTTGTGTATGCTTTCTAATCCCAAATTAAAGCCCCAATGCACATTCATATTGC'
p91
(I34
S'MEDCLHTSSENLSKLVSWAHSHGTICSLIPNLKHLLSEGSHGNLTAMWGCSAGHAYHWPLTATCRAGSQERVCFQDNRSFNSDSPSIIGVPSETQTSPVERYPGRPVKAKLDCNRTRDSCDFSYCSEPSELDEAVEEYEDENTLFDMVCESSVTDEDSDFEPQTQRPQSIARKRPGIVPSSIHSSSQGQMVDECSNDVIIKKIKQEIPEDYYIVANAELTGGVDGPALSLTQMAKPKPQTHAGPSCVGSAKLIPHVTSAINTELDPHILSASPSVISRPIIPKTARVSLASPNRGPPGAHGTAHQVTMQMPVSTSHPNKQISIPLSALQLPGQDEQVASEEFLPHLPSQVSSCEVALSPSVNTEPEVSSSQQQPPAAPTITTEATAQCIPAYSTKLNKFPVFNINDDLNGLCTSAVSPNTTKATRYALNVWRYWCMTNGLKDHTDITKIPAVKLNELLENFYVTVKKSDGSDFLATSLHAIRRGLDRILKNAGVGFSITSSTFSSSTKKLKEKLWVLSKAGMSGARSRNIVYFSLSDEEEMWQAGCLGDDSPITLLSTVVKYNSQYLNMRTLQEHADLMYGDIELLKDPQNQPYFARTDSVKRESRSGSTRVCHGKIYHEHSRGHKQCPYCLLYKYMYIHRPPTQMEAKSPFYLTARKEATDMGSVWYEEQRMGLRSLRGIVPNLARKVKLENCENFTFVSFTQVSRRLGSHSCCQ'
p92
tp93
sS'GATTCCTGCCCCCGTACCCCGTCCTGTCCTCCTCCTCCTCCTCCTCTTCTCTACGTCCCTTTTTTATATCAGCAAGCTAGGGGCGGTGCAACGGTGGGCGGGTCCTAATGACGTGCCCGGACGGGTCTCACACCATAGGAGTCTACAGTTCTTAGTTTGTGGCGGCTTGGGCGGGACGCACGCGGTGCAGTTCAAGATGGCGGATGCAGAAGTAATTACATTCCCAAAGAAGCATAAGAAGAAAAAAGACCGGAAGCCATTACAAGAAGATGATGTTGCCGAAATACAACATGCTGAAGAATTTCTTATCAAACCAGAATCTAAAGTGGCTCAATTAGACACTTCTCAGTGGCCCTTGTTACTAAAGAATTTTGATAAGCTAAATGTAAGGACAGCACACTATACACCTCTTCCTTGTGGTTCAAATCCTCTGAAGAGGGAGATTGGGGACTATATCAGGACCGGTTTCATTAATCTTGACAAGCCCTCTAACCCCTCTTCCCATGAGGTGGTAGCCTGGATCCGACGAATACTTCGGGTAGAGAAGACTGGCCACAGTGGCACACTAGATCCCAAAGTGACTGGTTGTTTAATTGTGTGCATTGAACGAGCCACTCGTTTGGTGAAATCACAACAGAGTGCAGGCAAAGAGTATGTTGGAATTGTCCGGCTGCACAATGCTATTGAAGGGGGTACTCAGCTTTCTAGGGCCCTAGAAACTCTGACAGGTGCCCTGTTTCAGCGACCCCCACTTATTGCTGCAGTAAAGAGGCAGCTTCGAGTGAGGACTATCTACGAGAGCAAAATGATAGAATATGATCCTGAGAGAAGATTAGGAATCTTTTGGGTAAGCTGTGAAGCTGGCACCTACATTCGGACACTATGCGTACACCTTGGCTTGTTACTGGGAGTTGGTGGTCAGATGCAGGAACTTCGGAGGGTGCGTTCTGGAGTCATGAGTGAAAAGGACCACATGGTGACAATGCATGATGTACTCGATGCTCAGTGGCTGTATGATAACCATAAGGATGAGAGTTACTTGCGGCGTGTTGTTTACCCTTTGGAAAAGCTGTTGACATCTCATAAACGTCTGGTTATGAAAGATAGTGCAGTGAATGCAATCTGCTATGGGGCCAAGATCATGCTTCCTGGTCTTCTTCGATATGAAGATGGCATTGAGGTCAACCAGGAGATTGTGGTCATTACTACTAAGGGGGAAGCTATCTGCATGGCAATTGCATTGATGACTACAGCAGTGATTTCTACCTGTGACCATGGTATAGTAGCCAAAATAAAGAGGGTGATCATGGAGAGAGACACTTATCCTCGCAAGTGGGGTTTAGGTCCAAAGGCAAGTCAGAAGAAGATGATGATCAAGCAGGGCCTTCTGGACAAGCATGGCAAACCCACAGACAATACCCCTGCCACATGGAAACAGGATTACATTGACTATAGTGATTCTGGCAAGAACACACTGGTTACCGAAGCAGTACAAGCCCCTCAGTTAGCTGCTGAAGCAGTAAATGTCATAAAAAGGAAGCGGGATAGTGAGAGTGAAAGTGATGAGACCCCAACAGTTCCCCAGTTGAAGGAAAAGAAGAAGAAGAAGGATAAGAAGCCCAAAACTGTGCTAGAAAGTGGGGGCGAAACTGGAGATGGGGACAACGACACCACCAAAAAGAAAAAGAAGAAGAAAGTAAAAGTGGTAGAAGAGATGTCTGAATAGTTTAAGCCACTTCTGGAAGCATTATGTCCAGCTGGGAAGAAAAAGAAAAGCCTTATTGGAAAAACTTTTTGTTGAGGGAGAACAGAGGTCCCAGAGTAGAAAGTTCTGGTATACTTTTAGCTGCCACTTGTGACCTCAGTGGTTAGCTGGTGTGGCCATCTCATCCCATCCTGTCCTGTTTTAAGGATATGAGAGATAAAATCAGGCCTTTGCCACCAACCCCTCTGCTTGCTTGAGGAAGCCACACCTTTAGACATGGCATGGCCTAGTAACTATCTGCAGCTATTTACTAATGAGCATTTTCAACAATGCCATAGATAGTCCTCTCCTACTTTGCTTTTTAAAAAGTTGGTAAAAATTAAATCTGCTACATAAAATGGTATAGAACCTTCTGTGAGAGAAAAAATGTAATTGAACTATGTTCACTGGGGGACTCTTATCTCCAGTGTTCTATGAGGACTGCTCTATTCAGGTATTAACCTTGCCTGGTGGTATCTATGATATTTAGGCTAGTACTCTGTATTTTTGTGTACAACAGGATTTCTCTATATGGCTACTTGTGTTTCTTATGGAAGCCAAAGCATTCCTGTACCTTCCTATTTGTTTTCTTTTAAAGAATGGAATTGCCGGGCGTGGTGGCGCATGCCTTTAATCCCAGCACTTGGGAGGCAGAGGCAGGTGGATTTCTGAGTTCAAAGCCAGCCTGGTCTACAGAGTGAGTTCCAGGACAGTCCAGGCTATACAGAGAAACCCTGTCTCGAAAAAAAAAAAACCAAAAAAACAAAAAACAAAACAAAAAAACCAAAAAACAAAAAAAACAAAAAAAAAAACAAAAAAACAAAAAAAGAAAAAAAAAAGAATGGAATTGTTCAGAATGGAATTGTTCATTGCTGAAGAATGTAATTTGTAGTTTTTTTTTTTTTTAAAAAGTATTCCTGTTAGATTTACTATGATAATCTTGGACTGGCAACAAAAGTGAGAGAATATTTTTATTAAAAGTCTGAGGTTTA'
p94
(I43
S'MADAEVITFPKKHKKKKDRKPLQEDDVAEIQHAEEFLIKPESKVAQLDTSQWPLLLKNFDKLNVRTAHYTPLPCGSNPLKREIGDYIRTGFINLDKPSNPSSHEVVAWIRRILRVEKTGHSGTLDPKVTGCLIVCIERATRLVKSQQSAGKEYVGIVRLHNAIEGGTQLSRALETLTGALFQRPPLIAAVKRQLRVRTIYESKMIEYDPERRLGIFWVSCEAGTYIRTLCVHLGLLLGVGGQMQELRRVRSGVMSEKDHMVTMHDVLDAQWLYDNHKDESYLRRVVYPLEKLLTSHKRLVMKDSAVNAICYGAKIMLPGLLRYEDGIEVNQEIVVITTKGEAICMAIALMTTAVISTCDHGIVAKIKRVIMERDTYPRKWGLGPKASQKKMMIKQGLLDKHGKPTDNTPATWKQDYIDYSDSGKNTLVTEAVQAPQLAAEAVNVIKRKRDSESESDETPTVPQLKEKKKKKDKKPKTVLESGGETGDGDNDTTKKKKKKKVKVVEEMSE'
p95
tp96
sS'TCCTCTTCCACGCCTTTTTGGGTTTTCCTCTAAATTCACTCTCTTCCTTCTCCTCCAACCCCTCATTCCTCCTAGCCACCCTCTTCCTTTAGGTCTTTCTCTTTAAAAGTCCCTTTCTGGTCTCTGTCTCTTTGCATCTCCTACCCACATTTTTGTTTCCCTTCCTGTCCCTCTCTTTCTGCATCTCTGTTCTATATGTCTCCCTTGACCAGAAAGCTTTGACTCTGTCCTGGCTCCAGCCTCTCTCTAAGTCACTGTTTCCCTACACCCTCATTCCATCTACAGAATGTTTGGTTTATGCTTGCCGCCCCCCACCCCCACCCCAGTTCCTCTGATGTTCTCTGAGCCTGGGCCTCTCGTTCGTTCCCGACCACTGACAGATGCTTGCTTAAGGAGTGGGGCTCTGAGCTGAGCTCTAACTGGTACCACAGTGCTGGGTTTTCGGGCAGAATCAAGGCCTGCCGAGTTCAGTCCCTTGCATGGTGTCACAGACCTCATCAGGGGGGACCTGAGCTCAGATCTATGTCTATTCTGGCAGTTCTCAACTTATAGGTTTGGGGGTCAAATGACTTTCACAGGGGTCACTTTAGACCATCAGTAAACACATTATGATTCATAACAGCAAACTTACGGCTATCACTCACAAACAAAAATAATTGCATGGCTTTGGGTAACTGTAACATGAAGAACTGCATTGAAAGGTCACATCATTATGAAGGCTGAGAAACACTGGTCTATGTGAAGGAGGACGTCATGGGTCTACTTTAAGCTCTTAGCAGAGGGCTGCGCTTGACTACCAGGTAAAGGGTGCCCCATTTCCTGCAGTTTTCTCTATGTAGTTTCATGCCTCTGTGGAAATGGTGAGTTTCCAGCTCCTCACTGCTGCTTTTAACACCAGGGTTCATTTGGCCCCATGCCCCAGGGTGTTCCAGGACCATCATGCTAACATACCCGGACTTTGCCGATCTCATTCTTGTGGATGGAAATGTTGGTGTTGAGAGTGGTCACAGTGACCTGTCTCACGTAGGACACAGCGGGGCTACCCCGGTTCTCGTTCTTGGTTGTGACAGTGAAGTGAGTCAGGCCCTCGGCATTGACCCCAGGACAGAGCGTTCCTGCCAGCAGGTAGTTGCAGGTGCCCTGGAAGTCAAAGCTCCAGCCATCGAAGGAGTTGTAGTGAGGGTCACCCCACAGCCAACACGTGGAATTATAGTTGGGCACACACACACCCTCACCACCTTGAACTTTGCAGGTCTCCTGTGGTCGGCAGGTGATACCATGGCATGGGTCTGTGAGGAGAGGAGAAAGTACCGTGAGGGGCTGCCCACCACAAGCATGTCTGCTCCTGCCATCTGCCTGTCTGTGCTAGGGATGTCATCTCTGATGGTTGCTGCAGCTGTGACCAGACCTTAGTGTCTTGACACCTTAGCCCTCATTCCTGGAGTTGCTGTGTGTTACATCTGAGAACCCACCACTAGGGGTCCAGAAATTTCGTATCTCATGTCTAGGGTCCCCGCGTCTAAATCTCTCAGTTTGGATGGCCCACATTACAAAATTCAGCCCCTGGGTGCTAGTCCAGCCTCAGGAGTCTCTGAAGACTGGTCCCCAGGGACTTTTGTGTTTGAGACCCCTCTAGTATCACACTCTCTGTGGCTCCAGCTCTGTGTCTGGGTGTCCAGCCTTCAAACTTGCTCCTCTTCAAACTTGTTTCCTGTTTGAAATTGGCCTGGAAGCTTTGTCAGCAGAGGGCGCTGGGGAGTCTGCGGGAGGCAGGGGTGCCTGTCCTCACAGCTTGTGCTGCTCTTCTGCCTGCTGCCGCTGCTTGTACTCTGTGAGTAGAGGCAGGTTGGACCCTGGCTCTCTAGCTAATCAGCTAAACACCTCAGGTGGCTGCTTCCAGCTGAGTTTTACCAACATCAGTGGGGATTTCACTCCTCCAAGTCCAACCTGCAGGATCCCGCACTCTCCAGTATGGTCTATGGTGAGGCCTTTTAAGTCCCAGCCTTCTTCTCTCAGCATTGGGGATCAGCTCTAGGCAGGACTCCTGTGAGCACTGTTTCCCTTATCTGAAAGCAGCCAGGAAGGAGGTGGACTGTTCACACATACTAACTGCTATCATTTCTGAGGAGTGAGTCGGGGACAGCAGGAAAGCAGCTAGCCACTGAGGTGGGTGAGGGCAGAAACACATGCAAACCTTGGTAGTGAACAGACACAAACTCTGTCTGTCTGTCATTGTCTCTGTCTCTCCACAGCCACCATGTGGGTGCTGGGAACTGAACACAGGTCCTCTGAAAGAACAGCCAACAGCCAGTGCCATCTGAGCCATCTCTCCACTGAGCCATCTCTCCAGCCTTAACCCTTATTTTTTAATCCCTTTTTTCCTTCTCCCTCCATTTTTTTTAAAAAAAAAAAAATTTCCTGTCTTTGGTCAAAGCTTCCTTTTTTTCTCATCTTTCCCCTTATAGAAAACAGAAACCTCTCTCTCTCTCTCTCTCTCTCTCTCTCTCTCTCTCTCTCTCTCTCTCTCTCACACACACACACACACACACACACACACGCACACCCCACACTACCTTGTAAAAAAAATCAACTTAAAATGGATGACAGGCCTTAAGGTCAGTCCCTAGATTATAAAACTGCTAGAGGACACAGTGAAAAAACCAGGACCAGTCGCTAACAGCTCAATGAACTCTTGAGGAGACGGTGTAGAGAACTGGTAAATAAAACTTCACTAGATCAAAAAGCTTCTGCATAGAGAGTGAAGGGAAAGGCCACAGAACGGGAGAGAAGTCGTTAGCCATTAATCTGACAGGAGACTAATATCCAGACTAC'
p97
(I18
S'MLTYPDFADLILVDGNVGVESGHSDLSHVGHSGATPVLVLGCDSEVSQALGIDPRTERSCQQVVAGALEVKAPAIEGVVVRVTPQPTRGIIVGHTHTLTTLNFAGLLWSAGDTMAWVCEERRKYREGLPTTSMSAPAICLSVLGMSSLMVAAAVTRP'
p98
tp99
sS'AACTTCGCAGCCCCGGGTGTCGGAGGTAGCCATGCAGAGCGCACCCTTGGAGCAGCCAGCTAAGCGACCCCGCTGCGATGGCAGCCCAAGGACGCCACCGAGCACTCCTCCTGCAACAGCTAATCTGTCTGCAGACGACGACTTCCAAAACACCGACCTCCGAACCTGGGAACCGGAGGACGTGTGCTCCTTCTTAGAGAATCGTGGTTTCCGAGAGAAGAAAGTGCTGGACATCTTCAGAGACAATAAAATCGCCGGCTCGTTTCTGCCCTTTTTGGATGAGGATCGTCTGGAAGATCTGGGAGTAAGTTCCTTGGAGGAGAGGAAGAAGATGATAGAATGTATCCAGCAGCTGAGTCAGTCTCGGATTGATCTAATGAAGGTATTTAATGATCCCATTCATGGCCACATTGAGTTCCACCCTCTCCTTATCAGAATCATCGACACACCTCAGTTCCAGCGACTTCGCTATATCAAGCAGCTGGGGGGCGGCTACTATGTTTTCCCTGGAGCGTCCCACAATCGCTTCGAACACAGTCTCGGAGTGGGGTACCTAGCAGGCTGCCTGGTGCGAGCACTTGCCGAAAAACAGCCAGAGCTACAGATCAGTGAGCGAGATATACTCTGTGTTCAGATTGCGGGGCTCTGCCACGACCTAGGTCATGGGCCATTTTCTCATATGTTTGATGGAAGGTTTATCCCACGGGCTCGCCCAGAGAAAAAGTGGAAGCATCCTTCCCTGGGACAGCATTCAGGGTGCTTCTGTTCATGGGTCTGTGTTTCAGCCCTCACAGTAGCCTGTGGAGAAAGGACCTTATCTTCTGTTCAGAGCCCTCAGAAGCATAGAGATGTGCCTGACTTCACAGGGTCATGGAGTGGTGGACCAGCCCTGGAGAGCCAGCTCCCCTCTTTCAATGCAGTGTCCGTTCTACTCTGTCAGATTACTGTAGACTTTGTTTTCTTTTAA'
p100
(I45
S'MIECIQQLSQSRIDLMKVFNDPIHGHIEFHPLLIRIIDTPQFQRLRYIKQLGGGYYVFPGASHNRFEHSLGVGYLAGCLVRALAEKQPELQISERDILCVQIAGLCHDLGHGPFSHMFDGRFIPRARPEKKWKHPSLGQHSGCFCSWVCVSALTVACGERTLSSVQSPQKHRDVPDFTGSWSGGPALESQLPSFNAVSVLLCQITVDFVFF'
p101
tp102
sS'AGAAGGGCAACTGGAGGATCAGGGCTCCCTCAGTGAGACTGGGAAAGCACTAAGACAACTTCAGAACCTTCAAACAAGGTAGTGGGATCCCAGCAGCTTAAGAGGGAGGGTGTCTAGCAGCAGTGGCCTGGCCTGAAGGATCCTCCATACGGAAGACTGTATTGGTTCCGGAGTGTGAACTCAAGTGGTCAGGCTTGCATGGCATGCATGGTTACCCACCGAGCCAACTCACAAGTTCTGGGAATTCTTTGACCAATGTCCTACCACAGGATTTGCTTCCTGCTAATTGTTTCTCCCTGCCATTCCAGAGACTGAGAAGTGGCTAAGGAGTTACAGAGGCATCAAACTATCTCAAGAAACTTGTTCAGAAGTGACAAAACAACAATGGAAAAAGTCATCCATGGAAGCTCTGTGAGCATCAATGGAAGCCCTGTGAGAAAGAGACTGTAGAGATGCTCAGTGGTTAAGAGCATGTGTTGCTCTTGCAGAGGATTTGGATTTTGTTCCTACCAACCACATGGAGCAGCACACAAACATCTGCAACTCCAGTTCAAGGGATATGCTATGCTGCTCTCTTCTGGCCTCCTAGGGTACCCATGCATGTGTACCTGTGTGCATACACACATATACATAATACAACAAATATTTTTTAATAAAAGAATCTTTGTGGAG'
p103
(I22
S'MCCSCRGFGFCSYQPHGAAHKHLQLQFKGYAMLLSSGLLGYPCMCTCVHTHIYIIQQIFFNKRIFVE'
p104
tp105
sS'ATGGGCAAATTAAACCACACTTATCTGACGGAGTTCATCTTGCTGGGCCTCTCTTCAGATCATCAGACTCAGATCCTGCTGTTTGTGGTATTTCTCATCATCTACCTGATCACTGTGTTTGGGAACCTGCTCATCATACTCCTCATTCATGTTGACTCCCGACTTCATACACCAATGTACTTCTTTCTAAAAATCCTGTCATTCAATGATCTCTGTTTCTCTACAACAATTGTTCCAAAGATGCTAGTCCACTTTCTAGGTGTCAGAAAGACCATTTCATTTGCTGGGTGCTCAGTGCAAATGTTTTCTTTCCTCATAATGGGGTGTACAGAAAGCTCTCTTCTGGCAGTCATGTCATATGACCGCTACATAGCTGTCTGCAAACCCCTGCACTACTCCACCATCATGACACATAAGGTTTGTGTTCTGCTAGTTGTAGGATCCTGGACTAGTGGAATATTTGTGTCTGTAGTAGATACCTCATTTACTTTATGCTTGACGTACCGGGGACCAAATATAATCAATCATTACTTTTGTGAGCCTCCTGCACTCTTAAAGCTGGCTTCAGAAGAAACCTACACAGCTGAAATGGTCATATTTGCAATGGGTATAATAATTCTCTTAGGTCCTGTCTCTCTTATCCTTTTCTCCTATTGGAATATTATCTCCACTGTGGTTCAAATACAATCAGGTGAGGGGAGGCTCAAGGTTTTCTCTACCTGCAGTTCCCATTTTATTGTTGTTATCTTCTTCTATGGCTCAACAATATTTACCTACATGCAGCCAAACTCAAAGAAAATGAATGAAAAGGATAAGGTAATCTCGGTATTCTACTCAATAGTAACATCCATGATGAACCCATTCATTTATAGCCTAAGGAACAAAGATGTGAAAGGGGCATTAAAGAAAGTACTTAAAAGAGAGATAAGATAA'
p106
(I11
S'MGKLNHTYLTEFILLGLSSDHQTQILLFVVFLIIYLITVFGNLLIILLIHVDSRLHTPMYFFLKILSFNDLCFSTTIVPKMLVHFLGVRKTISFAGCSVQMFSFLIMGCTESSLLAVMSYDRYIAVCKPLHYSTIMTHKVCVLLVVGSWTSGIFVSVVDTSFTLCLTYRGPNIINHYFCEPPALLKLASEETYTAEMVIFAMGIIILLGPVSLILFSYWNIISTVVQIQSGEGRLKVFSTCSSHFIVVIFFYGSTIFTYMQPNSKKMNEKDKVISVFYSIVTSMMNPFIYSLRNKDVKGALKKVLKREIR'
p107
tp108
sS'ATGGACAGGGAACGCCTGGATGAAGAAGCTGGGAAAACCCCCTTGGATACGCACAACAAGGATTGTTCCATTGCTGCCACAGGCAAAAGGCCATCTGCCCGCTTCCCCCACCAGCGGAGGAAGAAGAGGAGGGAGATGGACGATGGGCTCGCTGAGGGGGGTCCTCAGAGATCCAATACGTATGTGATCAAGCTATTTGACCGGAGTGTGGACTTGGCCCAGTTCAGTGAGAACACACCACTGTACCCCATCTGCCGCGCCTGGATGCGCAACAGCCCCACAGTGCGAGAGCGCGAGCGCTCACCCGGCTCACCGCTGCCTCCTCTGCCCGAGGATGGAGAGGGTTCAGAGGTCATCAACAGCAAAAACCGTGATGTGTACAAGCTGCCTCCACCCACAGCTCCTGGACCACTTGGAGATGCCTGTAGATCCAGAATTCCATCCCCACTGCAGCCTGAGACCGAGGGTACCCCCGATGATGAACCTTCCGAGCCTGAACCTTCTCCTTCCACACTTATCTATCGCAACATGCAACGTTGGAAACGCATACGCCAGAGGTGGAAGGAGGCATCTCATCGGAACCAGCTTCGCTACTCAGAAAGTATGAAGATCCTACGGGAGATGTATGACCGGCAGTGACCTTCCCAGGAACCCCACCCCAATAAATGTGCCCCCCAACCCACACTGGCCAGGCCATCGTTCCTGGCCCAGACATAAGGCAGTTGA'
p109
(I27
S'MDRERLDEEAGKTPLDTHNKDCSIAATGKRPSARFPHQRRKKRREMDDGLAEGGPQRSNTYVIKLFDRSVDLAQFSENTPLYPICRAWMRNSPTVRERERSPGSPLPPLPEDGEGSEVINSKNRDVYKLPPPTAPGPLGDACRSRIPSPLQPETEGTPDDEPSEPEPSPSTLIYRNMQRWKRIRQRWKEASHRNQLRYSESMKILREMYDRQ'
p110
tp111
sS'CCATGCCGCACTCCAATAGCTGCCGACATGCAGTCCCCGGCGGTGCTCCGCACCTCCAGACAAGTTCAGAATGCACACACAGGCCTCGACCTGTCTGTCCCACAGCACCAGGAGGTGCGGGGTAAGATGATGTCCGGCCATGTGGAGTACCAGATCCTAGTGGTGACCCGGTTGGCTGTGTTCAAGTCAGCCAAGCACCGGCCCGAAGATGTCGTCCAGTTCTTGGTCTCTAAAAAATACAGCGAGATCGAGGAGTTTTACCAGAAGCTGTACAGTTGTTACCCAGCAGCCAGCCTGCCCCCGCTGCCTAGGAAGGTCCTGTTTGTCGGGGAGTCTGACATCCGGGAGAGGCGAGCCATGTTTGATGAGATCCTACGCTGTGTCTCCAAGGATGCCCAGTTGGCAGGCAGCCCAGAGCTGCTAGAATTCTTAGGCACCAGAGCCCCAGGGGCTACGGGCCTTGCCACCCGAGATCCCTCTGTCTTGGATGACACAGCCAGCCAGCCAGGGGACAGTGATGAGGCTTTTGACTTCTTTGAGCAGCAGGATGAAGTGCAGCCACCCACACTGGGCCTGAGCAGCAAGGATGTGGAGAAGTCCTTGGTGGGAGAAGAGGAGGAGGAGGAGGAGGAGGAGGAGGTGCTGGATCCCCTGGGTATCATGCGCTCCAAGAAGCCCAAGAAACGCCCAGAAGTGGCCGTGAGGCCCAAGCCTGCACCTCGGCTCACCATCTTTGATGAGGAGGTAGACCCTGACGCGGGGCTCTTCAGCTCAGACAAGAAGGTGTCTGAGACCCGGAGACCCCTGGAGACCACACAGGACTCCCTGAAGCTGTTTGATGACCCTGACCTTGGCGGGGCTGTCTCCCTGGGTGACCCTCTACTGCTGCCTGCTGCCAGTGAGAGCAGAGGGCCCACATCCCGCCCAGAACACGGGGATGCCTCCAAGGAGCTGTTCAGAGTTGAAGAGGACCTGGACCTGATTCTGAACCTGGGATCTGAACCAAAGCCCAAGCCCCAGACTAAGCCCAAGCCTCTAGTCCCAGCTAAGCCAGCATTGCCCAGGAAACCAACTCTGCCCGCATCAGTGGGCCCGTCAGAACCTGGGTCTGGACCGCAGAAGCAGCAACAGATCCAAGCTATGGATGAAATGGACATCTTGCAGTATATCCGGGACCATGACACACTTGCCCAAGACTCTTCTGGCTTCCAATGCTAAGAAGAAAACGTAGTCCCAGCCTTGCCTTTCTAGTGCACGGAGGGCTTCCAGGACCCCAAGCCTTCTACTCCCTTTCCCACGAGAGGGCCTGGCCAGCCCATGGTCCTTGGATGTGGCTTTCAACAAAGTAGGTCTTAGCATCTCCCAGAGTTTAGCCCATGGGGTTTGAGGGAA'
p112
(I9
S'MQSPAVLRTSRQVQNAHTGLDLSVPQHQEVRGKMMSGHVEYQILVVTRLAVFKSAKHRPEDVVQFLVSKKYSEIEEFYQKLYSCYPAASLPPLPRKVLFVGESDIRERRAMFDEILRCVSKDAQLAGSPELLEFLGTRAPGATGLATRDPSVLDDTASQPGDSDEAFDFFEQQDEVQPPTLGLSSKDVEKSLVGEEEEEEEEEEVLDPLGIMRSKKPKKRPEVAVRPKPAPRLTIFDEEVDPDAGLFSSDKKVSETRRPLETTQDSLKLFDDPDLGGAVSLGDPLLLPAASESRGPTSRPEHGDASKELFRVEEDLDLILNLGSEPKPKPQTKPKPLVPAKPALPRKPTLPASVGPSEPGSGPQKQQQIQAMDEMDILQYIRDHDTLAQDSSGFQC'
p113
tp114
sS'AGGAGCCAAGTTCCAGGCCATGGGGACCCTGCATCCTGAGCAGCACTGGCCCTCTTGGCCACTGATATGAGCCCCTGCGGGCTTAACCTGAGCCTAGCGGATGAGGCAGCAACGTGCGCAACACCCAGGCTCCCCAATACATCTGTGGTGCTGCCAACAGGCGATAATGGCACATCACCAGCGCTGCCTATCTTCTCCATGACGCTGGGTGCTGTGTCCAACGTGCTGGCGCTGGCGCTGCTGGCCCAGGTTGCAGGCCGAATGCGGCGGCGCCGCTCGGCTGCCACCTTCCTGTTGTTCGTCGCCAGCCTGCTTGCCATCGACCTAGCAGGCCATGTGATCCCGGGCGCCCTGGTGCTTCGCCTGTATACTGCGGGGCGTGCGCCTGCTGGAGGGGCGTGTCATTTCCTGGGTGGCTGCATGGTCTTCTTCGGCCTGTGCCCACTTTTGCTTGGCTGTGGCATGGCCGTAGAGCGCTGTGTGGGTGTCACGCAGCCACTGATCCACGCGGCGCGCGTATCTGTGGCCCGCGCACGCCTGGCACTAGCCGTGCTGGCTGCCATGGCTTTGGCAGTGGCGCTGCTGCCACTGGTACACGTGGGTCGCTACGAGTTACAGTACCCTGGCACCTGGTGTTTTATTAGCCTTGGGCCTCGTGGAGGTTGGCGCCAGGCGTTGCTTGCCGGCCTCTTCGCCGGCCTTGGCCTGGCCGCGCTCCTTGCGGCATTAGTGTGCAATACGCTCAGCGGCCTGGCGCTCCTCCGTGCCCGCTGGAGACGGCGTCGCTCTCGACGATTCCGAAAGACCGCAGGTCCCGATGATCGCCGGCGCTGGGGATCTCGTGGACCCCGCTTGGCCTCCGCCTCGTCTGCCTCATCCATCACTTCAGCCACAGCCACCCTCCGCAGCTCTCGGGGCGGCGGCTCCGCGCGCAGGGTTCACGCACACGATGTGGAAATGGTGGGCCAGCTCGTGGGCATCATGGTGGTGTCGTGCATCTGCTGGAGCCCCCTGCTGGTGTTGGTGGTGTTGGCCATCGGGGGCTGGAACTCTAACTCCCTGCAGCGGCCACTCTTTCTGGCTGTACGCCTCGCATCGTGGAACCAGATCCTGGACCCATGGGTGTACATCCTGCTGCGCCAGGCCATGCTGCGCCAACTGCTTCGCCTCCTACCCCTGAGGGTCAGTGCCAAGGGTGGTCCAACGGAGCTGGGCCTAACCAAGAGTGCCTGGGAAGCCAGTTCACTGCGTAGTTCCCGGCACAGTGGTTTCAGTCACCTCTGAATGTGCCCAGAAGCTAAGTCAAACCATTCTGGGCTGGGCTCAAGGGTATAGAGTCTCAAACTCAGTGTGCCTAGGGCGCTGCGTCCTGTGGGTCCACAACACTGTCACCGCACAGGGGTGAAAGAGGCTCCACTGGGGACGAGTACAGTTCTAACGATGGTCACGCGATGGCCCAGATACATGGGATGCTCGAAACACCAGAGGTGGGACTCCCCAGGCCAACAGCTTGAAGAGCATGCGCACAGCGCCGCAACCTTAGTTCTAAGATTCGGGCTCTCCATAAATAGAGCAAAGTTTTGGATTCACTTCCCATCTCTGTCACCACCCCAATAGACTCTTGCAAGCGTCTATCCCAAACTATCCCAAGAATCTCAACACCTTCTACCCACACGGCCTTAAAACCCCAATGCTCTCCAACATACCCCTAAGCCCACTACTGCATGTTCCCATCTTGACCTTTCAAATGTGCCCCATCAGTCCTGCCCCCAAGAGTCTGCCTTGCCTCTGTCACCTGCTCCAAGCACACTCCAGTCCAGATGCACACAGAGGCTGAAAATGCATGTATGGAGTAAACCCCAAAGGCTTGTTTTTTAAAAAATCAAGAACTCTTGGGTAAGGCAGGGGCTTGGGGCTAGTAGCCTCCGGCCACAAAGTCGAAATCCCGGAAGGCTGCCTGCTCCGCAGCTGTGAGGGGCCGTGCATCCCGGGGAGGACTCAGTGTGGGGGCCTCCCCAGTGAACTCCTCATCGAAGTTGCTGACATCTGTGCGCCCTGAAAGTGTAGGCACGAAGGGTGGAGGCAAGCGGCGGGCCAGCAGGACATCCCAGCCCAGAGACTGTGGAGAGGGGGACAGAGTGAGTCATGATGGACTTTGAGGGTCTGAAGGGAAGTCTAGAGATCAGCAGGAAGCAGATAAGATGGGGAGGGACTGGGAACTCAGATAAATCTAGGGAGCCTGAGGTAGTCCAGGGTAAGCCCTGTGATGATGATTTGGGCCTGGAGAAGCAGTGGGGATGACAATTAAGGGAAATGAAGGTTGCAGACAAACGGAGGTAACATTTGTGAAGAATCATGGTGGCTGTGAGGTGTGGGGCTACAAAGCTCTTTAAGATACAGCTACTAGATTTGGGGTGGGAATGAACTGGAACTGAGAAGAATACTCAGGTCCTTGGGGTGACTGAGAGGATGGGGAGGGGTCCGCTCACCCGGAAGAAAGGCTGTTTTTTCACATCTTCTGCATCGCGCTCAGTGGACCCCAGCCTCCGCTCCGGGTTCCTCCGCAGTAGCTGTGAGCATGCACAGGAGTTGATCTATATCTGAGTCCAGTCCCGAGACCCCTTCCCAGCCTACCTTGCCGGAGGTGGTCGGGAGGCGGGAGGTGTGCCTACCCTTCTCATGATGCCGATGGCCTCTGCAGACAGGAAGCGGGGATAGCGAACTTCGTCGTTGACAATGCTGTCAAATACCTCCTCCTCATCATCCCCAGGGAACGGAGACTGGGGGGCAGAGGATGCGGGTTTGTAAAATCCCACTTTTAGCCAATCCACACACCCAGCACTACCAAATGGCCTCACCCCTCCGGGAGCACTCTTGCACCGCTGCTGGCTTACAGGGGTAAGTATCCCACTTTACAACTACAGAAAGATTAGAGAGGTAAGGCTGCCGGCTCCAGATCATACTTCACGTGGTAGGAGCAGATTCCCATCTCACTCTGAGGCACATGCATGTTCTCTACAGAAAAAAAAAAAGGCAGCCTGGGCCTCACCTCTCCAACCAACATCTCATAGAGCAGCACGCCCAGTCCCCACCAGTCCACTGCTCGCGTGTAGGATGTGTCTGTGAGCACTTCCGGCGCCAGGAACTCCGGAGTTCCGCAGAACGTGCTGGTCCGGTCCCCATAGCCCATCCCTGGGTGGGATGGAGAGCAAGGCCACGTGAGCCTATAGTTGCTAGGGGGGTAGGAGCATGAGATGCTCCAAATATCCATCCAGCCCTACCCCAAGTCAGTATGGGGTGACCCAGATGGGGCTAGAGCTGGTGAACTATTCTGAAGCTGCTAGGGTGAGCAGGTGACTGGCAGCAAAGCCCATAGAGAAGAAAATGTCACCTGACCACCTAGGTACAGCTGCACCAGAGGGTAGCCCACCCCCTATTCCTCTCATCCCAGGATTGCAGCCCCTCACCCTCCTTGCAGAGGCCAAAGTCTGCGATCTTGACGTAGCCCTCAGTATCCAGGAGCAAATTGTCCAACTTCAGGTCCCTGGGGAATGGGGGTGTCAGGGGATGTAAAGAGGGGTGACTGGGTAGGGATCGGGGCTCTGTGCAGAGCTTGACCATGTCCAGTCTGTGGGCAGAACATTCTCACGTACACACCTGTAGACAATCTTGTGTTCATGGAGGAACTGCAGTCCCAGCACCACACAGGCCGAATAGAAGCTGCGGAGATGCATAAGATCGCACAAGCCTGGTTCCTCAGGCACCAAAGTCCCTGACCCCGGGGGGTGGTGGGGGGTCCCAAAGCTGTGCAGGAGGAAGGCCTGAGGGTGGAGGGCTAGGAGGTGGGGCAGAAAGGCGGGGCCTCGGGTGGTGTGCAGGAGGGGCATGGTGCTGGGATAGACTCACACAGCCCGAGGCTCTGAGAACACGTCGCTATGAATGTGCAGCATCAGGTCTCCACCCGCCGAGTACTCCATCACAAAGCACACGTGCTCTGGGGTCTGGAAACAGCCGAAAAGGTTCACCAGGAAGGGATGTCCTGCCCTGGTCACGGCCGCCAAAATCCGCTTCTCACACATCAGGCTGGACAGGAGGCAGAAGTCAGAGAGCCCAGCTGCCCCTCCAATACCCATGCCCTCCAGGTTCACTCAGGTATCTGTTGAGTTGCACCGCTGTGCAATTTTGAGCGATTGGATTCTTTTCTCATTTTGGGAAATGGGTAAGGGTGCAAGGCTCAAGCAGACAGACAGTCTGAGTCCATGCTGGGGACGGGCTTGGGAAGCACTGGCCCGCTCATCAGGCTCGGTGTAACGACTGAAGCATGGGGTCTGATCAGTGGTGAGAGGCTTCCCTCCCTGTCAGTGAGAGGACGGCAAGCCCAGCCCGCAGACAAGCAGACCGACGACCAACCGCAGTGACACCGCAGTGGCATCAGGACAGAGGCGCCTTAAGGCAGACACACTGGGCTCTGCAACCCAGATTAATAAATAAACTCTTCCTTATTTG'
p115
(I33
S'MSPCGLNLSLADEAATCATPRLPNTSVVLPTGDNGTSPALPIFSMTLGAVSNVLALALLAQVAGRMRRRRSAATFLLFVASLLAIDLAGHVIPGALVLRLYTAGRAPAGGACHFLGGCMVFFGLCPLLLGCGMAVERCVGVTQPLIHAARVSVARARLALAVLAAMALAVALLPLVHVGRYELQYPGTWCFISLGPRGGWRQALLAGLFAGLGLAALLAALVCNTLSGLALLRARWRRRRSRRFRKTAGPDDRRRWGSRGPRLASASSASSITSATATLRSSRGGGSARRVHAHDVEMVGQLVGIMVVSCICWSPLLVLVVLAIGGWNSNSLQRPLFLAVRLASWNQILDPWVYILLRQAMLRQLLRLLPLRVSAKGGPTELGLTKSAWEASSLRSSRHSGFSHL'
p116
tp117
sS'ATGACTAGTTTCATTTTTGAGCAGGCTTTACCCAGAAAACAAGGAAAATTCACTGTGGCCGAGAAGCAGACGTGGCTGTTTCGTTGGCCCCACTATGGATCTCCACTGGCTGGGGAGAGTCTGTCTGTGCAGGTGGTCAACTGTAGCCGCGTGTTCAGCCCCAGGCCCCTGGGGACCCTGGTGATTTCGCTGCAGCAGCTACAGAGTGCTGGGCATTTGGTGTTGAGGGAAGCTCTGGTGGACGAGAGACTCCGGGTGTCCCCGATCCAAGTGGAGCTTGACCTAAAGTATCAACCCCCTGAGGGAGCTGCTGGGACCTGGGCAGAGGAGGACTTTGGGACACCCATTCGAGACAGGCCTGGGGAAGCCCAGCTGGAGCGAAGGGCAGTGGCTCTGGGCCGCAGGCTAGCTCGAAGCCTAGGAACACAGGACGATGAAGAGAACGAATTGGAGCTGGAGCCGGAGCTGGAGGAAGAACCTGACGTGGAGATTTCTGGGGTGGTGTTCAGCCCCCTCAAAAGACCTCCAAGAGTGAATCGAATTCTGGATGTCGGGGTCACAGTGCTTGAGGCCCAGAAACTGGTGGGAGTCAATATTAACCCCTATGTGGCTGTTCGCGTCGGGGATCAGCGCAAGGTGACTGCAACATTGCGTGGAACCAATTGCCCCTTCTACAACGAGTACTTCTTGTTCGAATTTCATGAGACTCGGCTTCATCTCCAAGACTTGCTGCTGGAGATAACTGTGAGTGGGAAAGCAGATTCAAGTCAGGAAAGGGAGGCTTTCCACTCGCAGACTCTCCCGTTTATGGCCACCAGGATAGGGACTTTCAGGATGGACTTGGGGATGGCCTTGGACCAGCCAGATGGGCACTTCCACCAAAAGTGGGCTCCTTTGCATGACCCCCGTGACACCCGCGCCGGAACCAAGGGCTTCGTCAAGATCACCCTGTCTGTGAGGGCACGTGGGGACCTTCCCCTTCCACCGCCACCCCCATGCCCAGGGACCAGTTCGGACATAGAGAAGAATCTACTTCTGCCACATGGGGTGCAGGCTGAGAGGCCATGGGCACGGCTGCGAGTCCGCGTGTACCGTGCAGAGGGGCTCCCCACAGTGCGCACGGGCCTGCTGGGCAGCCTGGCCCGAGCCCTCCATGACCAAAATGTCCTTTTGGACCCGTATGTGCGGGTGAGCTTCCTGGGACAGCAGGGTGAGACTTCGGTTCGGGGCGAGGAGACAGCGCCCAAGTGGAACGAGCAGTTGAGCTTCGTGGAACTCTTCCCGCCGCTAACACGCAGCCTTCGCCTGCAGCTGCGTGACAATGCACCTCTTGTGGATGTGGCCCTCGCCACACACGTGCTAGACCTGAGGCAGATCTCGAACTCGGGTCGCGCAGCGGGGTTTAACCCCACTTTCGGTCCAGCCTGGGTGCCCCTCTATGGCTCGCTCCCCAGCGGCAGGCTCCGGGATGATCTTCAAAGTCTCAACGAAGGTCTTGGCGAAGGCATTTGGTTCCGGGGTCGACTTCTGGTAGCTGTGTCCATGGAGGTGTACGAAGGCAGAGTTGAACCTAAACCCTCCCAGACCACACAAAGGTCTGGATTGTCCCGGCTCACTGGGAAGAAGAAAAAGAAGAAGGAGAAGACCAGACAGGGTCAGACCCCGGCTGGCATTTTACAGCCTGCCAGTGCCAGCACCAGCGAGGATGCGCCTGAGATTCCGAGTGCAATGGAGGTGGAGGTGGAGGACCTGCTGCCTCTGCCAGAGAATGCCCTGGCATCCTTTGAAGATTTCCTGCTTTTCGGGGTGCTCTTTGAGGCCACCATGATTGACCCTTCACTGGCCAAGAAGCCCATCAGCCTGGAGATTTCCATTGGTCATGCAGGACGCCAGGAAGAACAATCGGGCCAAGGATCAAGGGCTGATGAGGGATCTGAAAGCAGCACACTTGAAGTTCAGCCTCTCTTGGAATCTGAGGACAGAGGGGCAGGGCAGGAGGAGCAAGAGTTGCTGGGGACACCTGCTCAGTGGCCTGAACCTGTGGATGGCAATGGGCCATATCTCTGCTTGCCTCTGCGTCACCGAAAGCCCTGCCTACATGTATGGAGCTGCTGGGAGGATTATACTTGGCGCCTACAGAGCAGCAACAGTGTGTGCAAAGTAGCCGAGAGGCTGGACCATGGCCTGCAGGAGGTTGAGAAGATGCAGCGCAGGTCAGGGCCGGGCGCCTGCACACGACTGAAGCAGACTCTGGAAGAGCTGGTGGCTGGCAGCAGACAGTTTTGCCACGGTGCTGAGCGCAGGACGATGACTCGACCCAATGCCCTGGATCGTTGTCGAGCGAAACTCCTGACACACAGCCTGGTACACAGCCTGAATCTGATGGCAAGGCAAGGACTGCGGCTTTTACGGAGCCTGAGGCTGAACAACATGCAGAGGACTGTGGTGCTGGCTAAGAAGCTCCTGGCAAGGCTGCGCTTCCTGGCTCAGGAGCCACAGCCTCCCCTCCCTGACGTGCTGGTCTGGATGTTCAGTGGCCAGCGCCGTGTGGCCTATGCCCGCATCCCTGCACAGGATATACTGTACTCCGTGGTTGAGGAGGAGCGAGGCCGAGACTGTGGGAAGATCCAGAGTCTGCTACTCACAGTACCTGGGGCAGCCCCTGGGGAGGTCTGTGCCAAGTTGGAGCTCTTCCTGTGGCTGGGGCTGGGCAAGCAAGCCAAGGCTTGCACCTCTGAGCTGCCCATGGATCTTCTGCCTGAACCTTCGTCTGGGCTGCCCCAAAGCCTATACCGGGATGACTTCCGCTACTTCCAGCTGAGGGCTCACCTGTACCAGGCCCGTGGTGTGTTGGCAGCAGATGACAGTGGCCTCTCGGACCCCTTTGCACGTGTCCTCATCTCTACCCAGTGCCAGACCACAAGGGTCTTGGAGCAGACCCTGAGCCCCCTATGGGATGAGCTCTTGGTATTTGACCAGCTGATTGTGGACGGCAGACGGGAACATCTGCGGGAGGAACCCCCACTAGTGGTCATCAATGTCTTTGACCACAATAAGTTTGGCCCTGCTGTGTTCCTGGGCAGGGCATTTGCAGCCCCAAGGGTAAAGTTAATCGAGGACCCATATCAGCGCCCTGAGCTGCAGTTCTTCCCCCTGAGGAAGGGGCCTCAGGCCGCTGGAGAGGTCATTGCAACCTTTGAGCTCATTGAGCTGGACTACAGCGGCCATCTTGAGCCCTCTGTGCCCAGCGATGTGGAGCCCCGGGATCTGGCGTCACTGGTTGAACCCATCTCTGGACACCTGTCTCTGCCTCCCAGCGTGCGCCCTGTGCTCAGGGCGTTCCGTGTTGAGGTGCTGTTCTGGGGTCTGAGAGGATTGGGCCGTGTACATCTGTTTGAGATAGAAAAGCCTCAGGTTGTTCTGGAAGTGGCTGGGAGGCGTGTGGAGTCGGAAGTTCTGCCCAACTACCGTGAGAACCCCAACTTCACAGAGCTTGTCCGGCATGTGACAGTGGACCTGCCAGAACAGCCATATCTGCAGCCCCCGCTGAGCATCTTGGTGATTGAACGCCGGGCCTTTGGCCGGACCGTTCTTGTGGGTTCCCATATTGTTCCCCACATGCTTAGATTCATACTCCAGGGTCATGAGGATCCCCAAGAGGAGGAAGAAACAGAGGAGGAGACAAGGGACCTGGTGCCACATGGGCCTCAAGGAGAGAAGTCTCTGCCTGAAGCAGGAACATCCAGACAGCTTCTGAAGGCGCCTCTAAAGAAGCTCACCTTAGGGCTCCTGGGTCAAGGCCCTGAGCTAGAGGAAGACATCCCAGATCCAGAAGAGATGGACTGGTGGTCCAAGTACTATGCCTCCCTGCAGGAATTCCAGGGGCAGCCCAGCTCCGATGATGAGATGGACGAGGCTGGAGATGCAGATGGAACCCATCTCATTTCTGGGGACAGGGAGGCCCAGGAGCAGGGGGAGACTGATAGCAAAGTCTCTGTACCTCGGAAGAAAGCAATCGCTACCCTGAAGATCTACAACAGCTCCCTGGAGGACGAGTTTAGCCACTTTGAAGACTGGCTGAGTGTGTTCCCCCTGTACAGAGGACAAGGCGGCCAGGATGGAGAGGGAGAGGGAGCATCCGGACACTTTGTGGGCAAGTTCAAGGGCTCCTTCCTAATTTACCCCGAGTCAGAGGCTAAATCCTTCTCTGAGCCTCAGATCTCCAGGGGGGTCCCCCAGAACCGGCCCATCAAGCTTCTAGTCAGAGTGTATATAGTGAAGGCTACCAACCTGGCTCCTGCAGACCCCAATGGCAAGGCAGACCCCTATGTGGTGGTTAGCGCTGGCAAGGAGCAGCGGGACACTAAGGAACGCTACATCCCCAAGCAACTCAACCCCATCTTTGGAGAGGTCCTGGAGCTGAGCGTCTCCCTCCCAGCCCAGCCAGAGCTGACTGTGGCCGTATTCGACCATGACCTCGTGGGTTCAGATGACCTCATCGGGGAGACCCACATTGACCTGGAAAACAGATTCTATAGCCACCACAGAGCCAACTGTGGGCTGGCCTCCCAGTATGATGTGAATGGGTACAATGCCTGGCGAGATGCATTCCGGCCTTCACAGATCCTGGCTGGACTGTGCCAGCGCTGTGGCCTTCCTGTCCCTGAATACCGAGCCGGAGCTGTCAAAGTGGGCAGCAGAGTCTTTCTGACACCATCTGAGGCCCCGCCTCCAGTGGGTAGGAGGAAGGCTTCTGAAGAGGCCCAAGCATTGCACGTGTTGAGGCGTTGGCAGGAGATGCCAGGCCTTGGGATCCAGCTGGTACCTGAGCATGTGGAAACACGGCCTCTGTACCATCCCCGCAGCCCTGGGCTACTGCAGGGATCCCTTCATATGTGGATTGACATCTTCCCCAGTGATGTGCCGGCCCCACCCCCAGTTGACATCAAGCCTCGGCAGCCAATCAGCTATGAGCTCAGAGTTGTCATCTGGAACACGGACGATGTGGCTCTGGATGACGTGAACCCACTCACTGGAGAGAGGTCAAGCGACATCTATGTGAAAAGCTGGGTAAAGGGTCTGGAGCAGGACAGACAGGAGACGGATGTCCACTTCAACTCCCTGACCGGAGAGGGCAACTTCAACTGGCGCTTTGTGTTCCGCTTTGACTATCTGCCGACGGAGCGGGAGGTGAGCGTCCGGCGCAAGCCTGGACCCTTCGCCCTGGAGGAGGCTGAGTTCCGGCAGCCAGCAGTGCTGGTCCTGCAGGTCTGGGACTACGACCGAATCTCTGCCAACGACTTTCTTGGGTCCCTGGAGTTGCAGCTACCAGACATGGTAAGGGGGGCCCGGGACCCTGAGCACTGTTCTGTTCGACTAGCCCTTGATGGGGCAGGGCCGAGGTGCAATCTGTTTCGCTGCCATCGGTTGCGGGGTTGGTGGCCAGTGGTGAAGATGAAGGACATGGAAGATGTGGAGCGGGAGGGGAAGGTTGAGGCGGAGTTTGAACTGCTAACTGTGGAGGAGGCAGAGAAGAGGCCGGTTGGGAAGGGGCGAAAGGAGCCAGAGCCTCTGGAGAAACCCAACCGCCCCAAAACCTCCTTCAACTGGTTCGTGAACCCCCTCAAGACTTTCATCTTCTTCATCTGGCGCCGGTACTGGCGCATCCTGGTGCTGCTGCTGCTGCTGGCGCTAATCACCATCTTCCTCCTCCTCGTCTTCTACACCATCCCCGGACAGATCAGCGAGGTCATCTTCAGCCCCGTCCACAAACATTAATCTGAGTGACCGGGGACACACTTCAGGGTCACCACCTTTCACACCTGCTCTGGAAGTCCTTCCTTGCAATGTGCCCTGGAAGGGCTCAGTCCTTGGGTTCAATAAACTCTACCCCAGGCC'
p118
(I46
S'MTSFIFEQALPRKQGKFTVAEKQTWLFRWPHYGSPLAGESLSVQVVNCSRVFSPRPLGTLVISLQQLQSAGHLVLREALVDERLRVSPIQVELDLKYQPPEGAAGTWAEEDFGTPIRDRPGEAQLERRAVALGRRLARSLGTQDDEENELELEPELEEEPDVEISGVVFSPLKRPPRVNRILDVGVTVLEAQKLVGVNINPYVAVRVGDQRKVTATLRGTNCPFYNEYFLFEFHETRLHLQDLLLEITVSGKADSSQEREAFHSQTLPFMATRIGTFRMDLGMALDQPDGHFHQKWAPLHDPRDTRAGTKGFVKITLSVRARGDLPLPPPPPCPGTSSDIEKNLLLPHGVQAERPWARLRVRVYRAEGLPTVRTGLLGSLARALHDQNVLLDPYVRVSFLGQQGETSVRGEETAPKWNEQLSFVELFPPLTRSLRLQLRDNAPLVDVALATHVLDLRQISNSGRAAGFNPTFGPAWVPLYGSLPSGRLRDDLQSLNEGLGEGIWFRGRLLVAVSMEVYEGRVEPKPSQTTQRSGLSRLTGKKKKKKEKTRQGQTPAGILQPASASTSEDAPEIPSAMEVEVEDLLPLPENALASFEDFLLFGVLFEATMIDPSLAKKPISLEISIGHAGRQEEQSGQGSRADEGSESSTLEVQPLLESEDRGAGQEEQELLGTPAQWPEPVDGNGPYLCLPLRHRKPCLHVWSCWEDYTWRLQSSNSVCKVAERLDHGLQEVEKMQRRSGPGACTRLKQTLEELVAGSRQFCHGAERRTMTRPNALDRCRAKLLTHSLVHSLNLMARQGLRLLRSLRLNNMQRTVVLAKKLLARLRFLAQEPQPPLPDVLVWMFSGQRRVAYARIPAQDILYSVVEEERGRDCGKIQSLLLTVPGAAPGEVCAKLELFLWLGLGKQAKACTSELPMDLLPEPSSGLPQSLYRDDFRYFQLRAHLYQARGVLAADDSGLSDPFARVLISTQCQTTRVLEQTLSPLWDELLVFDQLIVDGRREHLREEPPLVVINVFDHNKFGPAVFLGRAFAAPRVKLIEDPYQRPELQFFPLRKGPQAAGEVIATFELIELDYSGHLEPSVPSDVEPRDLASLVEPISGHLSLPPSVRPVLRAFRVEVLFWGLRGLGRVHLFEIEKPQVVLEVAGRRVESEVLPNYRENPNFTELVRHVTVDLPEQPYLQPPLSILVIERRAFGRTVLVGSHIVPHMLRFILQGHEDPQEEEETEEETRDLVPHGPQGEKSLPEAGTSRQLLKAPLKKLTLGLLGQGPELEEDIPDPEEMDWWSKYYASLQEFQGQPSSDDEMDEAGDADGTHLISGDREAQEQGETDSKVSVPRKKAIATLKIYNSSLEDEFSHFEDWLSVFPLYRGQGGQDGEGEGASGHFVGKFKGSFLIYPESEAKSFSEPQISRGVPQNRPIKLLVRVYIVKATNLAPADPNGKADPYVVVSAGKEQRDTKERYIPKQLNPIFGEVLELSVSLPAQPELTVAVFDHDLVGSDDLIGETHIDLENRFYSHHRANCGLASQYDVNGYNAWRDAFRPSQILAGLCQRCGLPVPEYRAGAVKVGSRVFLTPSEAPPPVGRRKASEEAQALHVLRRWQEMPGLGIQLVPEHVETRPLYHPRSPGLLQGSLHMWIDIFPSDVPAPPPVDIKPRQPISYELRVVIWNTDDVALDDVNPLTGERSSDIYVKSWVKGLEQDRQETDVHFNSLTGEGNFNWRFVFRFDYLPTEREVSVRRKPGPFALEEAEFRQPAVLVLQVWDYDRISANDFLGSLELQLPDMVRGARDPEHCSVRLALDGAGPRCNLFRCHRLRGWWPVVKMKDMEDVEREGKVEAEFELLTVEEAEKRPVGKGRKEPEPLEKPNRPKTSFNWFVNPLKTFIFFIWRRYWRILVLLLLLALITIFLLLVFYTIPGQISEVIFSPVHKH'
p119
tp120
sS'CCCCAAAGGCTGCTCAGTTCTCTAGGCTCCAGCTTCCAGCGAGGATTGCAAGAGGAGACTGTGTCTTCTGATCCTGGATCCTCTGTTCCTTGGTGGAGAAGGGTTGCAGGAAGAAAAGGAGACTTAGCAAGAGAGAACACTATGCATCCTGGTGAAGCGTGATTGAGTTTAGAAGCCCAGGGACACGCGTCTTCAGGTCCGCTCAGGGTTCACACTTGGTGCTTAGACATTCAAAATGAGGAAACACCGGCATCTGCCCCTAGTGGCTGTCTTTAGCCTTCTCCTCTCAGGCATTGCCACGACTCATGCCCAACAGCATGGAGTCATGGAAGTCAACAAGAGGGACATAGTCTTCCTGGTGGATGGTTCCTCCAGCCTGGGGCCGTCCAACTTCAATGCCATCCGAGACTTCGTTACCAGAGTCATCCAGAGGTTGGAAATTGGACAGGACCTGGTTCAGGTATCAGTGGCTCAGTATGCAGACACTGTCAAGCCTGAGTTCTATTTAAATTCCTATACCAACAAAAGGGATGCCATAACTGCTGTACGGAAGATGAGGGCCCTGAATGGCTCAGCCCTGTACACGGGATCTTCTCTGGACTTTGTTCGAAACAACCTCTTCACTAGCTCAGCCGGCCATAGGGCCGCTGAGGGGGTTCCTAAGCTCCTGGTGCTGATCACAGGCGGTAAGTCCCTCGATGAAGTCAGCCAGCCTGCCCAGGAGCTGAAGAGAGGCAGCATCATGGCCTTGGCCGTTGGCAGCAAGGCCGCCGATGAGGATGAGCTGAAAGAGATCGCTTTCGACTCCTCCCTGGTCTTCATTCCCGCTGAGTTCCGCCCTGCTCCCTTGCAAAACATGCTGCCCAGCCTGATGGCACCTCTCAGGACTCTCACTGGAACCACGGAAGAGAGCAAGCGGGACATTCTTTTCCTCTTTGACGGCTCAGTCAATGTCTTGGGTCAGTTCCCTGCTGTCAGAGACTTTCTCTACAGGATCATTGAGGAACTTGATGTGAAGCCGGATGGGACCCGGGTAGCAATAGCTCAGTTCAGTGATGACGTCAGGCTGGAGTCCCGCTTCAGTGAGCACCAGACGAAAGCTGAAATCCTTAATCTCGTGAAGAAGATGAAGCTAAAAACAGGCAAAGCCCTCAACCTGGGCTACGCCCTGGACTACGCGCTTAGGAACATCTTTGTGAGGTCGGCTGGCAGCCGCATCGAGGATAACGTGCAGCAGTTCCTGGTGCTGCTGGTTGCTGGAAGGTCGTCAGATGCTGTGGCCGGGCCTGCAAGCTCCCTGAAGCAGAGAGGAGTGGTACCTTTCATCTTTCAAGCCAAGAACGCCAACCCCAGTGAGCTGGAGCAGATTGTGCTGTCGCCTGCATTCATCCTGGCTGCAGAGTCACTCCCTAAGATCGGAGACCTCCAATCACAGATTGTGAGCCTTCTGAAAGCAGAACAGGGTTCAGGCCCTGTATCAGGTGAAAAGGATGTGGTGTTTCTCATTGATGGCTCTGAGGGTGTCCGCAGTGGCTTCCCCCTGCTAAAGGACTTTGTGCAGAGGGTTGTGGAGAGCTTGGATGTGGGTCCCGACCGTGTGCGTGTGGCACTGGTGCAGTACAGTGACCGGACCAGGCCGGAGTTCTACCTGAATTCCCACATGGACCAGCAGGGTGTCATCAGCGCCATCCGCAGGCTGACACTGCTGGGCGGCCCAACCCCCAACACAGGGGCGGCACTGGAGTTCGTGTTAAGGAACATTCTGACCAGTTCTACTGGGAGCAGGATAGCAGAAGGTGTTCCTCAGCTCCTGATTGTCCTCACAGCAGAGCCATCAGGGGATGACGTGCGAGGCCCTTCAGTAGTCCTGAAGCAGGGCGGGGCTGTGCCCATTGGCATTGGCATTGGGAATGCTGACATCTCTGAAATGCAGACCATCTCCTTCATCCCTGACTTTGCTGTGGCCATCCCCACCTTCCGGGAGCTTGGGACGATACAGCAGGTCATCTCTGAGAGGGTGATCCAGCTTAATCGTGAGGAGCTGAGCTCGTTGAAACCCATTTTGACGCCCTCAACAGGTGCAGGTGTTGGCAGCAAGAAAGATGTGGTCTTTCTCATCGATGGATCCCGAAATGCTGGCCCTGAGTTCCAGTACATCCGTACCCTGATTGAGAGGATAGTCGAGTACCTGGACATAGGCTTTGACACCACCCGGGTAGCCGTCATCCAGTTCAGTGAGGACTCCAAGATGGAGTTTCCTCTGAATGCCCACTTCAGCAAGGATGAAGTACAGAACGCTGTGCGCAGGCTGCGGCCCAAGGGTGGGAGTCAGGTCTACATCGGAAATGCCCTGGAGTACGTGCTGAAGAACATCTTCCAGAGGCCACTGGGGAGCCGGATAGAAGAGGGCGTTCCGCAGTTCCTAGTCCTCATTTCGTCTGGAAAGTCTGATGATGAGGTGGACGACTCAGCCGTGGAACTCAAGCAGTTCGGTGTGGCCCCTCTCACCATAGCCAGACACACAGACCAAGAGGAGCTGGTGAAGATCTCCCTAAGTCCTGAGTACGTGTACTCCGTGAGCACCTTCAGGGAGCTGCCCAGACTGGAGCAGAAGCTGCTGACGCCCATCACCACTCTAACCTCACAGCAGATCCATCAGATCCTGGCCAGTACCCGATATCCCCCTTCAGTGGTTGAAAGCGATGCGGCTGACATCGTCTTTCTGATTGACAGCTCTGATGCCGTCAAGCCCGATGGCATCGCTCATATCCGAGACTTTGTCAGCAGGATCGTTCGCAGACTCAACATTGGTCCCAGTAAAGTGAGGATTGGGGTCGTGCAGTTTAGCAATGATGTCTTCCCTGAGTTCTACCTGAAGACCCACAAGTCCCAGAGCAGTGTGCTTGAAGCCATACGGCGTCTGAGGTTCAAAGGAGGGTCTCCCCTAAACACTGGCAGAGCCCTGGAGTTTGTGGCAAGAAACCTCTTCGTGAAGTCTGCTGGGAGCCGGATAGAAGATGGGGTCCCTCAACACCTGGTCTTATTCCTGGGTGGGAAGTCTCAGGACGATGTGGCCAGGCATGCCCAAGTCATAAGCTCATCGGGGATTGTGAGCTTAGGAATAGGAGATCGGAACATTGATAGGACGGACTTGCAAACCATCACCAATGACCCCAGGCTGGTCTTCACAGTTCGGGAATTCAGAGAGCTGCCCAACATAGAAGAGAGGGTCATGCTTTCCTTTGGACCCTCTGGGGCTACTCCTCAGCCTCCTGGGGTAGATTTACCTTCTCCTTCCCGGCCAGAGAAGAAGAAGGCCGACATTGTGTTCCTGCTGGATGGTTCCATCAATTTTAGGAGGGACAGTTTCCAGGAAGTGCTCCGTTTTGCATCTGAAATCGTGGACACGGTCTATGAAGACGGAGATTCCATCAGAGTGGGACTGGTCCAGTACAACTCAGACCCCACGGATGAATTCTTCCTGAGGGACTTTTCTACCAAAAGGCAGATTATCGATGCCATCAACAAAGTCGTCTATAAAGGAGGGAGGCATGCCAACACCAGGGTGGGCATCGAGCACCTGCTGCGGAATCACTTTGTGCCGGAGGCTGGTAGCCGCCTGGATGAGCGGGTTCCTCAGATCGCCTTCGTGATCACCGGAGGGAAGTCAGTGGAGGATGCTCAGGATGTGAGCCTGGCTCTCACCCAGAAAGGTGTCAAGGTGTTTGCCGTTGGCGTGAGGAACATCGACTCTGAGGAGGTGGGCAAGATAGCCTCCAACAGTGCCACAGCCTTCCGGGTGGGCAGCGTGCAGGAACTGTCCGAACTGAGTGAGACAGTGCTCGAGACTCTGCATGATGCAATGCATGAGACCCTCTGCCCTGGTGTGACCGATGTCTCCAAAGCCTGCAATCTGGAAGTCATTCTGGGGTTTGATGGATCTCGAGATCAGAATGTGTTTGTGAGTCAGAAGGGCCTTGAGTCCAAGGTGGACATCATCTTGAACAGAATCAGCCAGATACAAAGGATCAGCTGCAGTGGCAACCAGCTGCCCACTGTGAGGGTATCCGTGATGGCGAACACGCCCTCTGGGCCAGTGGAGGCCTTTGACTTTGCCGAGTATCAGCCGGAGCTGTTTGAGAAGTTTCGCAACATGCGCAGTCAGCGCCCATACGTCCTCACAGCTGACACGCTGAAGTTGTACCAGAACAAGTTCAGGCAGTCGTCGCCTGATACTGTGAAGGTAGTCATTCACTTCACGGATGGAGCAGATGGAGACATGGCTGACTTATACAGAGCATCTGAGGAACTCCGGCAAGCAGGTGCCCAAGCCCTGATCCTGGTGGGTCTTGAACGTGTGGCTAACCTGGAGCGGCTGATGCATCTGGAGTTCGGGCGGGGCTTCATGTATGACAGGCCCCTGAGGCTCAACCTGCTTGACTTAGACTATGAACTGGCAGAGCAGCTTGACAATATTGCTGAGAAAGCTTGCTGTGGGGTTCCATGCAAGTGCTCTGGAGAGAGGGGAGACAGAGGGCCCATTGGCAGCATTGGGCCAAAGGGTATCTCCGGGGAAGATGGCTACCGAGGCTACCCGGGAGACGAAGGCGGACCTGGTGAGCGAGGTCCACCTGGTGTGAATGGCACACAAGGTTTCCAGGGCTGTCCAGGCCAGAGGGGAGTGAAGGGTTCTCGAGGATTCCCAGGAGAGAAGGGTGAATTGGGAGAAATCGGCTTGGATGGTCTGGATGGTGAAGAGGGAGACAAGGGGCTGCCTGGTTCTTCTGGAGAAAAGGGGAGTCCTGGAAGAAGGGGTGACAAAGGACCCAAAGGAGACAAAGGCGAGAGAGGAGATGTCGGGATTCGAGGTGACCCGGGTGACTCAGGACGGGACAGCCAGCAGAGAGGACCCAAAGGAGAGACGGGAGACATCGGCCCCATGGGTCTCCCAGGCAGAGATGGCATCCCTGGCAGCCCAGGAGACCCTGGGAAGGACGGTGGCTCTGGCCGAAGGGGCCCTGCAGGAGCTAAGGGCAACAGAGGTGGTCCTGGCCAGCCAGGCTTCGAAGGCGAGCAGGGTACCAGAGGCTCACAGGGCCCACCTGGTCCCATTGGTCCCCCAGGCCTGATTGGGGAACAAGGAATTCCCGGACCTCGAGGAGGCGGAGGTACGGCTGGGGCTCCTGGAGAACGTGGCAGAACTGGTCCTCTGGGGAGGAAGGGTGAGCCAGGAGAGCCAGGGCCGAAGGGAAGCATCGGGAACCGTGGACCCCGAGGAGAGACGGGAGATGACGGGAGAGATGGGGTTGGCAGTGAAGGACGCAGAGGCAAAAAAGGAGAAAGAGGCTTCCCTGGGTATCCGGGACCAAAGGGCACCCCTGGTGAGCCAGGGGCAGATGGACCACCAGGACCCAAAGGCATCAGAGGTCGAAGGGGAAATTCAGGACCTCCAGGGGCAACTGGACAAAAGGGAGACCCTGGTTACCCAGGACCATCTGGTCACAAGGGCAACCGAGGCGACTCCGTTGATCAATGCGCCCTCATCCAGAGCATCAGAGACAAATGCCCTTGCTGCTACGGGCCCCTGGAGTGCCCTGTATTCCCAACAGAACTCGCCTTTGCCCTGGATACCTCTGAGGGGGTGACTCAGGACACCTTCAGCCGGATGCGAGAGGTGCTTCTGGGCATTGTGGGCGATCTGACCATTGCAGAGAGCAACTGTCCGCGGGGTGCCCGCGTGGCTGTGGTCACCTATAACAATGAGGTGACTACAGAGATCCGGTTTGCTGACTCCAAGAAGAAGTCTGCCCTCTTAGACAGTATTCAGAACCTCCAAGTGGCCTTGACCTCTAAGCAGCAGAGCCTGGAGACCGCAATGTCATTCGTGGCCAGGAATACATTCAAACGTGTGAGGAGTGGCTTCCTGATGAGGAAAGTGGCTGTTTTCTTCAGCAACAAGCCCACCAGGGCATCCCCCCAGCTCCGAGAGGCCGTACTCAAGCTTTCCGATGCGGGGATCACACCCTTGTTCCTTACAAGCCAGGAGGACCGACAGCTCATCAACGCCTTCCAGATCAATAACACAGCAGTGGGACATGCCCTGGTTCTGCCTGCAAGGAGGGATCTCACAGACTTCCTGAAGAATGTCCTTACCTGCCATGTTTGCTTGGACATTTGCAATATCGACCCATCCTGTGGCTTCGGCAGCTGGAGGCCTTCCTTCAGGGACCGGAGGGCAGCAGGCAGTGATGTGGACATAGACCTGGCTTTCATCTTGGACAGCTCAGAGGCTACCACACTGTTCCAGTTCAATGAGATGAAGAAATACATAGGCTATGTGATCAGACAGCTGGACCTGAGCCCAGACCCGAAGGCTTCCCAACACTTTGCCAGGGTGGCTGTTGTGCAGCAGTCAACCTACGAGTCTGTGGACAATGCCAGTGTGCCGCCTGTGAAGGTGGAATTCTCACTGACAGACTATGGTGCCAAGGAAAAGCTGTTGGATTTCCTTAGCCGGAGGATGACCCAACTTCAGGGAACCATGGGCCTGGGCAATGCCATTGAATACACTATAGAGAACATCTTTGAAAGTGCTCCAAACCCACGGGACCTCAAAATTATGGTGCTGATGTTGACTGGTGACATGCAGAGGCAGCAGCTGGAGGAGGCCCAGAGAGCCATCCTCCAGGCCAAGTGCAAGGGTTACTTCTTTGTGGTTCTGGGCATTGGCAGGAAGGTGAATATCAAGGAGGTCTACAGCTTTGCCAGTGAGCCCAATGATGTCTTCTTCAAATTTGTGGACAAATCAACTGAGCTCAACGAGGAGCCTCTGATGCGCTTTGGGAGGCTGCTCCCATCCTTTGTCAGCAGTGAAAATGCATTTTACCTGCCTCCAGATCTCAGGAAACAGTGTGATTGGTTCCAAGGGGACCAACCAGTGAAGAATGGCGTGAAGTTTGGTCACAAACAGATAAACCCTCCACATACTGCTAATTCAAGTCTTACATCCAAAGTTGTGACCACAATGAAGCCAGTGACAACGACCAAACCAACAGCAATTGTAAACCTGCCACCTGCTAAGCCAGCCCCAGCGAGGCCAGCCCCTGCTCAGCCAGTTCTTGCTAAGCCAGACCCCGCAAAACCAGCCCAAGCAAGGCCAGCCCCTGCTAAGCCAGCTTCTGCTAAGTTGGTGCCTCCTCAGCCAGTCCATGTTCAGCCAGCCCCTGCCCAGACAGCTTCTGTAAGACCAGCCCCCGCTAAGCCAGCCCCTCCTCAGCCAGCTGCTGCTAAGCCAGTCCCTGCTAAGCCAGCAGTCCCCGCTCAGCCAGCCCCTCCTCAGCCAGCTGCTGCTAAGCCAGTCCCTGCTAAGCCAGCAGTCCCTGCTCAGCCAGCCGCTGCTCAACCAATGCCTGCTCAGCCAGTCCTTACTAAATCAGCCGCTGTGAAACCAGCCTCTGCCAACAAGCCTGTGGCAGCCAAACCTGTGGCCACGAACACAGCCACAGCCACAGCCAGACCTGCATTAGCAGCGAAGCCTGCTGCAGCGAAGCCTGCAGCAACGAGACCCCTTGCTGCTGCCATAAGGCCAGTTGCTACCAAGCCAGAGGCCCCCAGGCAACAGGCCAAACCAGCTGCCACCAAGCCAGCCACTACTAAGCCCTTGGCGAGAGTGTCCCGAGAAGTCCAGGTCTCTGAAGTCACGGAGAACAGTGCCAGACTCCACTGGGAGCGGCCCGAGCCTTCCAGCTCCTTTTTTTATGACCTCACTGTAACCTCGGCCCACGACCAGTCCTTGGTTCTGAGACAAAACCTCACTGTCACTGACCGTGTCATCGGAGGCCTACTGGCTGGACAGCTGTACCATGTCGTAGTGGTCTCCTACCTGCAGTCTCAGGTCAGGGCCATCTACCAAGGAAGTTTCAATACGAAGAAAACCCAGCCTCCACCTCTTCAGGCAGCACACCGAGCATCCAGTTCAACCATCAACCTCATGGTGAACACAGAACCATTGTTTCTCACTAAAACAGATATATGTAAGCTGTCCAGAGATGCTGGGACTTGTGTGGACTTCAAGTTACTATGGCACTATGACCTAGAGAGCAAAAGTTGCAAGAGATTCTGGTATGGAGGTTGTGGAGGCAACGAGAACAGATTCCACTCCCAGGAAGAATGTGAAAAGATGTGTAGTCCTGAGTTAACAGTTTGACAAGAGCCTAAGCATGGCCTTCAGGCAACACGTACCTCTGGGAGAAGGAGGAGGCAGCCATTTCTAACTCGTTTCTATAGAAGCCCTGGGTAGATGCCTCAGCACGGTGCCTTTTCATGCTTTGATTGACACTCAACCTCGGGAGGAAACCCTCTGCACGTGACCTGTCAATATGGTGCTAAATGTGTCTATGGACCCTGCTCTCCGTCTCCAGGCAGTTCTACCGTATACTTGGACCCTTGGGTTATAGCTAGCCACTGCTGGTGTTTATGTGAACATTCCTATAAATTCAATTTCCCTCTGGAGTTCCACGCTACGCCTGTGCCAGGCAAACCCTGTGCCTAGAACATAGCCTGGACGTCACAGCTACTCTGTACATTTCTGCTTGGTTCATTCCTCTGTAGTTGCACGGCTTAGATGGAGAAACAAGAGTCTAACCTTCTCATGGTCCCAGTTTTCTGGATTAGACTTCGATCAATATTCTTCTAAATCCTCTGACAAATGATCTAATTAGAAGAAATCAGACCTCTTTCCTGTGTGCATTGCTGGGACAAATGCCTCCATTAGAAAATTCAAAGAAAGTCATAATCGAGAATCTCTTTGGTGGTCCTCTAAGGCGGGTTGTTTTTCAATGTTGTTGTCTTGGAGCTTGGAGGTGAAATTCAATGTTTAAAATTTTTAGGAAATTTATACAAAGAAACTTTTAAATAAAGTATATTGAATGTGCCATGA'
p121
(I39
S'MRKHRHLPLVAVFSLLLSGIATTHAQQHGVMEVNKRDIVFLVDGSSSLGPSNFNAIRDFVTRVIQRLEIGQDLVQVSVAQYADTVKPEFYLNSYTNKRDAITAVRKMRALNGSALYTGSSLDFVRNNLFTSSAGHRAAEGVPKLLVLITGGKSLDEVSQPAQELKRGSIMALAVGSKAADEDELKEIAFDSSLVFIPAEFRPAPLQNMLPSLMAPLRTLTGTTEESKRDILFLFDGSVNVLGQFPAVRDFLYRIIEELDVKPDGTRVAIAQFSDDVRLESRFSEHQTKAEILNLVKKMKLKTGKALNLGYALDYALRNIFVRSAGSRIEDNVQQFLVLLVAGRSSDAVAGPASSLKQRGVVPFIFQAKNANPSELEQIVLSPAFILAAESLPKIGDLQSQIVSLLKAEQGSGPVSGEKDVVFLIDGSEGVRSGFPLLKDFVQRVVESLDVGPDRVRVALVQYSDRTRPEFYLNSHMDQQGVISAIRRLTLLGGPTPNTGAALEFVLRNILTSSTGSRIAEGVPQLLIVLTAEPSGDDVRGPSVVLKQGGAVPIGIGIGNADISEMQTISFIPDFAVAIPTFRELGTIQQVISERVIQLNREELSSLKPILTPSTGAGVGSKKDVVFLIDGSRNAGPEFQYIRTLIERIVEYLDIGFDTTRVAVIQFSEDSKMEFPLNAHFSKDEVQNAVRRLRPKGGSQVYIGNALEYVLKNIFQRPLGSRIEEGVPQFLVLISSGKSDDEVDDSAVELKQFGVAPLTIARHTDQEELVKISLSPEYVYSVSTFRELPRLEQKLLTPITTLTSQQIHQILASTRYPPSVVESDAADIVFLIDSSDAVKPDGIAHIRDFVSRIVRRLNIGPSKVRIGVVQFSNDVFPEFYLKTHKSQSSVLEAIRRLRFKGGSPLNTGRALEFVARNLFVKSAGSRIEDGVPQHLVLFLGGKSQDDVARHAQVISSSGIVSLGIGDRNIDRTDLQTITNDPRLVFTVREFRELPNIEERVMLSFGPSGATPQPPGVDLPSPSRPEKKKADIVFLLDGSINFRRDSFQEVLRFASEIVDTVYEDGDSIRVGLVQYNSDPTDEFFLRDFSTKRQIIDAINKVVYKGGRHANTRVGIEHLLRNHFVPEAGSRLDERVPQIAFVITGGKSVEDAQDVSLALTQKGVKVFAVGVRNIDSEEVGKIASNSATAFRVGSVQELSELSETVLETLHDAMHETLCPGVTDVSKACNLEVILGFDGSRDQNVFVSQKGLESKVDIILNRISQIQRISCSGNQLPTVRVSVMANTPSGPVEAFDFAEYQPELFEKFRNMRSQRPYVLTADTLKLYQNKFRQSSPDTVKVVIHFTDGADGDMADLYRASEELRQAGAQALILVGLERVANLERLMHLEFGRGFMYDRPLRLNLLDLDYELAEQLDNIAEKACCGVPCKCSGERGDRGPIGSIGPKGISGEDGYRGYPGDEGGPGERGPPGVNGTQGFQGCPGQRGVKGSRGFPGEKGELGEIGLDGLDGEEGDKGLPGSSGEKGSPGRRGDKGPKGDKGERGDVGIRGDPGDSGRDSQQRGPKGETGDIGPMGLPGRDGIPGSPGDPGKDGGSGRRGPAGAKGNRGGPGQPGFEGEQGTRGSQGPPGPIGPPGLIGEQGIPGPRGGGGTAGAPGERGRTGPLGRKGEPGEPGPKGSIGNRGPRGETGDDGRDGVGSEGRRGKKGERGFPGYPGPKGTPGEPGADGPPGPKGIRGRRGNSGPPGATGQKGDPGYPGPSGHKGNRGDSVDQCALIQSIRDKCPCCYGPLECPVFPTELAFALDTSEGVTQDTFSRMREVLLGIVGDLTIAESNCPRGARVAVVTYNNEVTTEIRFADSKKKSALLDSIQNLQVALTSKQQSLETAMSFVARNTFKRVRSGFLMRKVAVFFSNKPTRASPQLREAVLKLSDAGITPLFLTSQEDRQLINAFQINNTAVGHALVLPARRDLTDFLKNVLTCHVCLDICNIDPSCGFGSWRPSFRDRRAAGSDVDIDLAFILDSSEATTLFQFNEMKKYIGYVIRQLDLSPDPKASQHFARVAVVQQSTYESVDNASVPPVKVEFSLTDYGAKEKLLDFLSRRMTQLQGTMGLGNAIEYTIENIFESAPNPRDLKIMVLMLTGDMQRQQLEEAQRAILQAKCKGYFFVVLGIGRKVNIKEVYSFASEPNDVFFKFVDKSTELNEEPLMRFGRLLPSFVSSENAFYLPPDLRKQCDWFQGDQPVKNGVKFGHKQINPPHTANSSLTSKVVTTMKPVTTTKPTAIVNLPPAKPAPARPAPAQPVLAKPDPAKPAQARPAPAKPASAKLVPPQPVHVQPAPAQTASVRPAPAKPAPPQPAAAKPVPAKPAVPAQPAPPQPAAAKPVPAKPAVPAQPAAAQPMPAQPVLTKSAAVKPASANKPVAAKPVATNTATATARPALAAKPAAAKPAATRPLAAAIRPVATKPEAPRQQAKPAATKPATTKPLARVSREVQVSEVTENSARLHWERPEPSSSFFYDLTVTSAHDQSLVLRQNLTVTDRVIGGLLAGQLYHVVVVSYLQSQVRAIYQGSFNTKKTQPPPLQAAHRASSSTINLMVNTEPLFLTKTDICKLSRDAGTCVDFKLLWHYDLESKSCKRFWYGGCGGNENRFHSQEECEKMCSPELTV'
p122
tp123
sS'GCGACCCAGATGCGGCCACGGAATGCCCAGCTTTCCGGAGATTGTTTGAGAAACGGCCGTGCGGCGCCCGGGCGTCCCGCAGACCCCGCAGGAGACATATGAAAACCCACTGATGAGCTAACCAAGGATACATTCCAGCAACTCCTGCTGAAATCGTTCTCCAAGACTCTCAGCAAGACCATAGCCAGGAGTTCACATCTCGGGTCTTTTGCACAGCCTGTTCCTTTTTCCTAACTCTTGGCAAGTATGAGGTAAAGGCCTCCTGAAGCAGCTGTGCAGCAGAACTCTCTATCAACTTCTGGTAGGCCGCTGAGTGCTGCAGGGGCCACGGGAACGGAGCACAGCCTTTTGTTTTAGACTCAAGAAACCCAAGGATGGGGAGGATCAGGTGAAAACCCTGGTTTCAAATCACATTGGCAACAGTTGATGTCCACAGGATCCATGCCTCTAGTAGTTCCACGTGTTTATATTCTACAGGAAAATAGATCAAGTGAAGGAACCACTTAGAAATTACAGACAGCATCTGAGGAGATATGACTGGCAAAGAAGAGAATATGCAGAGTGCAAACAGAGTGCTGAGGATAAGTCAGTTGGATGCACTTGAACTGAATAAGGCCCTGGAGCAGCTTGTGTGGTCCCAGTTTACTCAGTGCTTTCATGGATTTAAGCCAGGACTGTTAGCTCGCTTTGAGCCAGAAGTGAAAGCATTTCTGTGGCTTTTCCTATGGAGGTTCACCATCTACTCCAAAAATGCCACTGTGGGGCAGTCAGTTTTAAATATTCAGTACAAAAATGATTCTTCTCTCAACCTGATATACCAGCCACCGAGTAAAACTCAGAAACTGTGGTATGCTGTGTGCACCATTGGGGGAAAGTGGTTAGAAGAACGATGTTATGATTTGTTTCGAAACCGTCATTTAGCGTCTTTTGGGAAAGCCAAACAGTTCATGAATTTTCTGGTTGGACTTTTAAAATTAGGTGAGTTGATAAACTTCTTGATTTTCCTACAAAAGGGAAAGTTTGCAACTTTGACAGAACGCCTCCTTGGCATTCATTCCGTATTTTGCAAGCCCCAGAACATGCGCGAAGTTGGCTTTGAGTACATGAATAGGGAACTTCTCTGGCATGGCTTTGCTGAGTTTCTGATTTTTCTCTTACCACTTATCAATATCCAGAAGTTGAAAGCCAAATTGTCTTCCTGGTGTATCCCTCTTACTGGTGCTGCTGGTCATGACAGTACACTAGGCAGCAGTGGAAAAGAGTGTGCTCTGTGTGGAGAGTGGCCCACAATGCCTCACACTATTGGATGTGAACATGTATTTTGTTACTACTGTGTTAAGAGTAGCTTCCTATTTGACATATACTTTACGTGCCCGAAGTGTGGCACAGAAGTGCACAGTGTGCAGCCCTTGAAATCAGGAATTGAAATGTCAGAAGTAAATGCTCTTTAGAAACCAAGTTGTTTCCTCTGAGAAAAGTGTATTGTATCCAGTTCCTTGGAATTAGTCATCCTCAGTGTCATCTGTAGGTGGCTTTTAACAGGAGTGTGCTGTACAGCCACTCTCTTCCTTTACAAGCACAACTCAGTTCTAATCACTGGAAACCAAATGATACTAGAAAATCTTATAAATGTTCATGTAATTTTTTTAGATCATCTAATATAATTTTTAATGTCAAGAATACTGGAAATTTTTTGTCAGATGAATACTAAGAATGACTAAGAATTCTTCTTCATAGAAAAAGGTCAGACTCTAAAAATAAAAAATTTTGAGGGTCAAAAAAAAAAAAAAAAAAAAAAAAAAAAAAAAAAAAAAAAAAAAAAAAAAAAAAAAAAAAAA'
p124
(I29
S'MTGKEENMQSANRVLRISQLDALELNKALEQLVWSQFTQCFHGFKPGLLARFEPEVKAFLWLFLWRFTIYSKNATVGQSVLNIQYKNDSSLNLIYQPPSKTQKLWYAVCTIGGKWLEERCYDLFRNRHLASFGKAKQFMNFLVGLLKLGELINFLIFLQKGKFATLTERLLGIHSVFCKPQNMREVGFEYMNRELLWHGFAEFLIFLLPLINIQKLKAKLSSWCIPLTGAAGHDSTLGSSGKECALCGEWPTMPHTIGCEHVFCYYCVKSSFLFDIYFTCPKCGTEVHSVQPLKSGIEMSEVNAL'
p125
tp126
sS'GGTGTCTCGCGGCTCTGTGAGCGGCAGCGGAGAGCGAGGCCTGGTGAGCGCCGCCGTGGTGCGCGCCGGCTGGTCAAGGTTGTGCGCAGAAGAGGCGCAGCGGGCGGGCCAAGAGCGAGCGTCTCCCTCTTCGTAGTGGCACCGGGACCGGTCGCCTGGAGCCGAAATCATGTCCACACCAGGAAAAGAGAACTTTCGCCTGAAAAGTTACAAGAACAAATCTCTGAATCCTGATGAGATGCGCAGGAGGAGGGAGGAAGAAGGACTGCAGTTACGGAAGCAGAAAAGAGAAGAGCAGTTATTCAAGAGAAGAAATGTTGCTACAGCAGAAGAAGAAACAGAAGAAGAAGTTATGTCTGATGGTGGCTTTCATGAGGCCCAGATAAATAACATGGAGATGGCACCAGGGGGTGTCATCACCTCTGACATGACTGATATGATATTCTCGAATAGCCCAGAGCAGCAGCTCTCTGCAACACAGAAGTTTAGGAAACTACTTTCAAAAGAACCTAATCCTCCAATTGATGAAGTCATCAACACACCAGGAGTAGTGGCCAGGTTTGTGGAGTTCCTCAAACGAAAAGAAAATTGTACACTGCAGTTTGAATCAGCTTGGGTCCTGACAAATATTGCTTCAGGAAACTCTCTTCAGACCCGGAATGTGATTCAGGCAGGAGCTGTGCCTATTTTCATCGAGTTGCTTAGCTCAGAGTTTGAAGATGTCCAGGAGCAGGCAGTTTGGGCTCTTGGCAACATTGCTGGAGATAGTACCATGTGCAGGGACTATGTCTTAAACTGCAATATCCTTCCTCCTCTTCTGCAGTTATTTTCAAAGCAAAACCGCTTGACCATGACCCGGAATGCAGTATGGGCTTTATCTAATCTCTGTAGAGGGAAGAGCCCACCTCCAGAATTTGCTAAGGTTTCTCCCTGTCTGAATGTCCTTTCTTGGTTACTGTTTGTCAGTGACACTGATGTACTAGCTGATGCTTGCTGGGCTCTCTCATACCTGTCAGATGGACCCAATGATAAAATCCAAGCAGTCATCGATGCAGGAGTCTGCAGGAGGCTTGTGGAACTTCTGATGCATAATGACTATAAAGTAGTTTCTCCTGCTTTGCGGGCTGTGGGAAACATTGTCACAGGGGATGATATTCAGACACAGGTAATTTTGAATTGCTCAGCTCTTCAAAGTTTATTGCATCTGCTGAGTAGCCCAAAGGAATCTATCAAAAAAGAAGCCTGTTGGACAATCTCTAATATTACAGCTGGAAATAGGGCACAGATCCAGACTGTGATAGATGCTAACATGTTCCCAGCTCTTATTAGTATATTGCAAACAGCAGAGTTCCGGACAAGGAAGGAAGCTGCTTGGGCCATCACAAATGCAACTTCTGGAGGATCAGCTGAGCAGATCAAGTACCTAGTAGAACTGGGTTGTATCAAGCCACTCTGTGATCTCCTCACTGTCATGGATGCAAAAATTGTACAGGTTGCCCTAAATGGCTTAGAAAACATCCTGAGGCTTGGAGAACAAGAAGCCAAACGAAACGGCTCAGGCATTAATCCTTACTGTGCTTTGATTGAGGAAGCATATGGTCTGGATAAAATTGAGTTCTTACAGAGTCATGAAAACCAGGAGATCTATCAAAAGGCTTTTGATCTTATTGAGCATTACTTTGGGACCGAAGATGAGGACAGCAGCATCGCACCCCAGGTTGATCTTAGCCAGCAGCAGTACATCTTCCAGCAGTGTGAAGCTCCTATGGAAGGTTTCCAGCTTTGAAGCAATCCTCTCCTTCTTGTTCCTGTGTCAGACCAGGCTATCCAGTCAAGTCCTCTTGTGGAGCCCACAGTCCTCATGGAGCTAATCTCTCAAATGTTTTCCATAATACTGTTTGCGCTCATTTGCTTGCCTTGCGCACCTGCTCTCTTACACACATCTGGAAAACCTCTGGCTCTCTGTGGTGGAATACCCTTTTATTACAAGGGTAACCAGAACGGCCCACTCTCTTATGGAAAAATCCCTAAGCTTTGGAGATCCGCACTTACATTAGAGTCATGGGAATATATACACATACTAATGTGGCTCCCTTTTTTGTGGGGGAAAAAAGAGGACTCTTCCTCATTCCGTAAAGTGGGGAAAATGACATTGAAAGATAAAACTAAAACCTTTATCTTGAATTTTACACAACTACAAGGGAGATATTTAGACTTGTGTATACATCAGAGTACTCTTCTCGAGTTCTTCCACAGTGAATCAACCCTTGGAGTACCTGGTGGCTTTTTCTAGCCACATTTGCATTAATCCTTATTGAGATGGGATGGTTTTCTTTCCTCTAATGGAGTCATTTTCTTCAGATATTAAAGTTAAACCATCCAATCCCTCACCTTCAGCCTTCAGTGAATGTGCTTCTAGTTGTCAGGAATGCTGAAGAATTAACACTTTGACTTTTAAATGTGATCCTGGCTTGGCAGATTTCCTTAAAGCAGGAAGGAGAGAAGCATATATTAGTTTGTATGGCTTTTGCTTCTCTTTGTTTTTGTTTCTTAGGATTTGGAAGTGGTTCAGTTTTAACGCTGGTATGAAGGCTAAAAGTCCTTAAGTAAAACCATGTTCAAAAATCCAATTAAAGACTAAGAACATAAAACCCATCACTTTGTTTAAACCGGTGTGACGAGAGGCTGTGTTTCTGCATTACAAATGATCCTCAGGCTTTGTGGTCCTGACCAAGGGCCTGGTAAATTGGAGTCACCCTAGGTGCTTTTCCTCTTCGTGACTGGCAGATAACACATATTTAAATGTTACTTAGGGATTTTTTTTTCCTTTGTTGAGTGCAGCTCGATTCTAATGTAATCATGCTGCATACATGCTTTTGCTGTGCAGCATCCTTATCTTTAAAAGCATACTAGTCTCCTCAGTGTGACCTCTAGACTAAAAGGGCAGTGATCCAATAACCTCAGTATCCCCTGTTTTTATTTCATCTCCTACTAGTACCCTACCTCCCCTAGGAAGAACATGCCCACCTCCTGCTTATTTAATGATGACTGTAATGTACCTGCAAATGGCGCTTCCAGTACTGTGTTCACTGACATTTGTGCTTGGACTAGAAGGGGAAAGAAACAAGAAAAAAAGGATAATTGCCAAGAGAACTGCAAATGAGTTCAATGTGACTTCTCGGTGCTAGTTGGCCATCTTGGCTCAATGTTGGGACACACTATCAGAGAGAGGAGTCTTTTTTTTTTTCCCCAATGATATTCTGTTCAAAATGAATTCTGAAGGAAAAGTTGCTCATGTCTGTTTCAGAGCATACCCTTTTAAATCTTTTTAGACTACTCTTCTAGAATTCATCATAACCCCAAAATAGATAAAAGCTATCTAGAAGTTGCCCTGACAAGCTATTGCACATCTCTGGTAAATCCTGCTGAATGTAAGGAATATTCAGAGCTCTCATACCTCATCATGATGTTATTTAAGCAGCCAATTTACACGAGCTGATTTACTTTGAAAAATTTGTTTCATTCAAACTAGAAAGTTCCAGAGACAAAGGACATTTCTCAGCCAAGAGTGTGATGCATTCTTGCCCTAGTCTTTACTTGTGTCTGCTCTGGGATGGATGCTGTCTGATGTCTGTTACCAATGGAGCAGATACCACAAAACTAGTCAACTCCCGTCTGTCCTGTTGTTTTCTAGTGCTGCTTTGTGCTGAGAGAACATGTTAGTTTACTGAACTTGACCTGTACAAGACTGATTCTTTGTAATTTTAGGGTTAAATTAGGTGGTTAATTTAAAGATGAACTTTCAATGTTGCCTTTACATCACATTACAGTATCACTTCTTTGAGAAGGTAATAGAAGCACTGATTCATAGTAAAAATCTTGTTTTTAGCTTTGACTTTTCTTGTGGCTGATTTCTTTTTAAATTGTAAATTACTGGTAACATGTTATTTCTATAGAATGTTTTAAATTGTGTACCTTCTATTGGATAGTTAAAACCTTTGCATCTTATAAAGGAGTTTGAATGAAAAGAAATAGAAAGCACACAGAGTTGTCACCTCACCTTACCAAGAGCATACAGCTGGAACTTTTGTAGCAATATCAGGGTGGCCCAATGAGTTCAGGTCCATTAATCAGTGTGAGCTCTTTTATCTTAAGCCTGACCAGAAGTTCATGAACTTTAAATATTCTGAACTTTGTTTTTATAGTAAAATGATTGTTTCAGTGTAAACATGGCATTCAGCTAAACCCTGGCAAGTTCAGATGTTCTGGAACTGAGTACTTACAAAGAAGACTTTTGTTTCTTAACGCAAGTGGAATCTTAGGGGTTACTTGTAAATCCTATTTTTAGTCTTTCACCTGGCAAAGTCTATTAATTTAATCTTTTGAAGATTTTTATCAGAAAGGTGTTACTTATTACAGAAGCATGTTAGTATTTATAACATAAAACCTCTTAAGGATTTTAGATAGTGATCAGGGCAAAGTGGCTTTGTTGTTTTCCTTCTCTGTCTCCTTCCAGACTTTCCAAGTATGTATTTTATACTGAGAACTTTGATTTTTAAAGAAGCATTCAGAGACTTTGAGATGTAAAGGTACCTGGTACCTGAAGCACCAAAAGGTAAAGAGCCGGGTGGAGAAACACCCCAGAACATTCAGATGCCAGGTACAGAACACAGTTAGGAGACTTGGCTGTGGGACACGGGTTCTTGCCACCAGTCAAAGCCATCTTTAGATTGCCCTCGTTAGCCCCCTGCTGGAAACTCTGCTGCACCAGGGTTGTTTCTTCCACACACCAGACTAAGCTGTTGGACTCGGGTGTTTCTCAGCCTTACTGTCCTATAATAAATCTGAATTATTCCAGTTGCTGCTGACTATGCCTAAGAAAACATATGTAAGTATAATTTGTCAACCAAATTCTGTTGTACATGACTACCTACCGGCAACTTTGATTGATTTCTGTAGTGCTAAATAAACATTTCAGCTGTCTGACCCCAAACGTGGGGCTGTATTGG'
p127
(I37
S'MSTPGKENFRLKSYKNKSLNPDEMRRRREEEGLQLRKQKREEQLFKRRNVATAEEETEEEVMSDGGFHEAQINNMEMAPGGVITSDMTDMIFSNSPEQQLSATQKFRKLLSKEPNPPIDEVINTPGVVARFVEFLKRKENCTLQFESAWVLTNIASGNSLQTRNVIQAGAVPIFIELLSSEFEDVQEQAVWALGNIAGDSTMCRDYVLNCNILPPLLQLFSKQNRLTMTRNAVWALSNLCRGKSPPPEFAKVSPCLNVLSWLLFVSDTDVLADACWALSYLSDGPNDKIQAVIDAGVCRRLVELLMHNDYKVVSPALRAVGNIVTGDDIQTQVILNCSALQSLLHLLSSPKESIKKEACWTISNITAGNRAQIQTVIDANMFPALISILQTAEFRTRKEAAWAITNATSGGSAEQIKYLVELGCIKPLCDLLTVMDAKIVQVALNGLENILRLGEQEAKRNGSGINPYCALIEEAYGLDKIEFLQSHENQEIYQKAFDLIEHYFGTEDEDSSIAPQVDLSQQQYIFQQCEAPMEGFQL'
p128
tp129
sS'GGCGCCCGCCCCGGCCGCGGCCCCGGGCCTCCCCCGCGCCGCCCTGCCTGGCCCGGCCCGCCCAGCCCCGGTGTGGCAGCGGCTCATGGCGGCGGTGGGGCCCCCGCAGCAGCAGGTGCGGATGGCCCAGCAGCAGGTCTGGGCGGCGCTCGAAGTGGCGCTCCGGGTGCCCTGCCTCTACATCATCGACGCCATCTTCAACTCCTACTACGATTCCAGCCAAAGCCGGTTCTGCATCGGGCTTCAGATCTTTCTCCGGCTCCTTGGTATAGTTGTATCCAGTATTGTTCTGATCTTGTCACAGCGATCACTTTTCAAGTTTTACATGTACAGCTCAGCCTTTCTATTAGCTGCAACTTCAGTGTTGGTGAATTACTATGCTGCTTTGCACATTGACTTCTATGGTGCCTACAACACGTCAGCGTTTGGAATCGAGTTGCTTCCTCGGAAAGGGCCCTCACTGTGGATGGCACTCATCGTTCTGCAGCTAACCTTTGGAATTGGATATGTCACATTACTGCAGATTCAGTCCATCTATTCACAGTTAATGATTTTAAATATCTTGGTTCCTATAATTGGCTTAATCACAGAGCTGCCATTACACATCAGAGAGACAGTAGTGCTCATGTCGTCCTTGATTCTCATATTTAACACAGTGCTTGTCTTGGCAGTGAAACTTAAGTGGTTTTACTACTCTACTCGGTATGTGTACTTGTTAGTGAGGCATATGTACCGAATTTATGGATTACAGTTACTGATGGAGGACACATGGAAGAGGATTCGTTTCCCAGACATACTTCGGGTCTTCTGGCTAACAAGAATTACAGCTCAGGCTACAGTGTTAATGTACATTTTAAGGATGGCAAATGAAACTGAGTCCTTCTTTATTTCTTGGGATGATTTCTGGGACGTCATTTGCAATCTAATAATTAGTGGGTGTGATTCTACACTAACTGTACTAGGCATGAGTGCTGTAATTTCTTCAATAGCCCATTATTTGGGCCTTGGAATATTGGCCTTTATTGGATCAACTGAAGAAGATGACAGGCGGCTTGGCTTTGTAGCTCCTGTTTTATTTTTCATTTTGGCTCTTCAGACTGGTTTAAGTGGGCTAAGACCTGAAGAGAGACTTATTCGCTTAAGTAGAAACATGTGCCTTTTATTAACTGCAGTCCTGCATTTCATCCATGGGATGACAGACCCTGTATTAATGTCGCTCAGTGCCTCCCATGTGTCATCTTTCCATAGACACTTTCCTGTGCTGTTTGTCTCTGCTTGCCTGTTCATTCTCCCTGTCTTACTCAGTTATGTCCTTTGGCATCACTATGCACTAAATACATGGCTGTTTGCAGTTACAGCCTTTTGTGTGGAACTCTGCTTGAAGGTAATCGTCTCCCTCACTGTCTACACGCTGTTCATGATTGATGGCTACTATAACGTCCTCTGGGAAAAGCTTGATGACTATGTCTACTTTGTTCGCTCCACGGGCAATATTATCGAATTTATATTTGGAGTAGTAATGTTTGGGAATGGGGCCTATACCATGATGTTTGAGTCAGGAAGTAAAATTCGGGCTTGTATGATGTGCCTACATGCATATTTTAACATCTACTTACAAGTAAAAAATGGCTGGAAGACATTCATGAATCGTAGAACTGCTGTTAAGAAAATTAATTCACTTCCTGAGATAAAAGGGAGCCACTTGCAAGAAATAGATGATGTCTGTGCAATCTGCTATCATGAGTTCACAACATCTGCTCGTATAACACCGTGTAACCATTATTTCCATGCACTCTGCCTTCGGAAATGGCTGTACATTCAAGATACTTGTCCAATGTGCCATCAGAAAGTGTACATCGAAGATGAGATCAAGGATAACTCAAATGCATCTAACAACAACGGATTTATTGCACCCAATGAAAATCCAAACCCAGAGGAGGCTTTAAGAGAGGATGCTGCTGGATCTGACCGAGAACTGAACGAGGATGACAGTACAGACTGTGATGATGATGCTCAAAGAGAAAGAAACGGGGGGATTCAGCACACAGGCGCAGCAGCAGCAGCCGCAGAATTTAATGATGACACTGATTAAAGTAGCATTTACTAATCATTGAGGTATTTGTTTAAAATTCAGTTCATCCAAAATGGAGTAATATGCTTCACGTCAGTGTGTAACCAAGCACAAAAACAGTATGGATGTTGAAACTGTGAATGCTTTCCGTTTACTGTGATGTGCTACTGTAAATATACCTCTTTAATTACTTCTGGTCTCTTTGGTGACCTGTTTAAATTTGTGTACATTATTGTACATAGAATAAAAGTTTTCACGTTTTTATGACAAAATTTGAACAAATAGCTTCTTAATAGAGATAATGATCATATGGTGCGTCAATTGTGCCAAAGATTCCTCCATGAAATTGGAATATATCTAATGCTGGACTCTAGCTTTTCCTTAAAATGAGTGGGAAAATGAAAATGCAGAATAAAGGAACTTTAGTATAAGAGACGAGAAGAAAAATAATCTTGAGTAGAAAGGCTATAAAATGTCTTCTAAAACTAAGGCAAGATAACCTGCTAGAAGCAACTAAAAAACTTGAAACCTGAGCTGCAGCTTAGAGCTAGGTTCAAAAGTCAAAAAACAGGGACAGAATTGAGAAATAGGCTTGTTATCAACTAAACTTTGATATAATCCAGGATGTGCTGTCTAAGTCTTAGTAGAAGCATCACTGTGTTTGCAGTGAGAGCATAAAACTGTCCTTTCAGACTTCTGATGAGATTACACAATAAAAAGGTGGACATTGTTAACTAAAGCAGCCTAAACAGTGCTGACCTGACTCTTCGAGGTGTAATGTACAGTGCTACTGGAAAAAATTCCTCAATAAAGTTCACAGTTTTACAATGAAATTCCACATCATAAAAAGGAAACACAAATCAGGAAAAAAACACTTTAATGGTGTTGTTATAGAGCGTGTTGGCCAATTCCAGTGGGTCTTCTTCTCTGACTGCTGACATTATCTCCAATATTTGACTAAAACAAAAAACAAGGGATCAACTTACTCAGAATATATTGTTAGAGGTATGTAATCACCTTTTTCTATGTAAACATGAGAAGATCTTACACTAGCACCTCTTCTAAGGAAGTTTATGAGTTACTAAAGTTGTCAGTAATGTCTGTAGGAAAGCATCACCAATTACTGTCAACTAGAAGACTCTGGAGCTAACTGGAATATAAAGTTACAGGGTCACGTAAGGGCACCACTAATGGAATTATCCTATAGGGGAGGCGTCCTTTAAAACTCTAGGTCCTAGCACTTTTGTTCCCGGATCATGAGCATCTTAAAAGTAAAATGAAGTCTGCACAGTAAAACAGGCTAAGTAGGCACCTTCCTACTTTGGATTTAGTTTTTTTTTTTATATTTGTTTTACTATTACTAGTATAACTATTTTATATTTATAAATAAAATATATATGCGTATGTATATATATATTTATATGTAATATGAATAAAATGGTATTGAAGAGAATAGGGCCAAAAATTTGAAAGGCACTGCTTATTCATATAGTCTCTAACAGGCAGCAAGGAATGTTTGTGTGCATGCTAAATCCTTGACAAGTGGACTGGAGAGATGGCTCAGCAGTTAAGAGCACTGACTGGTATTCCAGAGGTCCTGAGTTCAAATCCCAGCAACCACATGGTGGTTCACAACCATCTGTAATGAGATCTCTTGCACTCTGCTGGGTGTCTTAAAACAGCTACAGTGTACTCACATGCATTAAATAAAACAAACAAATATGACAGGTTAGGTGTGGCTGTGGGAGGGGCTCTAGGCTTGTACTTAGAGCAGAGAGAAGAGCTCAGAGACTCATTTCTTTGCTCAAAATGAGCAGTGGGTTCCTAGTAATACTATCTGTTTTTATATATGCATTAGGTTATATACAGGTTGTAGTTCGAATTAAACCTTTAAATATTCCTGGTCACGAGCTTTTTCTCCCATTCTGAGGACCCTAAGTGTGAACACTCAAAAGAACTAGGAATGAGGATTTACAGTTAGCTGGACCTTTACAGGTTGTGGTCAGCGTGACACAGACATTCACATGCAGTCTGTGCAGTGAACTCAGACTGCATCTGTAAGTAGTGCTGCTGCTGGCGGACGGTGGCCAAGGGCACGGCTGCTCTGCTGAGACTTGGGCAGCAGAGCCATTTACTGCTCATGTTTGTTAACGTCACCGGTGCTTGGTAAAGCACTGTTTAGTAAGCCAGTAAGCCAGCAACCTGAACAGTACCTTTTTATTCAGTGCATTTTTCTGTACTTTGAGGAATAAAGCTGCAGTTATTTTTAAGAATAGC'
p130
(I12
S'MAAVGPPQQQVRMAQQQVWAALEVALRVPCLYIIDAIFNSYYDSSQSRFCIGLQIFLRLLGIVVSSIVLILSQRSLFKFYMYSSAFLLAATSVLVNYYAALHIDFYGAYNTSAFGIELLPRKGPSLWMALIVLQLTFGIGYVTLLQIQSIYSQLMILNILVPIIGLITELPLHIRETVVLMSSLILIFNTVLVLAVKLKWFYYSTRYVYLLVRHMYRIYGLQLLMEDTWKRIRFPDILRVFWLTRITAQATVLMYILRMANETESFFISWDDFWDVICNLIISGCDSTLTVLGMSAVISSIAHYLGLGILAFIGSTEEDDRRLGFVAPVLFFILALQTGLSGLRPEERLIRLSRNMCLLLTAVLHFIHGMTDPVLMSLSASHVSSFHRHFPVLFVSACLFILPVLLSYVLWHHYALNTWLFAVTAFCVELCLKVIVSLTVYTLFMIDGYYNVLWEKLDDYVYFVRSTGNIIEFIFGVVMFGNGAYTMMFESGSKIRACMMCLHAYFNIYLQVKNGWKTFMNRRTAVKKINSLPEIKGSHLQEIDDVCAICYHEFTTSARITPCNHYFHALCLRKWLYIQDTCPMCHQKVYIEDEIKDNSNASNNNGFIAPNENPNPEEALREDAAGSDRELNEDDSTDCDDDAQRERNGGIQHTGAAAAAAEFNDDTD'
p131
tp132
sS'CCTGAAGAGACAGTTTTAGCTGGACATGCTGCTGTTGCTGCTGCTGCTGCTGCTGCTCTGGGGGATAAAGGGTGTGGAGGGTCAGAACCCCCAAGAGGGTTTCACCCTGAATGTGGAAAGGAAGGTGGTGGTGCAGGAGGGCCTGTGTGTCCTTGTGCCCTGTAACTTCTCCTATCTCAAGAAGAGGTTGACTGACTGGACTGACTCAGACCCAGTTCATGGATTCTGGTACAGGGAAGGAACCGACAGACGCAAAGATTCCATCGTGGCCACAAATAACCCAATTCGTAAAGCAGTGAAGGAAACCCGGAATCGATTCTTCCTGCTCGGAGAACCTTGGAGGAATGACTGCTCCCTGAACATCAGAGAGATCAGAAAGAAGGATGCGGGGTTATACTTCTTTCGCCTGGAGCGTGGAAAAACAAAGTATAATTACATGTGGGACAAGATGACTCTGGTTGTAACAGCCCTCACTAACACCCCCCAAATTCTTCTCCCGGAGACGCTTGAAGCTGGCCATCCCAGCAACCTGACCTGCTCTGTGCCTTGGGACTGTGGGTGGACGGCACCTCCCATCTTCTCCTGGACTGGTACCTCTGTGTCATTTTTGAGCACCAACACTACAGGTTCCTCAGTGCTAACCATCACCCCTCAGCCTCAGGACCATGGCACCAACCTCACTTGTCAGGTGACCCTGCCTGGAACTGATGTGTCCACAAGAATGACCATCCGTCTCAACGTGTCATATGCTCCAAAGAATCTGACTGTGACCATCTATCAAGGAGCTGACTCAGTTTCCACAATCCTGAAGAATGGCTCATCTCTTCCTATCTCTGAGGGCCAGTCACTGCGTCTCATCTGCAGCACCGACAGCTATCCCCCTGCGAACCTAAGCTGGTCCTGGGATAACCTGACCCTGTGCCCATCAAAGTTGTCCAAGCCCGGGCTCCTGGAGCTGTTTCCAGTGCATCTTAAGCACGGAGGAGTGTATACCTGCCAAGCTCAACATGCCCTGGGCTCCCAACACATTTCCTTGAGCCTGTCTCCACAGAGCAGTGCAACTTTATCTGAAATGATGATGGGGACCTTTGTGGGTTCAGGAGTCACAGCCCTCCTTTTCCTGTCTGTCTGCATCCTCCTCCTGGCAGTAAGATCCTACAGGAGGAAACCAGCCAGGCCAGCTGTGGTAGCTCCGCACCCAGATGCCCTCAAGGTCTCAGTTTCTCAGAATCCCCTGGTTGAATCCCAGGCAGATGACAGCTCTGAGCCCCTGCCTTCCATACTTGAGGCGGCCCCCTCCTCCACAGAGGAAGAGATACATTATGCGACCCTCAGCTTTCACGAGATGAAGCCCATGAACCTGTGGGGGCAACAGGACACTACCACGGAGTACTCAGAGATAAAGTTTCCGCAAAGGACCGCATGGCCATGACCGTGGCTGGAGAAAGCATGGTGGCCCCAGGAGGCTGGCTCTGGAGAAGGAAAGAGTCACCTAGGTTGACATGTGATACACAGGGCTTCAGAGCCATTCCTTCTGTGACACAGGCGTTCTGTGCTGCCCATGCCCCTGTGCTGCCCTGTCCACACAACTGCTATTGTGCCCTGGGAATCATAAGCTTGACCTTTTTACTCCTCTTCTCCCCTTCCCCTCCTTCCCCGCCCCCTCTTCTCCTCCTCCTCTCTCCCCTCTCCTCCCCTCTTCCTTTTGTTTTTTCCAAGACAGGGTTTCTCTGTGTAGCCTTGGCTGTCCTAGAACTTGCTCTGCAGACCAGACTGCCCTTGAACTCTTCTTTCCAAGTGCTGGGATTAAAGATGTGCACCACCACCCAAAAAAAAAAAAAAA'
p133
(I28
S'MLLLLLLLLLLWGIKGVEGQNPQEGFTLNVERKVVVQEGLCVLVPCNFSYLKKRLTDWTDSDPVHGFWYREGTDRRKDSIVATNNPIRKAVKETRNRFFLLGEPWRNDCSLNIREIRKKDAGLYFFRLERGKTKYNYMWDKMTLVVTALTNTPQILLPETLEAGHPSNLTCSVPWDCGWTAPPIFSWTGTSVSFLSTNTTGSSVLTITPQPQDHGTNLTCQVTLPGTDVSTRMTIRLNVSYAPKNLTVTIYQGADSVSTILKNGSSLPISEGQSLRLICSTDSYPPANLSWSWDNLTLCPSKLSKPGLLELFPVHLKHGGVYTCQAQHALGSQHISLSLSPQSSATLSEMMMGTFVGSGVTALLFLSVCILLLAVRSYRRKPARPAVVAPHPDALKVSVSQNPLVESQADDSSEPLPSILEAAPSSTEEEIHYATLSFHEMKPMNLWGQQDTTTEYSEIKFPQRTAWP'
p134
tp135
sS'GCCTGGACAGTGCTGCGGGGTTCTCGCCTGCTCCCAAGCTGGTAGAATCCCCAAAAGAAGGTAAAGGAGGCAAGCCTTCCCCGCCCTCTGGAAAGAGCGCCAAACGGAAAATGGAAGGCCCAAAGAAAGCCCAGGGCCACAGCCCTGTAAATGGCTTGCTGAAAGGGCAGGAGAGTCGAAGTCAAAGCAGGAGTCGTGAGCAGAGCTACTCAAGGTCCCCATCACGGTCTGCTTCTCCAAAGAGAAGGAAAAGTGATAGTGGCTCTACCTCAGGTGGGTCCAAGTCACAGAGTCGTTCTCGGAGCCGAAGTGACTCTCCTCCAAGGCAGGTACACCGAGGTGCTCCCTACAAAGGCTCAGAAGTGAGGGGCTCCCGGAAATCAAAGGACTGCAAGTACCTCACCCAGAAGCCACACAAGTCTCGTAGCCGGAGCTCCTCTCGTTCCCGAAGCCGGTCACGAGAGCGGACGGACAATTCTGGAAAATACAAGAAGAAAAGTCATTACTATAGAGATCAAAGACGTGAGCGCTCAAGGTCATATGAGCGCACAGGCCATCGCTATGAGAGGGACCACCCTGGACACAGCAGGCATCGGAGGTGTGATAGGATCTCTGGTGGCTGCCCTTGGTCCCTCCCTGTTGGGCACACCTTGGCGTCAGTGGCCTTGTAGCATGATGTTTTTCGAAAGTGTTTTTAATTGGACCTTGAGGTGAATTTGATTGATGAGACAGTGGGCAAGGTGCCCTTCAGGCTGGCCTGGGGAGTGCTGTGCATCTGTCCCGGTTAATGGTCCACCTCAACTGCAGACCTTCAGGTAGCTGGATGGAACAGCAAAGGCACACGTCCCCATTGGCGTGGCTTGGTGCTATTGACAAGCTGTCTCTTCACTCCTAAACTGATACTCAATTACGTTAAGCCAAGAAAGATGATTTTTGAAATCTTTGCCTATATTAGGTTGTACTTGTGTACATATTTTGCAGTGGTTCACAATGAGAAAATGGCCTTAATAGCCCCCTTGTTCTCTATTCACGTTGTAAATAAACATGTTTAATACAAGTAAAAGCTATATACGAGAACTCAGAATTTTGATTCTGTTAGCTTAACACTTGTATAGAAAATTGAGATTTTTAAAATGTGAAGGTATTTAGGTCTGTGTTGAAAGTCATATATTTTTATCTGTGCAATGCTGAGTGCAGGCCCTTTAGAGCACACTGGCGGC'
p136
(I44
S'MEGPKKAQGHSPVNGLLKGQESRSQSRSREQSYSRSPSRSASPKRRKSDSGSTSGGSKSQSRSRSRSDSPPRQVHRGAPYKGSEVRGSRKSKDCKYLTQKPHKSRSRSSSRSRSRSRERTDNSGKYKKKSHYYRDQRRERSRSYERTGHRYERDHPGHSRHRRCDRISGGCPWSLPVGHTLASVAL'
p137
tp138
sS'ATGGCTTTCCGGCCCCAGAAAGTGTGCTTATGTCCATATCTCCCAGTGCGCCCACTCCAGATCTCTACCCACTTGTACATAATCCAGCATCCAGCAGAGGAAAGGAGAGTGTTGCGCACAGTCCCTCTGCTAGCAGCATGCCTTCCCCCAGACAGATGCACAGTCAAGATTGGCCGCCGCTTCAGTGAAGAGCGAGATGTTGAACTTGCAACTGTTTGCCGGGACTCTGGTACATTAATATTATATCCAGGGGCTGAAGCTACTAATTTGGAAGAATTTATATTAGATTCTCCTGTTTATCCTTCCACAATCATCCTCATTGATGGTACATGGAGCCAGGCTAAGGACATTTTCTATAAGAATTCCTTGTTCCGACTTCCCAAACAGGTGCAGTTAAAAACTAGCGTTTGTAGTCAGTATGTAATTCGGATGCAACCAACAAACAGGTGCCTTTCTACCCTGGAGTGCGCTGCTGTTGCTCTTTCCATCTTGGAGAAAAACAATTGCATACAAGAGACCCTGCTCCGCCCCCTTCAAGCTCTGTGTTCTTTCCAGCTTCAGCATGGCGCTCAGATTCGCCTCAGCAAGGAATATCTTCTGAGAAACGGATTGTATCCCAAGCCAATGCCAAAGAACAAACGCAAACTCAGGAAGATGGAGCTGTTGATGAACAGTGTTAAAATTTAGCACGTCTGTCCCTGTGGTGCTAGTTTACCTGTCACTGGCTGACAAGACTGTGTTACATCTTCCCAGTCTAGGCTTTCGCTCTGAAGAATCGTTGGCCCATTCTTGTGCTGAAGGACGAGGGCTGCTCCACAGCGCCTTATGGTTCACTTCCGTTGACTGTGAAAAGCAGTTTCACACTGCCTCTCGTTTTGTTTTTGTTTTTGTTTTTGTTGTTTTTGTTTTTTCAATACAAGGTTTCTCTGTGTAGCCTGTAGACCAGGCTGGCCTCAAACTCAGAGATCTGGCTGCTTCTGCCTCCCAAGTTCTGGGCTGAAAAGCATGCCCCACCTCTGTCTAGCTTCTGTATTTGCTTTTAAACATGTGCTTCCAATACTTTTTTTTTTTTTTTAAAGAATCTATTCAAAATACGATTAGTCTAGAGTAAGGAGCTGTTGTTTGTAAAATGAGGAAAATTGTGTCTGGGAACATGTTCCCGTCAGTGTTTATAGGTATGTAGGTGTAGATCACTGATGGAATATACCCCGTGAAACTAATGTTTCAGCCTAGTGAATGAAATTATAAGTGTGAAGTAAGTGACACAGAGGGCAGTTTATGTCATTAAGTAGTGTAAGGGAATAGGGAGACGTTACTGTTTACAGTTGTACTCGGACTCAGCTAATGTGACTCACGTCTTCTGTTAGCATCTGAATTCCTGTGGAGACATATAATTTTGAAATAACCTGCATTCTCTATGGGGGATGCTGTGCATAACTTTCAGTGTTCACTGAGCAAGCTAACTGGTGGTAAGAGGTTTTTGATGAAGTTTCTACATGGAAATGACTGAAGTAAATTATAATAAAGCTATCATTTTAAGAACATATTTCTATAAGTAGCTCTACTTACTTTTTTTTTTTTTTTTTTTTAAAGAAAAACAACTTTCAATGTGGAAGATACATGCCCTTACCTTATTTGGAGAATATTTACTGATATTTTGTATAGAAAAAGAGAAATTTATACATTTTATATTTATATCCAATTTACAGTTAAGCATACACTTTGGCAAGATCACGATGTTTCATTTTGACTGTTGTTCACAATTGCTAAGGTTTCCTAAATTCAGGGTGACAGTGGAAGGGAGAGTCAAGCATGACTTAGTTTGTGATCTTTAGTTGTGATTTTGATAAATACCTCTGTGTGTGGCATGAACACACACCAGTTTCTGATTATTTTTATGCTTTTTTTGTTTGTTTGTTATTGGGTTAGATCAGACACTCATTAAGAACTTGGCTGGTCCTAATTAGAATGCTAACAGATATGTAGCATGTTACAGAAAGATATTAAAATTTAGGTTTGTCTTAAGTTGCTGACTTATATTTGCATTTAAAAATAAGTCGGTCTTTTATAACCTAAATGTCTAGTATCAATTGAATATTTATATAATAATGAAATAGTAGTATTATGTATAATGGTTTCTTAAGGAATGAGTTAAAATCATCTCATAATAATTTTTTATGTTGAAAATAAACTTTATAAAATCTTTTGAGTGCTATGATTGCTCTTTAAGAACAATCTGACAAATGATACTATTTATATTTCCAAACATCAATTTGTGTTTACCATTTAGAATAACTTTTATGTTTTAAACATAATACTTAAATACTTAAAGTTTATTACTTTGGCTACATATTTTTTCTTTCTTTCTTTTTTAAGAAGATATATCTAGATAGAAGAAAGATGGCAGAGTTGAGATACTTGGCACTTTGATGCATCTGTGAATCCTAACAGCATCAGATACATGGCTACAGGGTGTGGGGAGTGACATGTAAAGTCAGGAGTTTAGCAGCAGACAGAGATTAGGCAAATCCAGAAAAACCAGAAGTTTAGATTTGTTGAAGAAATTGGACCCTAAGGTGGTATGTGTTGGGAGCCGCCCCCACATTCGCCGTCACAAGATGGCGCTAACATCCTGTGTTCTAAGTGGTATACAAATAATCTGCGCATGTGCCAAGAGTAATTTTCCACTACATGTACTCTGCCTTTACTCGGCCATGGGCTGCAGCCAATCAGGGAGTGATGCGTCCTAGGCGAAGGATAACTCTCCTAAATAGGGACAGGGTTTCGCTTTCGTTTTTGGGGGCTTTCGTTTTTGGGCTTGGGGCTTGCGCTCCTGGCTCCTGAAGATGTAAGCAATAAAGTTTTGCCGCAG'
p139
(I24
S'MAFRPQKVCLCPYLPVRPLQISTHLYIIQHPAEERRVLRTVPLLAACLPPDRCTVKIGRRFSEERDVELATVCRDSGTLILYPGAEATNLEEFILDSPVYPSTIILIDGTWSQAKDIFYKNSLFRLPKQVQLKTSVCSQYVIRMQPTNRCLSTLECAAVALSILEKNNCIQETLLRPLQALCSFQLQHGAQIRLSKEYLLRNGLYPKPMPKNKRKLRKMELLMNSVKI'
p140
tp141
sS'GTATTGACGTTACAAATGGTTGTAAGCCACCATGTGAGTGAGTATTGGGAACTAAAGCTGTGTCCTCTGCAAAGACCAGCAAGTGAGCGCTCTTAACTGCTGAGCTCTTTCTCCAGGCCTGAGGGGGAACCCTTTTCTTTTATTAAATGTTTTTTATTTTTGCACTGGATGCATGCCAGCCTCTGCTTTTGAGGGTTCTATGTGCCACGATATAGGGAGGGCCTCCTTTCTCTTTCTGATATTCCTAGAATTTGGCCTGGGCTAGAAACATGAGGTACACTCAGGCTGCTGTGCAGCCTCACACTTCATGTTTGGGTAAATTTTCTTTGTTTTAAGTTTTCTACTCTGTCCCTTGATCTCTCTGCTTACCTGGCTGTTGCTGGGGTTTCAGGTGTGCCGCCCTCCGTGTCTGCTGCAGCAGCACGTGTGGCTGGCTTCTCCTCCAAAACTTCCCCATCGTCTCCCACTGCAGGTGTCTTGCCCCCAGCCATCTTTGAAGCCACTTGTTTTGCCCAGCAGACCTTCTTGAGCTTTTCCTGTGGTTTCTCACCACAGAGTCTGACACCATGGGGGGTTCTGGATAGTGGCTCATCACCTGAACTGCAGGCTGATGTCTCTCGAGTCCTCAGCACCTGACAGTGTGGGTCCCTCGGGAAATAAAGGGAATGGCCAGTGCTTCTCAGACCCTAGGGTGGGGTTTCTGGGTAACCTAGGTGCCATGAAAGAGGCGAGGCCTTCCCCTCTGCTGGGCCAGGTATGACTCTGAGAGGCCCTTCTCACATCTTTCCTAGGCCAGGCGGATGTCATCAGAGCACCGTGGAGCTGCTGAAGCAAGAGTCCCGATGGGTGTTTGAGAATCCCTCTCTGGGTATATTGGATTATCGGGTACTGGGCACTAACTTCAAAGACTACGCTGTCGTCTTCACACAGCTGGAATTTGGGGATGAGGTCTTCAACACAGTGTCGTTGTACAGTCGGACAGAGATGGCTAGCCACGAAGCCATGCAGCTATTCACCAAATGGAGCCAGGGGCTGGGCTTCTTGTCTCAACAGCAGGCTCAGCTGCAGAAGGACCTTTCTTCAACAGAGGCTTGTGGGTGGGATCCTGGGAACTGCTAAGCCCCATTCTCACAACTGGCTCGCTTCTTCTACAGTCACTTGTGCACACAAGATCCTCCAGTGAGTGCCACACCCTGGATATAGCACCACAGCATCCTGGCATCCTGGTGGAGGTGGGCAGGCACGGTCTTTGCACAGTGGCTGGTGGTACTGGCGCTGATTGGCTGCTCTCCTAGGCTCTTGCTTGGGTTCAAAATAAAATGATTTCACAAGT'
p142
(I26
S'MTLRGPSHIFPRPGGCHQSTVELLKQESRWVFENPSLGILDYRVLGTNFKDYAVVFTQLEFGDEVFNTVSLYSRTEMASHEAMQLFTKWSQGLGFLSQQQAQLQKDLSSTEACGWDPGNC'
p143
tp144
s(dp145
S'0005794'
p146
(I9
S'Golgi apparatus'
p147
tp148
sS'0005737'
p149
(I2
S'cytoplasm'
p150
tp151
sS'0005783'
p152
(I5
S'endoplasmic reticulum'
p153
tp154
sS'0005886'
p155
(I8
S'plasma membrane'
p156
tp157
sS'0005856'
p158
(I4
S'cytoskeleton'
p159
tp160
sS'0005764'
p161
(I7
S'lysosome'
p162
tp163
sS'0005777'
p164
(I3
S'peroxisome'
p165
tp166
sS'0005739'
p167
(I6
S'mitochondrion'
p168
tp169
sS'0005576'
p170
(I1
S'extracellular region'
p171
tp172
sS'0005634'
p173
(I0
S'nucleus'
p174
tp175
s(dp176
I0
(lp177
I0
aI1
aI2
aI3
aI4
asI1
(lp178
I2
aI3
aI5
aI6
aI0
asI2
(lp179
I1
aI7
aI5
aI2
aI6
asI3
(lp180
I8
aI9
aI7
aI5
aI6
aI2
asI4
(lp181
I0
aI2
aI3
aI5
asI5
(lp182
I8
aI1
aI3
aI5
aI9
asI6
(lp183
I0
aI6
aI3
aI2
aI5
aI1
asI7
(lp184
I0
aI2
aI6
aI8
aI5
asI8
(lp185
I2
aI3
aI0
aI5
aI6
asI9
(lp186
I0
aI2
aI6
aI8
asI10
(lp187
I1
aI3
aI5
aI9
asI11
(lp188
I8
aI1
aI5
aI2
asI12
(lp189
I8
aI5
aI7
aI0
aI2
aI1
aI6
asI13
(lp190
I0
aI2
aI6
aI9
asI14
(lp191
I2
aI3
aI6
aI5
aI8
asI15
(lp192
I0
aI3
aI2
aI8
asI16
(lp193
I1
aI8
aI7
aI5
aI3
asI17
(lp194
I6
aI0
aI2
aI1
aI3
aI5
asI18
(lp195
I8
aI2
aI3
aI5
aI1
aI0
asI19
(lp196
I8
aI2
aI3
aI0
aI5
aI9
asI20
(lp197
I0
aI2
aI6
aI5
asI21
(lp198
I6
aI0
aI2
aI3
aI1
asI22
(lp199
I1
aI0
aI3
aI2
asI23
(lp200
I8
aI3
aI6
aI2
aI0
asI24
(lp201
I1
aI6
aI0
aI3
aI2
asI25
(lp202
I1
aI8
aI6
aI3
aI2
aI5
asI26
(lp203
I1
aI2
aI3
aI5
aI9
aI0
asI27
(lp204
I0
aI2
aI3
asI28
(lp205
I1
aI8
aI7
aI5
asI29
(lp206
I8
aI3
aI2
aI6
aI5
aI0
asI30
(lp207
I0
aI1
aI2
aI8
aI3
asI31
(lp208
I0
aI2
aI6
aI8
aI9
aI3
asI32
(lp209
I2
aI6
aI0
aI8
aI5
aI1
aI9
aI3
asI33
(lp210
I8
aI1
aI3
aI5
aI2
asI34
(lp211
I0
aI8
aI2
aI5
asI35
(lp212
I0
aI2
aI3
aI1
asI36
(lp213
I1
aI3
aI2
aI8
aI0
asI37
(lp214
I2
aI3
aI0
aI5
asI38
(lp215
I0
aI2
aI6
aI3
aI1
aI7
asI39
(lp216
I0
aI6
aI5
aI3
aI1
aI2
aI8
asI40
(lp217
I0
aI2
aI6
aI3
aI5
asI41
(lp218
I0
aI2
aI3
aI5
asI42
(lp219
I8
aI2
aI3
aI0
aI5
asI43
(lp220
I0
aI2
aI6
aI3
aI5
asI44
(lp221
I0
aI2
aI3
aI5
asI45
(lp222
I1
aI3
aI2
aI0
aI5
aI8
asI46
(lp223
I2
aI0
aI3
aI6
aI5
as(dp224
I0
(lp225
I0
asI1
(lp226
I0
asI2
(lp227
I0
asI3
(lp228
I0
asI4
(lp229
I0
asI5
(lp230
I0
asI6
(lp231
I0
asI7
(lp232
I0
asI8
(lp233
I0
asI9
(lp234
I0
asI10
(lp235
I0
asI11
(lp236
I0
asI12
(lp237
I0
asI13
(lp238
I0
asI14
(lp239
I0
asI15
(lp240
I0
asI16
(lp241
I0
asI17
(lp242
I0
asI18
(lp243
I0
asI19
(lp244
I0
asI20
(lp245
I0
asI21
(lp246
I0
asI22
(lp247
I0
asI23
(lp248
I0
asI24
(lp249
I0
asI25
(lp250
I0
asI26
(lp251
I0
asI27
(lp252
I0
asI28
(lp253
I0
asI29
(lp254
I0
asI30
(lp255
I0
asI31
(lp256
I0
asI32
(lp257
I0
asI33
(lp258
I0
asI34
(lp259
I0
asI35
(lp260
I0
asI36
(lp261
I0
asI37
(lp262
I0
asI38
(lp263
I0
asI39
(lp264
I0
asI40
(lp265
I0
asI41
(lp266
I0
asI42
(lp267
I0
asI43
(lp268
I0
asI44
(lp269
I0
asI45
(lp270
I0
asI46
(lp271
I0
astp272
.