((dp0
S'Mouse'
p1
(I0
g1
tp2
s(dp3
S'GGAGAGCGTGTTGCCAGGGCCCGAAGAGGGCTGGTGGCGGCGGTCTCGCTCGGCTCTTGGTTCTTTGCTGAAGAATTTGGCCACAAAGAGTTGCCAAGATAGCTGGGCCGGGAAGAAAGCGCCGCAGCCCTGACCCAGACGCTGTTGCCGACTCTGGGCCACTCTGGCTGGCTACCAAGCGGCTCAAGATGTCTGCAGGGGCCAGTGCTACAGGGCCCAGGAGGGGGCCGCCAGGACTGGAAGAGGCCACTAGTAAGAAGAAACAGAAGGATCGAGCAAACCTGGAAAGTAAAGATGGAGATGCTAGGAGAGTGTCCCTTCCTCGAAAGGAACCAACCAAAGATGAATTGTTGCTCGATTGGAGGCAGAGTGCAGATGAGGTGATTGTTAAGCTGCGCGTGGGAACAGGTCCCGTACGTCTGGAGGATGTAGATGCTGCGTTCACAGACACGGACTGTGTGGTGAGGCTTCCAGATGGTCGGCAGTGGGGTGGTGTCTTCTTTGCTGAAATACAAAGTTCTTGCACCAAAGTGCAGGCTCGCAAGGGTGGTCTTCTACAGCTAGTACTACCCAAGAAGGTGCCTCTGCTCACGTGGCCCTCTCTCCTGAAGAAACCTCTGGGAACCCAAGAGCTGGTGCCAGGTTTGCAGTGCCAGGAGAACGGGCAAGAGCTGTCTCCCATTGCCCTGGAGCCAGGCTCTGAGCCCCGCAGAGCTAAACAGGAAGCCCGAAACCAGAAGCGGGCCCAGGGCCGTGGTGAGGTAGGCTCGGGGGCTGGCCCTGGGACACAGGCAGGGCCCAGCGCCAAGAGGGCTGTTCACCTCCGCAGAGGGCCAGAAGGGGAAGGGTCCATGGATGGCCCCGGCCCCCAGGGTGATGCCCCGTCTTTCCTGTCTGACTCAGCTACCCAGGTTGAGGCTGAGGAGAAGCTCTGTGCTCCACCAATGAACACTCAAACAAGTCTCTTGAGCTCAGAGAAGAGTTTAGCCCTTCTGACAGTAGAGAAGACAGTGTCCCCCAGGAATGACCCAGTCGCCCCGGTTATGGTCCAGGACAGAGACCCTGAGCCTGAGCAAGAAGACCAAGTCAAAGAGGAGATGGCACTTGGGGCTGATCCTACAGCCTTGGTGGAGGAACCAGAGTCTATGGTGAACCTGGCATTTGTCAAGAACGACTCGTATGAGAAGGGCCCGGATTCGGTGGTGGTGCACGTGTACGTGAAGGAGATCCGCAGGGACAGCTCCCGAGTGCTCTTCCGAGAGCAGGACTTCACACTGATCTTCCAGACCAGGGACGGAAACTTTCTGAGGCTGCATCCGGGCTGTGGGCCCCACACCATCTTCCGATGGCAGGTGAAGCTCAGAAACTTGATTGAACCAGAGCAGTGTACGTTCTGTTTCACGGCCTCTCGAATCGATATCTGCCTCCGGAAGCGGCAGAGTCAGCGCTGGGGGGGACTGGAGGCCCCTGCTACACGAGTGGGTGGTGCAAAGGTTGCCGTGCCGACAGGCCCAACCCCTTTGGATTCAACCCCTCCAGGAGGTGGCCCCCACCCCCTGACAGGCCAGGAGGAAGCCAGGGCTGTGGAGAAGGAAAAACCCAAGGCTCGATCAGAGGACTCAGGGCTGGATGGTGTGGTGGCCCGCACCCCCTTGGAGCATGTAGCCCCAAAGCCAGACCCACACTTGGCCTCGCCCAAACCCACGTGTATGGTGCCTCCAATGCCGCACAGTCCAGTTAGTGGGGATAGTGTGGAGGAGGACGAAGAGGAAGAGAAGAAGGTGTGCCTGCCAGGCTTCACTGGCCTTGTCAACTTAGGGAACACCTGCTTCATGAATAGCGTCATTCAGTCTTTGTCCAACACTCGGGAACTTCGTGACTTCTTTCACGACCGATCCTTTGAAGCTGAGATTAACTACAATAACCCATTGGGGACTGGTGGGCGCCTCGCCATTGGCTTTGCTGTGCTGCTCCGGGCCCTATGGAAGGGCACTCACCAAGCCTTTCAGCCCTCCAAGCTAAAGGCCATTGTGGCAAGCAAGGCCAGCCAGTTCACAGGCTATGCACAGCATGATGCTCAAGAGTTCATGGCTTTCTTGTTGGATGGGCTACATGAAGACCTCAATCGAATCCAAAACAAACCCTACACAGAGACTGTGGACTCGGACGGGCGGCCCGATGAGGTGGTAACCGAGGAAGCATGGCAGCGGCACAAGATGAGAAATGATTCATTCATTGTGGACCTGTTTCAGGGCCAGTACAAGTCAAAGCTGGTGTGCCCTGTGTGTGCCAAGGTCTCCATCACTTTTGACCCGTTCCTTTATCTGCCGGTACCCTTGCCACAAAAGCAAAAGGTTCTCCCCATATTTTATTTTGCCAGGGAGCCCCACAGCAAGCCCATCAAGTTCCTGGTGAGTGTCAGCAAGGAGAACTCCAGCGCGAGTGAAGTGTTGGACTCCCTCTCTCAGAGTGTCCACGTGAAGCCTGAGAACCTGCGCCTAGCCGAGGTAATTAAGAACCGTTTCCACCGTGTTTTCTTGCCCTCCCACTCACTGGACGCTGTGTCCCCCACGGACGTGCTCCTCTGCTTTGAGCTGCTCTCCCCAGAACTGGCTAAGGAGCGGGTAGTAGTGCTGGAGGTGCAGCAGCGCCCCCAGGTACCCAGCATCCCTATCTCCAAGTGCGCAGCCTGCCAGCGGAAGCAGCAATCAGAAGAAGAAAAGCTGAAGCGCTGTACCCGTTGCTACCGTGTGGGCTACTGCAACCAGTTCTGCCAGAAAACCCATTGGCCTGACCACAAAGGCCTCTGCCGCCCTGAGAACATTGGCTACCCCTTCCTGGTCAGTGTGCCTGCTTCACGCCTCACTTATGCCCGTCTTGCTCAGCTACTAGAAGGTTATGCCAGGTACTCTGTGAGTGTATTCCAACCGCCCTTCCAGCCTGGCCGCATGGCTTTGGAATCGCAGAGCCCTGGCTGTACCACGTTGCTTTCAACCAGCTCTCTGGAGGCTGGGGACAGTGAAAGAGAACCCATTCAGCCTTCTGAGCTCCAGCTGGTGACCCCTGTGGCTGAAGGGGATACAGGGGCTCACCGAGTATGGCCGCCTGCTGATAGGGGTCCTGTGCCTAGCACCAGTGGACTCTCTTCTGAGATGCTGGCCAGTGGGCCTATCGAAGGTTGTCCCTTGCTTGCTGGTGAGAGGGTATCTCGGCCTGAAGCTGCTGTGCCTGGGTACCAACACTCAAGTGAATCTGTGAATACCCACACGCCCCAGTTCTTCATCTATAAAATTGATGCATCAAACCGTGAGCAGCGGCTGGAGGACAAAGGGGAGACACCATTGGAGCTAGGTGATGAGTGTAGCCTGGCTCTGGTGTGGCGGAACAATGAACGCCTGCAGGAGTTTGTGTTGGTAGCCTCCAAGGAGCTGGAATGTGCTGAAGATCCAGGCTCTGCTGGTGAGGCTGCCCGTGCTGGCCACTTCACCCTGGACCAGTGCCTCAACCTCTTTACACGGCCTGAAGTGCTGGCACCTGAGGAGGCCTGGTACTGCCCACAGTGCAAACAGCATCGTGAGGCCTCCAAACAGCTGCTGTTGTGGCGCCTACCGAACGTGCTGATTGTGCAGCTCAAGCGCTTCTCCTTTCGTAGTTTCATTTGGCGAGACAAGATCAATGACTTGGTGGAGTTTCCTGTTCGGAACCTGGACTTGAGCAAGTTCTGTATCGGTCAGAAAGAGGAGCAGCTGCCTAGCTATGACCTGTATGCTGTCATCAACCACTACGGAGGCATGATCGGTGGCCACTATACTGCTTGTGCACGGCTGCCCAATGATCGCAGTAGCCAGCGCAGTGACGTGGGCTGGCGCTTGTTTGATGACAGCACGGTGACAACAGTAGACGAAAGCCAGGTCGTGACGCGCTATGCCTATGTTCTCTTCTACCGTCGTCGGAACTCTCCTGTGGAGAGACCCCCCAGGGCAAGTCACTCTGAACACCACCCAGACCTAGGCCCTGCAGCTGAGGCTGCTGCCAGCCAGGGACTAGGCCCTGGCCAGGCCCCCGAGGTGGCCCCCACGCGGACAGCCCCTGAACGCTTCGCCCCCCCTGTGGACCGCCCAGCCCCCACGTACAGCAACATGGAGGAGGTCGATTAGCAGGTCCCTGGCTGATGGAGGGACTGGGTTTGGGAGGTCCCCTACAGAGGGCCATCTCTGACATTTTTTTCTTCTGTCACTCAGAGGACACTGGCTCTACCAATGGGAATTTGGGGGGACATGATTTGAGGGTGGGAACCTCGCAAGTTGTGACCTCTTGTTAACTTGGTCCCCAGATTAGTAGGCCTTGGCCTTTCCAGCTGCCTTCAGTGCTGCGTGTTTGGTTCTCAGTTGTACCTTCAATTCTTTCTGACCTGCATTACAAACATTATAATTTTATTCTAAAAATTGTAATTTTTTGCATTTTGGAAGTGACTGCTGCTGTTTAAATATATTTTAAAAATAAATAATAAATAAGCCG'
p4
(I20
S'MSAGASATGPRRGPPGLEEATSKKKQKDRANLESKDGDARRVSLPRKEPTKDELLLDWRQSADEVIVKLRVGTGPVRLEDVDAAFTDTDCVVRLPDGRQWGGVFFAEIQSSCTKVQARKGGLLQLVLPKKVPLLTWPSLLKKPLGTQELVPGLQCQENGQELSPIALEPGSEPRRAKQEARNQKRAQGRGEVGSGAGPGTQAGPSAKRAVHLRRGPEGEGSMDGPGPQGDAPSFLSDSATQVEAEEKLCAPPMNTQTSLLSSEKSLALLTVEKTVSPRNDPVAPVMVQDRDPEPEQEDQVKEEMALGADPTALVEEPESMVNLAFVKNDSYEKGPDSVVVHVYVKEIRRDSSRVLFREQDFTLIFQTRDGNFLRLHPGCGPHTIFRWQVKLRNLIEPEQCTFCFTASRIDICLRKRQSQRWGGLEAPATRVGGAKVAVPTGPTPLDSTPPGGGPHPLTGQEEARAVEKEKPKARSEDSGLDGVVARTPLEHVAPKPDPHLASPKPTCMVPPMPHSPVSGDSVEEDEEEEKKVCLPGFTGLVNLGNTCFMNSVIQSLSNTRELRDFFHDRSFEAEINYNNPLGTGGRLAIGFAVLLRALWKGTHQAFQPSKLKAIVASKASQFTGYAQHDAQEFMAFLLDGLHEDLNRIQNKPYTETVDSDGRPDEVVTEEAWQRHKMRNDSFIVDLFQGQYKSKLVCPVCAKVSITFDPFLYLPVPLPQKQKVLPIFYFAREPHSKPIKFLVSVSKENSSASEVLDSLSQSVHVKPENLRLAEVIKNRFHRVFLPSHSLDAVSPTDVLLCFELLSPELAKERVVVLEVQQRPQVPSIPISKCAACQRKQQSEEEKLKRCTRCYRVGYCNQFCQKTHWPDHKGLCRPENIGYPFLVSVPASRLTYARLAQLLEGYARYSVSVFQPPFQPGRMALESQSPGCTTLLSTSSLEAGDSEREPIQPSELQLVTPVAEGDTGAHRVWPPADRGPVPSTSGLSSEMLASGPIEGCPLLAGERVSRPEAAVPGYQHSSESVNTHTPQFFIYKIDASNREQRLEDKGETPLELGDECSLALVWRNNERLQEFVLVASKELECAEDPGSAGEAARAGHFTLDQCLNLFTRPEVLAPEEAWYCPQCKQHREASKQLLLWRLPNVLIVQLKRFSFRSFIWRDKINDLVEFPVRNLDLSKFCIGQKEEQLPSYDLYAVINHYGGMIGGHYTACARLPNDRSSQRSDVGWRLFDDSTVTTVDESQVVTRYAYVLFYRRRNSPVERPPRASHSEHHPDLGPAAEAAASQGLGPGQAPEVAPTRTAPERFAPPVDRPAPTYSNMEEVD'
p5
tp6
sS'CGGCCACTTGGAGCAGCTCTGCCGCGGGGACTGCACTGTCCGCCCTGCCAGACCCGCCCCGACTGGGGCTCGCCGTCGCCAGCAGTCAGCACTGCGACCTCGGGCCCTTCGCCGGCTATGGCTGCGTCCTGGGGCTGAGCCCGCAGGTTGTGTGACCAAGATTCGCAAAGAAAGAGAGAGAGAGACCGATACAGAAAGAGAAGAAGGAGGGGCGGGCTCCTGGCAAGGCGTTTGCTCCTGAGCAGAGTCCTGCAAAGATGGAGAAGGAGGAAGAGACAACCCGGGAGCTGCTGCTGCCCAACTGGCAGGGCAGTGGTTCCCACGGGCTGACCATTGCCCAGAGGGATGATGGAGTCTTTGTTCAGGAGGTGATGCAGAACTCCCCTGCGGCCCGCACTGGGGTGGTCAAGGAGGGGGACCAGATTGTGGGTGCCACCATCTACTTTGACAACCTGCAGTCTGGTGAGGTGACCCAGTTGCTGAATACCATGGGGCATCACACTGTTGGCTTGAAGTTGCACCGTAAAGGGGACCGTTCCCCTGAGCCTGGACAGACCTGGACCCATGAAGTCTTCAGTTCCCGTAGCTCTGAAGTGGTTCTGAGCGGGGATGATGAGGACTACCAGCGCATCTACACCACGAAGATCAAGCCACGCCTGAGGTCGGAGGATGGAGTAGAAGGGGACCTTGGGGAGACCCAGAGCCGCACCATCACAGTGACTAGAAGGGTTACAGCCTACACTGTGGATGTGACCGGTCGGGAAGGAGTGAAGGACATTGACATCACCAGCCCTGAGTTCATGATCAAGATACCAAGGCATGAAGTGACTGAAATCTCCAACACAGATGTGGAAACCCAGCCAGGGAAAACGGTGATCCGACTGCCATCGGGATCCGGGCCAGCCTCTCCAACCACAGGCTCTGCTGTGGATATCCGGGCAGGTGCCATTTCTGCTTCAGGACCAGAGCTTGAAGGTGCTGGCCACTCAAAATTCCAGGTCACTGTGCCTGGGGCAAAGGTGGGAAGCCTAGATGTCAATGTCAAAGCAAAAGGCTTGGACTTGGGTGGCAAAGGAGGGATCCGAGTTCCAGGAGTAGACGTTTCGTCTTCTCTTGGGGCTGGCTCAGTAGAGGTACAGGCCCCATCCCTCCAGAGTGGTGATATTGGGAAAATTAAAATTCCTACCATGAAGGTGCCAAAATTTGGTGTCTCCGCAGGTCTGGATGGCCAGATTCCAGAGGTAGGGCTGAGTGTTTCTGCACCTGAATCCTCTGTGGGACACAAGGGTGACAAGCCAGGCTTGGCTATTGGGGGAAACATCCAGGCTCCTCACCTGGAAGTAAATCCCTCCTCTGTCAATATTGAGGGGCTTGAGGGGAAACTGAAGGGTCCCCAGATCACTGGGCCATCACTTGAAGGTGACTTAGGCCTGAAAGGTACCAAGCTGCAAGGGAACATAGGAATGGATGCCTGTGCTTCCAAAATCGAGGGCAGCATCACTGGTCCTAGTGTGGAAATCGGAACCCCTGATGTTGATGTTCATGGGCTAGGGGGCAAACTGAATATGCCCAAGATGAAAGTCCCTAAGTTCTCTGCATCAGGTTCAAAGGGAGAGGGGATTGGCCTTGATGTGGCACTGCCCACAGGTGAAGTGACCCTTCCTGGGGTCTCTGGGGATGTAAGTCTGCCTGAGATTGCTACTGGTGGGCTCGAAGGGAAGATGAAGGGTGCTAAAGTCAAGACTCCTGAAATGATCATCCAGAAACCTAAAATCTCCATGCAGGATGTGGATCTGAGCCTGGGGTCCTGTAAACTGAAAGGAAATATGAAGACATCTGCTCCTGAGGTGAAAGGTGATGTTAAAGGCCCTCAGATGGCAGTTAAAGGCTCCAGAGTGGACATAGAGACACCAAACTTAGAGGGGACCTTGACAGGTCCCAAGATCAGCAGCCCTTCTGGAAAAATAGGGGCCTGTAGGATTTCTATGGCAGATGTAGACTTAAATGTAGCTGCACCTAAAGGGAAAGGGGGTGTAGATGTCATTCTCCCCAATGTAGAAGGAAAAGCCAAAGGTCTTGAAGTTGATGTCAAAGGCCCCAAAATGGACATCAGTGCTCCAGATGTAGAAGTCCATGGTCCAGAATGGAATTTGAAGATGCCCAAGTTCAGTGTCCCAGGAGTCAAAGGAGAAGGCCTAGATGTAAATGTTACTCTGCCCGAAGGAGATATTAGTATTTCGGGGCCTAAGGTCAATGTAGAAGCTCCAAACGTCAACATGGAGGGTCTGGGTGGCAAACTTAAAGGCCCTGACATTAATCTTCCTGAAGTAAGTGTCAAGACTCCAAAGATTTCTATGCCTGATGTGGATCTGCATATCAAAGGGCCAAAGGTGAAGGGAGAGTATGAAGTAACACCACCAAAGCTTGAGGGGGAACTGAAAGGCTCCAAAGTGGACATTGACACCCCACAAGTGGATGTTCATGGCCCAGACCTGAAGATTCCCAAGATGAAAATGCCCAAATTCAGTGTGCCAGGGTTCAAAGCAGAGGGCCCAGAAGTGGATGTGAACCTGCCCAAGGCTGACCTTGACATTTCTGGGACTAAGGTGGAAGTCAGTGCTCCAGATGTAAGCATTGAAGGATCAGAAGGGAAGTTGAAAGGGCATAAGTTTAAAATGCCTGAAATGAATATCAGAGCTCCAAAGATCTCCATGCCAGATGTGGACTTACACTTAAAAGGCCCCAATGTAAAGGGAGAATATGATGTCACAGTGCCAAGGGCAGAAGGTGAGATTAAAGTTCCTGATGTTGAACTTAAAAGTGCTAAACTGGACATTGATGTTCCAAATGTGGATGTTCAAGGTCCTGAATTGCATATGAAGATGCCCAAGATAAAAATGCCCAAGTTTGGCATGCCAGGCTTCAAGGCAGAGAGCCCAGAAATGGAGGTGAATCTCCCAAAGTCTGACATTGATGTCTCAGGACCCAATGTGGATGTCAAAGTTCCAGATGTGAACATTGAAGGACCTGAAGGAAAGCTGAAGGGTCCTAAGCTGAAGATGCCTGAGATGAACATCAAGGCCCCAAAGATATCCATGCCTGATGTGGATTTGCATATGAAAGGCCCCAAAGTTAAAGGAGAATATGATGTCACAATGCCAAAGCTGGAAGGAGACTTGAAAGGCCCCAAAGTAGATGTCAGTGTTCCAGATGTTGATGTTCATGGTCCCGACTGGAACTTGAAAATGCCAAAGATTAAAATGCCCAAATTCAGCATGCCTAGTCTCAAAGGTGAAGGCCCAGAGTTGGATGTGAACATGCCCAAGGCTGATGTGGACATTTCTGTACCAAAGCTAGATATTAGTGCTCCAGATCTGAACCTTGAGGGACCAGAAGGGAAGTTGAAAGGCCCCAAATTTAAGATGCCTGAGATGCACTTCAAGGCTCCAAAGGTGTCTCTACCAGATGTGGATCTGGATCTCAAAGGACCCAAAATGAAAGGAAATCTAGACATGTCTGCACCAAAAATAGAGGGAGAGATGAAAGCTCCAGATGTGGACATTAAAGGTCCAAATGTAGATATTAAAGCACCAGAAGTGGATGTGCAAGGCCCAGAATGGAGCCTGAAGATGCCAAAGATGAAAATGCCCAAGTTCAGTATGCCTACTCTCAAAGGTGAGGGTCCAGATGTGGATGTGAGCTTGCCTAAGGCTACTATTGATGTCTCAGGACCTAAACTTGACATTGAAACCTCAGATGTGAGCCTTGAGGGACCAGAAGGAAAGCTGAAGGGCCCCAAGTTTAAGATGCCTGACATGCACTTCAAGGCACCCAAGATCTCCATGCCTGATGTGGACTTAAACATGAAGGGCCCCAAAGTCAAGGGGGACATGGATGTGACAGTGCCCAAGATAGAAGGTGAAATGAAAGTGCCAGATGTGGATATCAAAGGCCCTAAAGTGGACATCAGTGCCCCAGATGTGGATGTACAAGGCCCAGACTGGCACCTGAAGATGCCCAAGATGAAAATGCCTAAGTTCAGCATGCCTGGCTTCAAAGCAGAGGGCCCAGAAGTGAGCCTGCCCAAGGCTGACCTTGATGTCTCAGGACCCAAGGTGGACATTGATGTTCCTGATGTGAATATTGAAGGTCCAGATGCAAAGCTGAAGGGCCCCAAGTTCAAGATGCCTGAGATGAACATCAAGGCTCCAAAGATCTCCATGCCAGATTTACATCTTAAGGGTCCCAAAGTGAAGGGTGATGTAGATGTTTCCCTGCCCAAAGTGGAAGGTGACCTCAAAGGCCCAGACATTGACATCAAAGGTCCCAAAATGGACATCAATGCTCCAGATATGGACGTGCAGGGCCCAGACTGGCACCTGAAGATGCCCAAGATGAAAATGCCCAAGTTCAGCATGCCTGGCTTCAAAGCAGAGGGCCCAGAAGTGGATGTGAATCTGCCCAAGGCTGACATTGATGTCTCAGGGCCCAAAGTTGATATTGAGGCCCCAGATGTGAGCATCGAGGGACCAGAAGGGAAGCTGAAGGGCCCCAAGTTTAAGATGCCTGACATGCACTTCAAGGCCCCCAAGATCTCCATGCCTGATGTGGACTTGAATATTAAGGGGCCCAAAGGAAAAGCAGATGTGGATGCATCATTGCCTGAGGTAGAAGGTGGAGTAAAAGTGCCAGATGTGGACATTAAAGGACCCAAAGTTGGCATTGATGCTCCAGATGTTGAGGTTCATGGCCCAGACTGGCACCTTAAGATGCCCAAGGTGAAAATGCCCAAGTTCAGCATGCCTGGCTTCAAAGGAGAAGGTCCAGAAGTAGACATCCCCAAGGCCAACATTGATGTTTCAGGACCCAAGGTAGACATCGATGTTCCAGATGTAAATATTGAAGGTCCAGATACAAAACTAAAAGGTCCAAAATTTAAGATGCCAGAAATGAACATAAAGCCTCAGAAGATATCCATGCCAGATGTTAGCTTGAATTTGAAAGGCCCTAAGGTAAAAGCAGATTGTGATGTCTCAGTTCCAAAAGTGGGAGGAGAAATAAAAGCTCCTGCTGTTGACATCAAAGGTCCTAAAGTAGAGGCACCAGATGTGGAAGTTCATGGCCCAGACTGGCACCTGAAGATGCCCAAGGTCAAAATGCCTAAGTTCAGCATGCCTGGCTTCAAAGGAGAGGGTGCAGAAGTAGATGTGAATCTTCAAAAGGCCAATATTGATGTCTCAGGACCCAAGGTGGACATTGATGTTCCAGATGTGAATATTGAAGGGCCAGAAGGGAAACTAAAGGGTCCCAAGTTCAAGATGCCAAGCATGAATATACAGACACACAAAATCTCTATGCCTGATGTTGGGCTTAATTTGAAAGGACCTAAACTGAAAAGTGGTGTAGATGTTTCTCTTCCAAAAGTAGAGGGAGAATTGAAGGGTCCTGAAGTTGATGTGGATGTTGGTGATATTGATATTGAATGTCCAGAAGGGAAGCTGAAGGGTCCCAAGTTTAAGATGCCTGACATGCACTTCAAGACTCCTAAGATCTCCATGCCTGATGTAGATTTACATCTGAAAGGCCCCAAAGTCAAGGGGGATATGGATGTGACAATGCCCAAGATAGAAGGTGAAATGAAAGTTCCAGATGTGGACATCAAAGGCCCCAAAGTGGACATCAATGCCCCAGATGTAGATGTGCGTGGCCCAGACTGGCACCTGAAGATGCCCAAGGTGAAAATGCCTAAGTTCAGCATGCCTGGTTTCAAAGCAGAGGGCCCTGAAGTGGATGTGAACCTGCCCAAGGCTGACATTGATGTCTCAGGACCCAAAGTGGACATTGATGTTCCTGACTTAGATATTGAGGGTCCAGAAGGAAAACTGAAAGGCTCCAAATTTAAGATGCCTAAGTTGAATATCAAGGCCGCCAAGATCTCTATGCCCGATGTGGACTTGAATTTTAAGGGGCCCAAACTGAAAGGAGAGATAGATGCTTCTGTGCCAGAAATGGAAGCTGATCTCAGAGGCCCTCAAGTTGACATCAAAGGGACCAATGTGGATGTGAAAGTACCTGATGTTGATCTGGAATGTCCTGATGCAAAGTTGAAAGGCCCCAAGTTCAAGATGCCTGACATGCACTTCAAGGCTCCTAAGATCTCCATGCCTGATGTGGACTTGCATCTGAAAGGCCCCAAAGTCAAGGGGGACATGGATGTGACAGTGCCAAAATTAGAGGGAGAATTAAAAGGCCCAAGTGTGGATGTGGAAGTACCTGATGTTGATCTGGAATGTCCTGATGCAAAGTTGAAAGGCCCCAAGTTCAAGATGCCTGACATGCACTTCAAGGCTCCTAAGATCTCCATGCCTGATGTGGACTTGCATCTGAAAGGCCCCAAAGTCAAGGGGGACATGGATGTGACAGTGCCAAAATTAGAGGGAGAATTAAAAGGCCCAAGTGTGGATGTGGAAGTACCTGATGTTGATCTGGAATGTCCTGATGCAAAGTTGAAAGGCCCCAAGTTCAAGATGCCTGACATGCACTTCAAGGCTCCTAAGATCTCCATGCCTGATGTGGACTTGCATCTGAAAGGCCCCAAAGTCAAGGGTGACGTGGATGTGACAGTGCCAAAATTAGAGGGAGAATTAAAAGGCCCAAGTGTGGATGTGGAAGTACCTGATGTTGATCTGGAATGTCCTGATGCAAAGTTGAAAGGCCCCAAGTTCAAGATGCCTGACATGCACTTCAAGGCTCCTAAGATCTCCATGCCTGATGTGGACTTGCATCTGAAAGGCCCCAAAGTCAAGGGGGACATGGATGTGACAGTGCCCAAGATAGAAGGTGAGATGAAAGTGCCAGATGTGGATATCAAAGGCCCTAAAGTGGACATCAATGCCCCAGATGTGGATGTGCGTGGCCCAGACTGGCACCTGAAGATGCCCAAGATGAAAATGCCCAAGTTCAGCATGCCTGGCTTCAAAGCAGAGGGCCCAGAAGTGGATGTGAACTTGCCCAAGGCTGACATTGATGTCTCAGGACCCAAGGTGGACATTGATGTTCCAGATGTGAATATTGAAGGGCCAGAAGGGAAGCTGAAGGGCCCCAAATTTAAGATGCCTGACATGCACTTCAAGGCCCCCAAGATCTCCATGCCTGATGTTGATTTCAACTTAAAGGGTCCTAAAATCAAAGGAGATATTGACGTTTCAGTCCCTAAGATTGAAGGAGAATTAAAGGGTCCAGAACTGGATCTCAAGGGCCCCAAATTGGATGCCAACATACCAGAAGTTGCTGTTGAAGGCCCAGAAGGTAAATGGAAAAGCCCCAAGTTCAAGATGCCAGACATGCACTTCAAAACTCCCAAAATCTCCATGCCAGACATTGATCTTCACTTAAAGAGTCCAAAGATAAAGGGGGAGGTGGATGTAGATGTTCCCAAATTGGAAGGAGACCTCAAAGGGCCAAATGTGGACATGAGCAGGCCAGACATTGAGATTGAAGGACCAGAGGGCAAATTGAAAGGCCCGAAGTTCAAAATGCCTGAGATGAACATCAAGGCTCCCAAGATCTCCATGCCTGACTTTGATTTGCATCTTAAGGGTCCTAAAGTGAAGGGTGATGTAGATATTTCTCTGCCCAAAGTAGAAGGTGACATCAAAGGCCCAGAGGTTGACATCAAAGGTCCCAAAGTGGATATCAATGCTCCAGATGTGGACGTGCAGGGCCCAGACTGGCACCTGAAGATGCCCAAAATGAAAATGCCCAAGTTCAGCATGCCTGGCTTCAAAGCAGAGGGCCCAGAAGTGGATGTGAACTTGCCCAAGGCTGACATTGATGTCTCAGGACCCAAGGTGGACATTGATGTTCCTGATGTGAACATTGAAGGGCCAGATGCAAAACTGAAGGGCCCCAAGTTCAAGATGCCTGAGATGAACATCAAGGCCCCCAAGATCTCCATGCCTGACATTGACTTAAACCTGAAAGGCCCCAAAGTGAAGGGTGATGTGGATGTGTCTCTGCCCAAAGTGGAAGGTGAGATTAAAGTTCCTGAAGTTGACATCAAAGGCCCCAAAGTGGACATTGATGTTCCAGATGTGGATGTCCATGGCCCAGACTGGCACCTGAAGATGCCCAAAATAAAAATGCCCAAGTTCAGCATGCCTGGCTTCAAGGGAGAAGGCCCTGAAGTAGATGTGAGCCTGCCCAATGCTGACCTTGATGTCTCAGGACCCAAGGTGGACATTGATGTTCCAGATGTGAATATTGAAGGTCCAGATGCAAAGCTGAAGGGCCCCAAGTTCAAGATGCCTGAGATGAACATCAAGGCTCCAAAGATCTCCATGCCAGATTTACATCTTAAGGGTCCCAAAGTGAAGGGTGATGTAGATGTTTCCCTGCCCAAAGTGGAAGGTGACCTCAAAGGCCCAGATGTTGACATCAAAGGTCCCAAAATGGACATCAATGCTCCAGATATGGACGTGCAGGGCCCAGACTGGCACCTGAAGATGCCCAAAATGAAAATGCCCAAGTTCAGCATGCCTGGCTTCAAAGCAGAGGGTCCAGAAGTAGATGTGAACCTGCCCAAGGCTGACCTTGATGTCTCAGGACCCAAGGTGGACATTGATGTTCCAGATGTGAACATTGAAGGGCCAGATGCAAAACTGAAAGGCCCCAAGTTCAAGATGCCTGAGATGAACATCAAGGCCCCCAAGATCTCCATGCCTGACATTGACTTAAACCTGAAAGGCCCCAAAGTGAAGGGTGATGTGGATATGTCTCTGCCCAAAGTGGAAGGTGAGATTAAAGTTCCTGAAGTTGACATCAAAGGCCCCAAAGTGGACATTGATGTTCCAGATGTGGATGTTCATGGCCCAGACTGGCACCTGAAGATGCCCAAGGTGAAAATGCCCAAGTTCAGCATGCCTGGCTTCAAGGGAGAAGGCCCTGAAGTAGATGTGAACCTGCCCAAGGCTGACCTTGATGTCTCAGGACCCAAGGTGGACATTGATGTTCCTGATGTGAATATTGAAGGGCCAGATGCAAAACTGAAGGGTCCCAAGTTTAAGATGCCAGAGGTGAACATAAAGGCTCCTAAGATCTCCATGCCAGATTTGAATCTTAATCTTAAAGGCCCCAATGTGAAAGGAGATGTGGATGTTTCCATTCCAAATATAGAGGGTGATTTGAAAGGCCCTTCTCTTGACATAAAGAGCCCAAAATTAGATGTAAATGCTCCAGATATTGATGTTCATGGTCCTGAAGGAAAATTAAAGGGTCCCAAACTGAAAATGCCTGACATGCATGTAAGCATGCCCAAGATCTCTATGCCAGAAATTGACTTGAATTTAAAGGGCTCAAAGGTCAAGGGAGATGTTGATATCTCTGGACCCAAACTGGAGGGTGACATTAAAGTTCCCAGGGTGGATTTGAAGGGCCCAGAAGTGGACATTTCTGCTCCCAAGGTCAATATTGATGGGAAAGCAAAGAAATCTCGTTTTAAGCTTCCTAAATTTAATTTTTCTGGGTCCAAAGTTCAAACACCTGAAGTGGATGTCAAACTTAAAAAGCCAGATGTTGATATAACAGCTCCAAAAGTTGATATTAATGCTCCAGAAGTTGAAGTCCAAGGTAAAGTGAAAGGATCCAAGTTTAAAATGCCCTTTCTGAGCATTTCATCTCCCAAAGTCTCCATGCCCGATGTGGAGCTAAACTTGAAGGGTCCTAAAGTCAAAGGAGACCTAGATGCAGCAGGCCCAAATTTAGAAGGAGACTTCAAAGGACCCAAAGTGGACATTAAAGCACCAGATGTTCAACTTAATGCACCAGATGTGGATGTTCATGGACCAGAATGGAATCTAAAAATGCCCAAAATGAAAATGCCCAAGTTTGGTGTGTCTGGCATAAAAGCAGAAGGGCCTGATGTGGCTGTGGATTTACCAAAAGGAGACATTAATATAGAAGGTCCCAGTATGAATATTGAGGGCCCAGAACTCAATGTAGAATGTCCAGAGGGAAGCTTAAAAGGCCCCAAATTTAAGATGCCTGAGATGAACATCAAAGCCCCTAAGATCTCCATGCCTGATATTGACTTAAACCTGAAAGGTCCCAAAGTGAAGGGTGATGTGGATGTGTCTCTACCCAAAGTGGAAGGTGAGATTAAAGTTCCTGAAGTTGACATCAAAGGCCCCAAAGTGGACATTGATGTTCCAGATGTGGATGTTCATGGCCCAGACTGGCACCTGAAGATGCCCAAGGTGAAAATGCCCAAGTTCAGCATGCCTGGCTTCAAAGGAGAGGGCCCAGAAGTGGATGTGAGCCTGCCTAAGGCTAACATTGATGTCTCAGGACCCAAGGTGGACATTGATGTTCCAGATGTGAACATTGAAGGGCCAGATGCAAAACTGAAGGGCCCCAAGTTCAAGATGCCTGAGATGAACATCAAGGCTCCAAAGATCTCCATGCCTGATATTGACTTAAACCTGAAAGGCCCCAAAGTGAAGGGTGATGTGGATGTGTCTCTGCCCAAAGTGGAAGGTGAGATTAAAGTTCCTGAAGTTGACATCAAAGGCCCCAAAGTGGACATTGATGTTCCAGATGTGGATGTTCATGGCCCAGACTGGCACCTGAAGATGCCCAAAATAAAAATGCCCAAGTTCAGCATGCCTGGCTTCAAGGGAGAAGGCCCTGAAGTAGATGTGAGCCTGCCTAAGGCTGACCTTGATGTCTCAGGACCCAAGGTGGACATTGATGTTCCAGATGTGAATATTGAAGGGCCAGATGCAAAACTGAAAGGCCCCAAGTTCAAGATGCCTGAGATGAACATCAAGGCCCCCAAGATCTCCATGCCTGACATTGACTTAAACCTGAAAGGCCCCAAAGTGAAGGGTGATGTGGATGTGTCTCTGCCCAAAGTGGAAGGTGAGATTAAAGTTCCTGAAGTTGACATCAAAGACCCCAAAGTGGACATTGATGTTCCAGATGTGGATGTCCATGGCCCAGACTGGCACCTGAAGATGCCCAAAATAAAAATGCCCAAGTTCAGCATGCCTGGCTTCAAAGGAGAAGGCCCAGAAGTGGATGTAAATCTGCCCAAGGCTGACCTTGATGTCTCAGGACCCAAGGTGGACATTGATGTTCCTGATGTGAATATTGAAGGTCCAGATGCAAAGCTGAAGGGCCCCAAGTTCAAGATGCCTGAGATGAACATCAAGGCTCCAAAGATCTCCATGCCAGATTTACATCTTAAGGGTCCCAAAGTGAAGGGTGATGTAGATGTTTCCCTGCCCAAAGTGGAAGGTGACCTCAAAGGCCCAGATGTTGACATCAAAGGTCCCAAAATGGACATCAATGCTCCAGATATGGACGTGCAGGGCCCAGACTGGCACCTGAAGATGCCCAAAATGAAAATGCCCAAGTTCAGCATGCCTGGCTTCAAAGCAGAGGGCCCAGAAGTGGATGTGAACCTGCCCAAGGTTGACCTTGATGTCTCAGGACCCAAGGTGGACATTGATGTTCCTGATGTGAATATTGAAGGACCAGATGCAAAACTGAAGGGTCCCAAGTTCAAGATGCCTGAGATGAACATCAAGGCCCCCAAGATCTCCATGCCTGACATTGACTTAAACCTGAAAGGCCCCAAAGTGAAGGGTGATGTGGATATGTCTCTGCCCAAAGTGGAAGGTGAGATTAAAGTCCCTGAAGTTGACATCAAAGGCCCCAAAGTGGACATTGATGTTCCAGATGTGGATGTTCATGGCCCAGACTGGCACTTGAAGATGCCCAAGGTGAAAATGCCCAAGTTCAGCATGCCTGGCTTCAAGGGAGAAGGCCCTGAAGTAGATGTGAACCTGCCCAAGGCTGACCTTGATGTCTCAGGACCCAAGGTGGACATTGATGTTCCTGATGTGAATATTGAAGGTCCAGATGCAAAGCTGAAGGGTCCTAAGTTCAAGATGCCTGAGATGAACATCAAGGCTCCAAAGATCTCCATGCCAGATTTACATCTTAAGGGTCCCAAAGTGAAGGGTGATGTAGATGTTTCCCTGCCCAAAGTGGAAGGTGATCTCAAAGGCCCAGAGGTTGACATCAAAGGTCCCAAAATGGACATCAGTGCCCCCGATGTTGATGTACATGGTCCTGACTGGCACTTGAAGATGCCTAAGGTGAAAATGCCTAAGTTCAGCATGCCTGGCTTCAAAGGAGAAGGTCCAGAAGTGGATGTAAATCTGCCCAAGGCTGACCTTGATGTCTCAGGACCCAAGGTGGACATTGAAGGCCCTAATGTTAATATTGAAGGACCAGAAGGGAAACTGAAGGGCCCTAAGTTTAAAATGCCTGATCTCCACCTTAAGGCACCCAAGATTTCAATGCCAGAAATTGACCTGAACCTGAAAGGACCAAAGTTGAAGGGTGATGTAGATGTTTCTTTACCTAAAGTGGAAGGAGACCTCAAAGGCCCTGAAGTTGATATCAAAGGTCCCAAAGTGGACATCAGTGCCCCAGATATGGATGTTCATGGCCCAGATTGGCACCTGAAGATGCCCAAGATGAAAATGCCTAAGTTCAGCATGCCTGGCTTCAAAGCAGAGGGCCCAGAAGTGGATGTAAATCTGCCCAAGGCTGACATTGATGTCTCAGGGCCTAAAGTGGACATTGATGTTCCTGATGTGAACATTGAAGGACCAGATGCAAAGCTGAAGGGTCCCAAGTTCAAGATGCCTGAGATGAACATAAAAGCTCCCAAGATCTCTATGCCTGACTTTGATTTGCATCTGAAAGGTCCCAAAGTGAAGGGTGATGTGGATGCTTCCTTGCCTAAAATGGAAGGTGAATTAAAGGGTCCTGGTATTGATATAAAGTGCCCCACTGTGGATATTGACACTCCTGATGTCAATATTGAAGTTCCAGAAGGAAAATTAAAAGGACCCAAATTTAAAATGCCAGACATGCATATCAAAGCTCCCAAGATCTCCATGCCTGACTTTGATTTAAATCTAAAAGGACCTAAAGTTAAGGGAGATGTGGACCTTGCACTCCCTAATGTTGAAGGTGATCTTAAAGGGCCAGAAATAGACATTGAGGGTCCTGAAGGAAAACTCAAAGGCCCCAAATTTAAGGTGCCAGATGTCCAATTCAAAACTCCACAAATCTCAATGAGTGACATTGATTTGAATGTGAAAGGGCCTAAGATAAAAGGAGATTTGGACATTTCTATTCCTAAACCAGAAGGGGACTTGAAAGGTCCCAAAGTGGATATCAAAGGCCCTAAACTGGACATTGACACTCCTGATATTGACATTCATGGTCCAGAAGGGAAACTGAAGGGCCCTAAATTTAAAATGCCTGATCTACACCTCAAGGCACCCAAGATTTCAATGCCAGAAGTTGACCTGAACCTGAAAGGGCCAAAGGTGAAGGGTGATGTAGATGTTTCTCTACCAAAAGTGGAAGGAGACCTCAAAGGTCCTGAAGTTGATATCAAAGGTCCCAAAGTGGACATCAGTGCCCCAGATGTGGATGTTCATGGCCCAGACTGGCACCTGAAGATGCCCAAGGTGAAAATGCCCAAGTTCAGCATGCCTGGCTTCAAAGGAGAGGGCCCAGAAGTGGATGTGAGCCTGCCTAAGGCTAACATTGATGTCTCAGGACCCAAGGTGGACATTGATGTTCCTGATGTGAACATTGAAGGGCCAGATGCAAAACTGAAGGGCCCCAAGTTCAAGATGCCTGAGATGAACATCAAGGCTCCCAAGATCTCCATGCCTGATATTGACTTAAACCTGAAAGGCCCCAAAGTGAAGGGTGATGTGGATGTGTCTCTGCCTAAAGTGGAAGGTGAGATTAAAGTTCCTGAAGTTGACATCAAAGGCCCCAAAGTGGACATTGATGTTCCAGATGTGGATGTTCATGGCCCAGACTGGCACCTGAAGATGCCCAAGGTGAAAATGCCCAAGTTCAGCATGCCTGGCTTCAAAGGAGAGGGCCCAGAAGTGGATGTAAATCTGCCCAAGGCTGACCTTGATGTTTCAGGACCCAAGGTGGACATTGATGTTCCAGATGTTAATGTTGAGGGTCCAGATATGAAAGTAAAAGGTCCCAAATTCAGGATGCCTGAGATTAACATCAAGGCTCCCAAGATCTCTATGCCTGATGTTGATCTGGAGTTAAAAGGACCCAAAGTAAAAGGAGCCTTTGATGGGTCTGTCCCTAAGATTGAAGGTACTCTCAAAGGACCTGAAATAGATATGAAAGGTCCAGGTCTGGATTTTGAAGGCCCTGATGCTAAACTTAGTGGGCCTAACTTGAAGATGCCATCGCTGGAGGTATCTGTTCCTAAAATAACTGGGCCTGATGCTAATGTGCACCTTAAGACACCGAAAGTTGGAATTTCTGCGCCTAAGTTAGGAGGTGGTGAGGTAGACCTCAAGGGGCCTAAAGTTGATTTAGAAACTCCAAGCTTAGATGTCCACATGGAAAGCCCTGATATTAATATTGAGGGGCCGGATGTTAAAGTTCCGAAATTTAAGAAACCCAAGTTTGGATTTGGTGCAAAAAGCCCCAAAGCTGACATCAAGACACCCACAGTTGATGTGACTGTCCCTGAAGCAGAGCTGAATGTTGATTCTCCTGAAATAAACATTGGTGGCAAGAGCAAGAAAAGCAAGTTTAAAATGCCTAAAATTCACATGAGTGGTCCTAAAGTTAAAGCCAAAAAACAGGGATTTGATTTGAATATTCCTGGAGGTGAGATTGATACCAGTCTCAAAGCTCCTGATGTAGATGTTAGTGTTGCAGGGCCTGATGCTGCACTCAAAGCTGAAGTAAAATCTCCCAAAGTCAAGAAAACTATGTTTGGAAAAATGTACTTTCCAGATGTAGAATTTGACATTAAGTCACCTAAATTTAAAGCAGAGGCTCCCCTACCTAGCCCCAAGCTGGAGGGTGAAATCAAGGTACCAGATGTGGATATTTCTTCACCAGGGATTAATGTGGAAGCTCCTGATATTCATATGAAGGCTCCCAAGTTCAAGGTGCCAGGCGTGGAAGCCTCAGGGCCAAAGATAGAGGGCAACTTGAAAGGTCCCAAGGTGCAGGCAAACTTGGACACACCTGACATCAACATCGAAGGCCCTGAAGCTAAAATCAAAGCACCCTCTTTTAGTGTTTCTGCTCCTCAAGTCTCCATACCCGATGTGAATGTTAATTTGAAAGGACCAAAGATAAAAGGTGATGTTCCCAGTGTGGGACTGGAAGGACCTAACATAGATCTACAAGGTCCAGAAGGGAAAATCAAGTTCCCTAAGTTTTCCTTGCCCAAGATCAGTGCCCCAGGTGTGAAAATGGAAGGTGGGAGCACTGAGATCGGCGCTCAGATGCCCTCTCTTGAAGGAGGGTTGAGCACATCAGATATGAAGCTTGAAGGGCCTCATCTGTCTCTAAAAGGCCCAGGAGTAGACTTGCCTTCGGTGGACCTCTCTATGCCAAAAGTGTCTGGGCCTGATCTTGACATGAACTTGAAAGGACCAAGTTTGAAGGGAGACCTGGGTGCCTCCAGTCCCAGCATGAAGCTGCACGCCCCAGGTCTTGACCTCAAAGGTGTTGGTGGAAAAGTACATATAGGAGCAGATGGTGTGAAAATGTCAGGGATTGATGCCACAACAGCACTCAGTGTTGGGGCACCAGATGTAACACTGAAGGGACCAAGTCTACAGGGAGATCTGGCTGTGTCTGGAGACATCAAATGTCCTAAAGTGTCTGTGGCTACTCCTGATGTTAGCTTGGAGGCTTCAGAAGGTGCTGTCAAACTTCCCCACATGAAACTGCCTCAGTTTGGCATCTCCACTCCGGGATCCGACTTGGACATTAACATCAAGGGGCCACAAGTTTGTGGAGAACTAAAGGGATCAGGGATGGATGTGAATCTGAAAGGGCCTCAGATCTCAGCACCAAGCATGGACTTTAACTTGGAAGGACCAAAAGTGAAGGGGAGCCTCGGGGCTGCGGGTGAATTGAAAGGCCCAGCGATTGGGGGAGCTCTTCCAGGCATCAGCATTCAAGGCCCAGAAGGAAACCTCCAAATGCCTGGAATTAAGGCTTCTGGGTGTGATGTGAAACTCTCATCAGGGCAGATTTCTGGTCCCGAAATTAAAGGAGATCTGAAAGGTTCAGGACTAGGTCTCCATGGAGCTGTTCCTGATATCGGTGTCAAGGGGCCTTCCTTTAATGTGGCATCTCCTGAGTCAGATTTTGGTGTCAGCTTGAAGGGCCCCAAAGTCAAAGGAGGTGTAGATGTTTCAGGGGGTGTCAGTGTCCCAGATATCAACCTGGGTGAAGGGCATATGAGTGTCAAAGGCTCTGGAGTTGAGTGGAAGGGACCCCAAGTCTCCTCTTCTCTAAACTTGGATACATCTAAACTTGCTGGGAACCTTCATTTCTCAGGACCAAAGATAGAAGGAGACGTGAAAGGGGGCCAGACCGGACTCCAGGGTCCCGGGCTGAGTGTGTCTGGGCCTCAAGGTCACTTGGAAAGTGAATCTGGAAAAGTAACATTCCCCAAGATGAAGATCCCTAAGTTTACCTTCTCTGGCCGCGAGCTCATCGGTAGAGAAGTAGGAGTGGATGTCAACTTCCCTAAAGTGGAGGCCAATGTGCAGGCTGGTGCTGGAGAAGGCAAGTGGGAAGAGTCTGAAGTAAAACTGAAAAAATCCAAAATCAAAATGCCCAAGCATATCTTTTCTAAATCTAAAGGAAAAGGTGGTGTCACTGGCTCACCTGAAGCATCCATTTCTGGGTCCAAAGGGGACCTGAAGAGCTCAAAGGCCAGCTTGGGCTCCCTGGAAGGAGAAGTGGAAGCGGAAGCATCTTCACCCAAAGGCAAATTCTCCCTATTTAAAAGTAAGAAGCCACGACACCGCTCCAACTCCTTCAGTGATGAGAGGGAGTTCTCAGCGCCTTCCACCCCAACTGGGACTTTGGAGTTTGCAGGTGGAGACGCTAAAGGCAAGCATGGAAAGCTGAAGTTTGGTACCTTTGGTGGCTTGGGATCAAAGAGCAAAGGTCATTATGAGGTTACTGGGAGTGATGATGAGGCAGGCAAGTTACAGGGGAGTGGCGTGTCCTTGGCCTCGAAGAAGTCCCGACTGTCTTCCTCCTCTAGCAACGACAGTGGGACCAAGGTTGGTATCCAGCTTCCTGAGGTAGAACTGTCAGTTTCCACAAAGAAAGAGTAGTGGGCCTTCATGCATGTACATATATATATATATAAAACATCAGCCTTGGGTGTGTTTGTATATAAACTCCAAAGAGAAACACCCCAATAGCCTAAGCAATAATGCAAAGATCTTGCCCCTGCCAGTGGCAAGTGCCGACAAACCAAGTGCCTGTAGGCTCCTGGGACTCTGCAGCTAGGTAAAGAGTTCTAAGTTCATCTGGCCCACGTGCAAAGTCAACAGTATTGCCTTAAGATTTCAGTTTTTTTTTTTTTTTTTGGTTTCTGTTTTCTTTTCTTTTTCCTTTTTCTTTCTTTCTTTTTTTTTTTGCATTGAACGCTGAGAGCTCGTGTTTACTAAGCAAGCTTTTGTGTTTATCTTCCTTATTTTTACTGAACATCTTCAGTACCTGGGTAATGGAAACCCACTCTTTTTTCATTGTAATGACTTTGGGGGCTTTTGTGAGTAAGGGAGGGTGGGATAAAAGGTGGCAGAGGGAGCAAGGTCTTAATTGCTCTGAAGGTTGGACCCGTGAAGCCCTGGCATAGACCTGAAGAGGTGGCAGCCAGTGGGTGGTTGTTTCTCAATCTCTGTAGCATGACTTTTTAATCCCCAGGTGTGTTAGTCCCAGCCTAGTTTGGTGCTCGAGGTGAGAGGGGATTTGAATCTGTTTGCAAATTGTCCAACCCACCAGGTCAACGTGAGGGGCTTACATTCTGGGTTTGATAAGAAAAGTGTTCATTCATGACTGCTATGTCCTGAGAAAAGTTCCGATTTCTTTTAACAAATGTCATCATGATTAAGGAAATGTCTGGCACTTTAATGGCAAATTAATTGAGAATGTATGAAAGTCATGAATGTACAAGCCAAATAAAGCTCTTTATTAACCCTG'
p7
(I30
S'MKTSAPEVKGDVKGPQMAVKGSRVDIETPNLEGTLTGPKISSPSGKIGACRISMADVDLNVAAPKGKGGVDVILPNVEGKAKGLEVDVKGPKMDISAPDVEVHGPEWNLKMPKFSVPGVKGEGLDVNVTLPEGDISISGPKVNVEAPNVNMEGLGGKLKGPDINLPEVSVKTPKISMPDVDLHIKGPKVKGEYEVTPPKLEGELKGSKVDIDTPQVDVHGPDLKIPKMKMPKFSVPGFKAEGPEVDVNLPKADLDISGTKVEVSAPDVSIEGSEGKLKGHKFKMPEMNIRAPKISMPDVDLHLKGPNVKGEYDVTVPRAEGEIKVPDVELKSAKLDIDVPNVDVQGPELHMKMPKIKMPKFGMPGFKAESPEMEVNLPKSDIDVSGPNVDVKVPDVNIEGPEGKLKGPKLKMPEMNIKAPKISMPDVDLHMKGPKVKGEYDVTMPKLEGDLKGPKVDVSVPDVDVHGPDWNLKMPKIKMPKFSMPSLKGEGPELDVNMPKADVDISVPKLDISAPDLNLEGPEGKLKGPKFKMPEMHFKAPKVSLPDVDLDLKGPKMKGNLDMSAPKIEGEMKAPDVDIKGPNVDIKAPEVDVQGPEWSLKMPKMKMPKFSMPTLKGEGPDVDVSLPKATIDVSGPKLDIETSDVSLEGPEGKLKGPKFKMPDMHFKAPKISMPDVDLNMKGPKVKGDMDVTVPKIEGEMKVPDVDIKGPKVDISAPDVDVQGPDWHLKMPKMKMPKFSMPGFKAEGPEVSLPKADLDVSGPKVDIDVPDVNIEGPDAKLKGPKFKMPEMNIKAPKISMPDLHLKGPKVKGDVDVSLPKVEGDLKGPDIDIKGPKMDINAPDMDVQGPDWHLKMPKMKMPKFSMPGFKAEGPEVDVNLPKADIDVSGPKVDIEAPDVSIEGPEGKLKGPKFKMPDMHFKAPKISMPDVDLNIKGPKGKADVDASLPEVEGGVKVPDVDIKGPKVGIDAPDVEVHGPDWHLKMPKVKMPKFSMPGFKGEGPEVDIPKANIDVSGPKVDIDVPDVNIEGPDTKLKGPKFKMPEMNIKPQKISMPDVSLNLKGPKVKADCDVSVPKVGGEIKAPAVDIKGPKVEAPDVEVHGPDWHLKMPKVKMPKFSMPGFKGEGAEVDVNLQKANIDVSGPKVDIDVPDVNIEGPEGKLKGPKFKMPSMNIQTHKISMPDVGLNLKGPKLKSGVDVSLPKVEGELKGPEVDVDVGDIDIECPEGKLKGPK'
p8
tp9
sS'GGAGATACTCACAATCTAGTTAGGGATGGTGACAGCTGAGCCAGAGCTGTGCAGCGAGGCAGAGTACGATGCGTGTCACGAAGGAGTTACAACAGCTCAGCAGCGAGAAGGAAAATGGAATTCTGATTGGTGGGAGTGCCATGGACCAAGCTTTGTGGAGGAGAAAACTGAAGAGAAGGCTGGAGTCTTGCCTGCAGGTTGAAGCCGCTGGAAGAGGGATGAGGAGAGCGAAGAAGGTTCCAGCCATGTGCAGTGAATGCAGAGGGGAGGGTGCATCAAGAGACTGCCCTGGGAAAGGCCGGGAACCAGGGGTGTGCTCCAGAGAAGAAGCCAAGTAATTAGCATGGCAGAAGGAGACTGCCACTGTGTTTGGCACAGCCATGGTTGGTCCTCCAAGAACACGTTCAGTTGTGTGTGATGCAATGACAGAAGTAACCATAAGGATGCAGATGCGGCTTTCTGAGGCCCAGCCAACAGTCACCGTGAAGCTGAGTGGCAAGGACCAGAACCCTGAAACTGAGAGCATTTCTCCCTATACGTTCCCCTCTCCTCCCAGCTTTCCAAACCCTCACCATCTGACTTTGTACCTCTTTCAAATGAAACAGGTTGCATATTGCTGAGCTGACAGAGGCTCCCTACCCAGACTAATAGAGCCCGCCACACGGAAGTAATTTCTTGTTAAACTTCTATCCAGTGAAATCCAACCACTGCACACAGCAGGCCCGGCTGTGCTGGTACTGCCAGCCTGCCACCGAGGCGCAAGGGAATAAAGGAAAATGCTTAGCATTAAATTTCATGTAAATCAGACTTTATTTGCTCTGGTGACAGGTTATTACCTTCTGCAGGGAACGAGGGGAGAAACGGCTGCCACTGAAGACAGAGTTCCCCCAGTGAGCTTCCATAGCAGCCTCTTGCAGCAGGCATGCCTAACTCACCTGCTTTGCCCCACCCATCCACTCTGCTACCTTCTCTGTAAATGGCCAGGGTCTACAGGCTCTTCTTGGCATAGAAGCCCTGCCTACACAGCCTTCCTGATGCTTCAGAGATGGTCACTATTTATGAGGACTTCCCCACTAAGGACATTGGGCACTCTTCACCTTGCTTTGTGGCTCAGTCTATCTCCCACCAAGAACATTCTATATAGCAATAAACTCATTCAGACTCAGCTC'
p10
(I36
S'MLSIKFHVNQTLFALVTGYYLLQGTRGETAATEDRVPPVSFHSSLLQQACLTHLLCPTHPLCYLLCKWPGSTGSSWHRSPAYTAFLMLQRWSLFMRTSPLRTLGTLHLALWLSLSPTKNILYSNKLIQTQL'
p11
tp12
sS'GGTGCCAAACTACAGCTATGGAGCAGGCACCTCCGGACCCCGAGAAGCTCTTGCAGCCTGGACCCCTGGAGCCGCTGGGTGGCCCTGGCGCTGTGCTGGAGGCCGCGGTCGGTGAGGAGAACGAGGGCACCCGAGAAGACGGCTCAGGGGTCGACACGATGACGGGAAATAATTTTTGGTTGAAGAAAATAGAAATCAGTGTTTCAGAAGCAGAGAAGAGAACCGGAAGGAACGCCGTGAACATGCAAGAAACGTACACTGCCTACCTCATCGAGACTCGGTCAGTTGAGCATGCCGATGGTCAGAGTGTGCTCACAGACTCGCTGTGGAGGCGGTACAGTGAGTTCGAGTTGTTGAGAAACTACCTTCTAGTGTACTACCCACATGTTGTTGTGCCACCTCTCCCAGAAAAGCGGGCAGAGTTCGTGTGGCATAAACTCTCTGCTGACAACATGGACCCAGACTTTGTGGAGAGACGACGCGTGGGCTTAGAAAACTTCCTCTTGAGGGTTGCTTCACATCCTGTCCTTTGTAGAGACAAAATCTTCTATTCATTTTTAACCCAGGAAGGTAACTGGAAGGAGACTGTGAATGAGACTGGATTTCAGCTGAAGGCAGACTCCAGGTTAAAAGCGCTTAATGCAACATTCAGAGTGAAAAACCCAGACAAGAGGTTTACTGAGCTGAGGCACTACAGTGATGAGCTGCAGTCTGTCATCTCGCATCTCCTTCGAGTCAGAGCTAGAGTAGCAGATCGACTCTATGGTGTATATAAAGTACATGGGAATTATGGGAGAGTTTTTAGTGAATGGAGTGCCATCGAAAAAGAAATGGGGGATGGGCTGCAGAGTGCTGGGCATCACATGGACGTGTATGCATCTTCTATTGATGATATTTTGGAAGATGAAGAGCACTATGCAGATCAGCTGAAGGAGTATCTGTTTTATGCAGAAGCACTTCGGGCTGTGTGCAGGAAGCATGAGCTTATGCAGTATGACCTGGAGACAGCTGCTCAAGACCTGGCTGCCAAGAAGCAGCAGTGCGAGGAGCTGGCCACCGGGACTGTGAGAACATTCTCGTTGAAGGGAATGACTACCAAACTCTTTGGTCAAGAAACTCCAGAGCAAAGAGAAGCCAGGATAAAGGTGCTAGAGGAGCAGATAAATGAAGGGGAACAGCAGCTGAAGTCTAAAAATCTGGAAGGCAGAGAATTTGTGAAAAATGCATGGGCTGATATTGAACGCTTCAAAGAACAAAAGAACCGGGACCTAAAGGAAGCTCTCATCAGCTATGCTGTCATGCAGATCAGCATGTGCAAAAAGGGAATTCAGGTTTGGACCAATGCTAAAGAATGCTTCAGCAAGATGTAACCCCATGAAGTGACTTTTCTCTGCAATCAAAGCCCCAAAACGAAGCACAAGTAAAAGAAAATCTATTGCTACCTTATACATAGAAGCATACTGTACATGGAACAAATCAGCTTTCTTTAAGCATAGTTGTGTTCATATAGCACAAATGATACATTTTAATGAAGAATAAATATTATAATTTGAAGTTTTGGGGACTGGTGCTGATTCCAAAAAAGTTAATTTAATAAGATAACCAACAGATTGTTAGTCAGGCTCCTGATCCAGTGCCTCCGTCAGGATGTGAGTTAATCTCCATGTGCACCTCTCAGTGCCCACTGTCCAGATCTCTTCACGGGCAGTTCTTCCCAGACCAGACGCCCAGATTTACTTTGTAGGACCCACTTCTGCTATACAGTTATTTTATCTTGCCTTAGAGTTGAGCTGTTTGGTTTGACAAAGCTCAGCAGAAACTTGTTGTGAAGTCTAAGGTTTTCTTCTGTGTTCCTAGATCCTGTACCATCTGCAACACTAGAAAATGCCTTCAGTTTGTGTCTCACCAAAATTTTGATACTGGTCAGAAATTTTATACTGCCAACAACGAAGTCTCAGCTTCTCAGATTTGCAGTGGAATAGATACATTATTATAATCTAGAAATTGCTATATAGAGAGTATTAATTTAACATTATTATTCTCAGATAAGAAGTGTTAACTTCGGCAGCAGCCTCCATTTCTTCTGCTCGGCTCTGTGCTCATGGCGTTTCAGGGTACGAGGTGTAGCATCTCCATGTGTGAGACACTCGTAGTGAGCACATGTGAGCGGTACCGTCACCATTAATGTGCGTTTCTGTTGCCTGGCTGTGATTTTTGTAAAGATAAATGATGTTGTTGTGCTTTAGTGTGTGTTTCATGGCACATGTTCAGAAGCCAAGCACACTCTCTGCCAGCTTGCAGACTCCTCCTAACCGTGCACTCATTATTTCTAATGTTTTAAAACTATACTCAGTACTGTTTGACATTTGACTTTTTTACATGTTTAAAATGTTGCTGGATTTTTGTGCTGTTTGCCAAACTTATATAATAAAGGAAGTGTTGTGTTTATTTCCAGAAGATTTGTATTATTTTAAGATGATCCATGTATGTAAATACCTGATTTTTTGTGAGAAAATAATGCATGCCATATTATGTTTTAAAGTGGCCTGATGTTGGTGTTTTGAGAAACAAGATACTAAAATTAGAAAAGATTTAAATTTTTTTGTTATGGTTTTGCTCTGGTTTGATTCTTTTTGAGACAGGGTTTCATGTAGCCTGGGGGCCCAGTCCTGGAAGTAGTTTTATAGATAAGGCTAGACACAAAAACCTATCTCTGCCTCAAAAGAACACCTATCTCTGCCACCCAAGTGAGTGCTGGGATTAAAGGCATGAGCCACTCTTGGCTTTGCTATGGTTTTCGAAAAGATAAGGTTGGTAGAAGCAAAATTTTTCAATGTGATACACATTTTCTTCTATGTGTGCCAACCTCTGTTGATTAACAAAACACCCTTCTACTTGGTAGTTAAAATCACAGCCTAGGACTCGGGCTGTAGCTCATAGTGTGCTCCTCCGTGTGTGCCAGGCCCTGGGTTCCATTCCTATCACCACAGAAAAGTAAAGAAGACAAGCGTCATTCACTCGGGTGATCCCAGCACTCAGGAGGGAGGGCAGCCTAGGCTACATAGTTCCAGGCCAGCGTGAGCTAGCTACAAAGCGAAGCCTTCCCCTGACCCCTGACCCCTGACCCCCAAAGAAACCTCTTTCATAAAATGACTTTTAAC'
p13
(I8
S'MEQAPPDPEKLLQPGPLEPLGGPGAVLEAAVGEENEGTREDGSGVDTMTGNNFWLKKIEISVSEAEKRTGRNAVNMQETYTAYLIETRSVEHADGQSVLTDSLWRRYSEFELLRNYLLVYYPHVVVPPLPEKRAEFVWHKLSADNMDPDFVERRRVGLENFLLRVASHPVLCRDKIFYSFLTQEGNWKETVNETGFQLKADSRLKALNATFRVKNPDKRFTELRHYSDELQSVISHLLRVRARVADRLYGVYKVHGNYGRVFSEWSAIEKEMGDGLQSAGHHMDVYASSIDDILEDEEHYADQLKEYLFYAEALRAVCRKHELMQYDLETAAQDLAAKKQQCEELATGTVRTFSLKGMTTKLFGQETPEQREARIKVLEEQINEGEQQLKSKNLEGREFVKNAWADIERFKEQKNRDLKEALISYAVMQISMCKKGIQVWTNAKECFSKM'
p14
tp15
sS'GCGGGTCGATGGCCGCTCGCATCGGCTACTACGAGATCGACCGCACCATCGGCAAGGGCAACTTCGCTGTGGTCAAGCGGGCCACGCACCTCGTCACCAAGGCCAAGGTTGCTATTAAAATCATAGATAAGAGCCAGCTGGATGAAGAAAACTTGAAGAAGATTTTCCGGGAGGTTCAGATAATGAAGATGCTTTGCCATCCACACATCATCAGACTCTACCAGGTCATGGAGACAGAGCGCATGATTTACCTGGTGACAGAATACGCTAGCGGAGGGGAGATATTTGACCACTTGGTAGCCCATGGAAGAATGGCAGAGAAGGAAGCTCGACGGAAGTTCAAACAGATCGTCACAGCGGTGTATTTTTGTCACTGTCGGAATATCGTTCATCGTGATTTAAAAGCCGAAAACTTACTTCTGGACGCCAATCTGAATATCAAAATAGCAGACTTTGGCTTCAGCAACCTCTTCACTCCAGGGCAGCTGCTGAAGACGTGGTGTGGCAGCCCTCCCTATGCCGCCCCAGAGCTCTTCGAAGGGAAGGAATATGATGGGCCCAAAGTGGACATATGGAGCCTTGGAGTTGTCCTCTATGTGCTGGTGTGTGGCGCCCTGCCGTTTGATGGGAGCACACTGCAGAATCTGCGGGCCCGCGTGCTGAGTGGCAAGTTCCGCATCCCGTTCTTTATGTCCACAGAGTGTGAGCACTTGATCCGCCACATGCTGGTGTTAGATCCAAATAAGCGCCTCTCAATGGAACAGATCTGCAGGCACAAGTGGATGAAGCTCGGAGATGCAGACCCCAACTTTGACAGGTTAATAGCGGAGTGCCAGCAACTGAAGGAGGAAAGGCAGTCGGACCCCCTCAACGATGATGTCCTCTTGGCTATGGAAGACATGGGGCTGGACAAGGAGCGCACACTTCAGTCATTAAGGTCAGATGCCTATGACCACTATAGTGCAATCTACAGCCTGCTGTGCGATCGACACAAGAAACATAAAACTCTGCGTCCCGGAGCACTTCCCAGCATGCCCCAAGCCATGACTTTCCAGGCACCAGTCAATCTCCAGGCGGAGCAGACAGGCACTGCTATGAACCTTAGCGTCCCTCAAGTTCAGCTGATCAACCCAGAGAACCAAATTATAGAGCCTGACGGGGCTGTGAACTTGGACAGTGATGAGGGTGAAGAGCCTTCTCCAGAAGCCTTGGTTCGCTATTTGTCAATGAGGAGGCACACGGTGGGAGTGGCTGACCCACGCACGGAAGTTATGGAAGATCTGCAGAAGCTGCTGCCTGGCTTTCCTGGAGTAAACCCACAGGGTCCATTCCTACAAGTGGCCCCTAACATGAACTTCACGCACAACCTGTTGCCCATGCAGAGTCTGCAGCCAACTGGGCAGCTTGAGTACAAGGAACAGTCTCTGTTACAGCCGCCTACACTACAGCTACTGAACGGAATGGGGCCCCTTGGCCGGAGAGCCTCAGATGGAGGCGCCAACATCCAACTGCATGCCCAGCAGCTGCTCAAGCGCCCACGGGGACCGTCCCCACTTGTCACCATGACACCAGCAGTGCCAGCAGTTACCCCTGTGGATGAGGAGAGCTCGGATGGGGAGCCAGATCAGGAAGCTGTGCAGAGGTACTTGGCAAATAGGTCCAAAAGGCACACACTGGCCATGACCAGCCCGACAGCTGAGATCCCACCGGACCTGCAACGGCAGCTAGGACAACAGTCTTTCCGTTCCCGGGTCTGGCCTCCTCACCTGGTACCTGACCAGCATCGCTCCACCTACAAGGACTCCAACACCCTGCATCTCCCTACGGAGCGTTTCTCCCCCGTGCGCCGGTTCTCAGACGGGGCTGCAAGCATCCAGGCCTTCAAAGCTCACCTGGAAAAAATGGGCAACAGCAGCAGCATCAAGCAGTTGCAGCAGGAGTGTGAGCAGCTGCAGAAGATGTACGGGGGGCAGGTGGATGAGAGGACCCTGGAGAAGACCCAGCAGCAGCATATGTTGTACCAGCAGGAGCAGCACCATCAGATCCTCCAGCAGCAAATCCAAGATTCTATTTGTCCTCCTCAGCCCTCCCCACCTCTTCAGGTTGCCTGTGAAAACCAACCAGCCCTCCTCACCCACCAGCTCCAGAGGTTAAGGATTCAACCTTCAAGCCCACCCCCCAACCATCCCAGCAACCATCTCTTCAGACAGCCAAGTAACAGTCCTCCCCCGGTCAGCAGTGCCATGATCACGTCTCACGGTGCTACGTCTCCCTCCCAGTTTCAAGGCTTACCCTCCCATGGTGCAATCTTCCAGCAGCAACCCGAGAACTGTTCCCCGCCTCCCAGTGTAGCACTAACCTGCCTGGGCCTACAGCAGGCTAGCCAGTCACAGCCAGTGACTATCCAGCTACAGGAGCCAGTTGACATGCTCAGCAACATGGCCGGAACCGCGGCAGGCTCTGCAGGGCGGAGCATCCCCATCAGCCCCAGCGCCAGTCAGATTCAGATACAGCACCGAGCCAGCCTAATGGCTCCCTTCAGCTATGGGCACCGGCCCTTGTCCAAGCAGCTGAGCGCTGACAGTGCAGAGGCCCACAGCTTGAACATGAATCGGTTCTCCCCTGCCAACTACGACCAGGCGCATTTACACCCCCATCTGTTTTCGGACCAGTCCCGAGGTTCCCCCAGCAGCTACAGCCCTTCAACAGGAGTGGGGTTTCCTCCAACTCAAGCCCTGAAAGTTCCTCCGCTTGACCAGTTCCCCACTTTCCCTCCCAGTGCCCAGCAGCAGCCACCCCACTATACCACGTCAGCACTACAGCAGGCCCTGCTATCTCCTACACCGCCAGACTATCCCCGACACCAGCAGGTTCCCCATATCCTTCAAGGACTGCTCTCTCCCCGGCATTCACTCACCGGCCACTCGGACATTCGGCTGCCTCCGGCAGAGTTTGCACAGCTCATCAAAAGGCAGCAACAGCATCGACAGCAGCAGCAGCAGCAGCAGCAGCAACAAGAATACCATGAATTGTTCAGGCACATGAACCAAGGGGATGCTGTTAGCCTAGCTCCCAGCCTCGGGGGACAGAATATGACAGAGCACCAGGCTTTATCTTATCAAAATGCTGACTCGTACCACCGCCACCACACCAGCCCCCAGCATATCTTACAGATCAGGGCGCAAGATTGTATCTCACAGGGTCCCTCGCCCACCCCCACCCATGGCTATGCCCATCAGCCACCACTAATGCATTCGGAGAGTATGGAGGAAGACTGCTTGTGTGAGGGGCTCAAGGAGGGCTTCCCAGACAAGAGCTCAAGCACACTGACCAAAGGTTGCCACAACAGCCCTCTGCTCTTGTGTACCAGTGGGCCTGGGGACCCTGAGCCTTTGCTGGGAACTGTGAGTCAGGCCCGGGAGCTGGGGATCCATCCCTACGGACACCAGCCAACTGCCACCACGTTCAGTAGAAATAAGGTGCCCAGCCGAGAGTCTGTCCTAGGGAACTGCCTGGAAAGAAGTTCTCCTGGACAAGCAATGGAGCTGCCGGATCACAACGGCCTTGGGTACCCAGTACGGCCCTTAGTCAGTGAGCACCTCAGGTCCCGGACGCTCCAGAGACACCACACGATCCAGAACAGCGACGATGCCTATGTACAGCTGGATACCTTGCCAGGAATGAGCCTGGTGGCAGGCAAGGCGCTGAGCTCTGCCCGGATGTCAGATGCAGTTCTTAGTCAGTCTTCACTCATGGGCAGCCAACAGTTTCAGGATGAGGAAGATGAAGAATGTGGGGTGAGCCTGGGCCACGAGCATCCAGGCCTGGGTGATGGCAACCAGCATCTCAACTCCTCTCGCTATCCAGCTACGTGTGTTACAGACATCATGCTCAGCCACAAGCACCCAGAGGTCTCCTTCAGCATGGAGCAAGCCGGCGTGTAGCAAGATATGGAAAGTTCAAGTACAGCTCCAGGAGGAGGCTGAGTCTAGACCAATAGACCAACAGTGTCCAACAGCGCCGCACCGCTCCTCCGTCTGTGTCTCCACCACAACAGTGCAGCTCCTTCCCCTACACTAGGCACCAGTAGGCCGGCGCTTGGGTTGCGAGGGACATTTGCCATGTTTGCTTGTATGACCAAGGCACCAAGGAAATAAACAGGAAATCAGTGTCCTCCATCTTTCATGAGCCAGCATCTGGTGTGCTTGAGTTGAGTTCTGCTGTTAGGAGGTTTGCTTGTGTTTTGTTTTGGAAATTTTCCTTTGGAGATAACTTATTCTCTTTGCCTTGCCCACCCCTACCCCCTTGAGCATATTCCCCCCCCCCTCTCTCTCGTTTTCACCTACCATTTCTGAGGTAGATGAACCAGAGGTTAGTATTCAGGGGCTGAACCTCAGGACCCTCCCTTCCACAGCCTGTCTCAGACCAGACTCTCTCCCTCTGCCCCGGTCTACCAGGAACAAATGCTAGACCGGAGCTTGGTGGCCAAGAAAAGGAGAGGAGGGGGCAGTGGCCCCTGCCTTTGGAGATTGGAACAGAAGAAAAAACTGAGCCTGGGATCTGGCAGAATCTCCTGCTGGCCTCTACTAGAATCCTATCTGGCCCAGCAGAATTCCATCAGATCCCAGCACAGGCCGGATGGCCTGGTGCTGAAGGTTTGCCATCCAGAATGGCTCAGTGTAGGCCCCTCTGGTGTGTGGTCCAGTTCCCCTCCAGTCACCAACTGGTTCCCCCTCATGAGTGAACACCCAGGAGTGGTGCACTGTGCTGTTTGTGTGATCTCCATTCTTATTCTCTACTGCGTTGTAAAAAGGGCCGTTGGTCCATTTGTGTGCACACGTATGAGTGTGTACATGCCCTTCCCTGCGGCCTCTTTGTCACAGACAAGAATTGAGGCTGTACTGGGTCTCTTAACCTTCTCCTCTCCCCAGCATCCTCGGCCCCTATATTTTAATTCTTGATCATGTAGGAATTGTTTTTGATAAATGTTGATATTATTGTTATTATTGTTATTATTAATAAAGACAAAAAGGATTTTGTTTATTTGTTTAAAAGAGAAATGTTTAACCAGATTCTGTGCTGTTGAACTGTGGCTTGCAACTTCTGTTTGAAGTGTTTTCCTTGGCTTTGGCATCGTGAGCCACTCTCCTGTGCCAGCAGCGGATGCAGTGGCCTCCCTTCCCCAGCCGAAGCAGCACATAGGCAGTGGCTACTGTCCTTGTCACTTCCTTTCTCTCTGCAGTCAGAAACCAAAGTCTGGGGCCAAACGAGGCCGGCCCGGCTTCTCTTCTGGTCTTCAAAACCAGAGAGGGATGGTCCCTGCTCTGACTCCCAGCCCTCATTTCTGAGAGCCAGGGGCCACCAACCTCTGAGTATGCACAGAAGAAAGCCGCTGCCTACCATGGCATCTGGACATTACCAGCAGGGTCCCTAGCCATCTTATCCTTCCGCACCAACCCTGAAAGCTTGCCTCTTTGAACAAATCCATTGTCTCTTGAATGGATTTGTTTTCAATGTGAGAGCTTGGCTGGGGACCTGTTTCGTGGTCCCATGTCCTCCAATTTCCCCTCCACTTCAGGTGTCACTAATTACTAGCCAGAAGATGTCTGACTCCCAAGAAAGCTTGACAAGCCATTGTCAGCTTCCAAGCTCAGTCCAGCTCTGATGCTCCAGCCCCGCCCTGCTGCTCCCCACGCTCAGCCTGACCTGTTTACGTGGTACTGGATTGATGGAAGAGCAGGCACCACCCTCCAGAGCCACCCAGACGAAAGCCAGTGAGCCTATTAACCGTGCCATCTTGCGAACTATTTTCAAGATCACCATTGCTTTATATTGTAGTAACCAATATGCGCAGTATATGTTGAATGTATATGAATCTACTTTGCTATTTCTGTTCTTTGAAAATGTAAGAAGTATTTTTCCTTTCTCATTTCTGTTGATCTAAAAATGATAATAATAATAATAATCTCCAGATTCAAGTTGCTAAGAGCTTTTGTCCTTGTTTGTGTGGGACATCTACAACTTAGTGACTTGGTTGGACTGTAGGAGGTTGTGGAAATAAAAACCTGATTATGTACTAAAAAAAAAAAAAAAAAAAAA'
p16
(I41
S'MAARIGYYEIDRTIGKGNFAVVKRATHLVTKAKVAIKIIDKSQLDEENLKKIFREVQIMKMLCHPHIIRLYQVMETERMIYLVTEYASGGEIFDHLVAHGRMAEKEARRKFKQIVTAVYFCHCRNIVHRDLKAENLLLDANLNIKIADFGFSNLFTPGQLLKTWCGSPPYAAPELFEGKEYDGPKVDIWSLGVVLYVLVCGALPFDGSTLQNLRARVLSGKFRIPFFMSTECEHLIRHMLVLDPNKRLSMEQICRHKWMKLGDADPNFDRLIAECQQLKEERQSDPLNDDVLLAMEDMGLDKERTLQSLRSDAYDHYSAIYSLLCDRHKKHKTLRPGALPSMPQAMTFQAPVNLQAEQTGTAMNLSVPQVQLINPENQIIEPDGAVNLDSDEGEEPSPEALVRYLSMRRHTVGVADPRTEVMEDLQKLLPGFPGVNPQGPFLQVAPNMNFTHNLLPMQSLQPTGQLEYKEQSLLQPPTLQLLNGMGPLGRRASDGGANIQLHAQQLLKRPRGPSPLVTMTPAVPAVTPVDEESSDGEPDQEAVQRYLANRSKRHTLAMTSPTAEIPPDLQRQLGQQSFRSRVWPPHLVPDQHRSTYKDSNTLHLPTERFSPVRRFSDGAASIQAFKAHLEKMGNSSSIKQLQQECEQLQKMYGGQVDERTLEKTQQQHMLYQQEQHHQILQQQIQDSICPPQPSPPLQVACENQPALLTHQLQRLRIQPSSPPPNHPSNHLFRQPSNSPPPVSSAMITSHGATSPSQFQGLPSHGAIFQQQPENCSPPPSVALTCLGLQQASQSQPVTIQLQEPVDMLSNMAGTAAGSAGRSIPISPSASQIQIQHRASLMAPFSYGHRPLSKQLSADSAEAHSLNMNRFSPANYDQAHLHPHLFSDQSRGSPSSYSPSTGVGFPPTQALKVPPLDQFPTFPPSAQQQPPHYTTSALQQALLSPTPPDYPRHQQVPHILQGLLSPRHSLTGHSDIRLPPAEFAQLIKRQQQHRQQQQQQQQQQEYHELFRHMNQGDAVSLAPSLGGQNMTEHQALSYQNADSYHRHHTSPQHILQIRAQDCISQGPSPTPTHGYAHQPPLMHSESMEEDCLCEGLKEGFPDKSSSTLTKGCHNSPLLLCTSGPGDPEPLLGTVSQARELGIHPYGHQPTATTFSRNKVPSRESVLGNCLERSSPGQAMELPDHNGLGYPVRPLVSEHLRSRTLQRHHTIQNSDDAYVQLDTLPGMSLVAGKALSSARMSDAVLSQSSLMGSQQFQDEEDEECGVSLGHEHPGLGDGNQHLNSSRYPATCVTDIMLSHKHPEVSFSMEQAGV'
p17
tp18
sS'GGAGGTTTCTGACTGGAGAAATGGCCACTCTCTGTCTCTTCGACATGGATGGGACCCTGACTGCCCCGCGGCAGAAAATTACAGAAGAAATGGATGGCTTTCTACAAAAATTGAGGCAGAAGACCAAAATTGGAGTGGTAGGTGGGTCAGATTTTGAGAAACTGCAAGAGCAACTGGGAAATGATGTGGTTGAGAAATACGATTATGTGTTTCCAGAGAATGGCTTGGTAGCGTACAAAGATGGGAAGCTATTGTGTAAGCAGAATATTCAAGGGCATCTGGGGGAGGATGTGATCCAAGACCTGATCAACTACTGTCTGAGCTACATTGCAAACATTAAACTCCCTAAGAAAAGGGGAACTTTCATTGAATTCCGAAATGGCATGTTGAATGTGTCCCCAATTGGAAGAAGCTGCAGCCAAGAAGAACGAATTGAATTCTACGAACTCGATAAAAAAGAACATATACGACAAAAGTTCGTAGCAGACCTGCGGAAGGAGTTTGCAGGGAAAGGCCTCACGTTCTCCATAGGTGGCCAAATCAGCATTGACGTCTTTCCTGAAGGATGGGATAAGCGGTATTGCCTGAGACACCTGGAACATGCTGGCTATAAGACCATTTATTTCTTTGGAGACAAGACTATGCCGGGTGGCAATGACCATGAGATCTTCACAGACCCCAGAACTGTGGGCTACACAGTGACGGCCCCCGAAGACACACGCAGGATCTGTGAGGGGCTCTTCCCTTGACCCGAGGAGTGCCGGACTGACCAACAACACTGAAAGGGGCATCTGATGATGAAAGAGAGCAGCCACCCAGAGTTACCCACCTGGGATAGAACTGAAGACTTCTGTGACATGCTCCGTCTGCAACCTGTGGTGGAGGCTGAGGCAGGAAGGAACACCACTATTCTGTCAAAGGGTTAATGTTTCTGTTTTCAAGCCAGCTTCCCCTCTGTGAGCCACAGACGACAGTGTGGCCTGCTGCCTGACAGATAGCTGACCAAGTGACAACTGATCCCACAGTTTACACTTGCACTGGCCTGGCTGGCCATCTCTATTTGCTATATCTTAAAGCCAGACTGCTTTCCTGTCACCGCAGGAGGGGAGGACAGAGGACCCAGCAAAGCAGCACCTCACTGCAGTCCTCTTTAACCCCCAGGCTGACCAACCTAGGTAGCAGACGCAGTACCTAAGGCCACAGCAGCAGGGGTGCTCTCCAGCCTCTTCTTGGAGAGTGCACGTGTGTCCTCCAGAAGCTCGGGGACAGCCTTCCAAGAACACTTCCCAGGCAGCTTCCCAGTGCCCAACCACCATATGTCTCCACTGCCCTACCCTTGGCTGCCCCTACTCTGTCCACACCCACAGCAGAATGCCAGGTCCTCACCCTGTGGCATCCTTGGGTTTTATGGCAGTGCTGTGAAGCCCACTGAAGGGACAGCACCATACCTCACTTCTCAGTCTGGTCACTTTAACCCTCAGTGTCAAAAGGGTGTCTACCCCAGGTTGGCAGAGAACTTGGCTTCCGAGAGCTGCTTTCCCCACTTGGCTCCAGTAATGCTGGAGCCCCTAGCTGTCCTGGCTGTAGCAGTTCCAAGCCAGCCCAGATGCTGTGTTCTACCTGCAGGTCCAGTGTCTCCCACTGTGCCAGGTGGACTCCAGGCCTTGCCAGTTCCTACAGTGGCTATCACAGAACCCCCCTGCCCCACTGTCTTCATTCAACTCTCCCACCTAATAAAGGGCCTCTGCTCTCCAGGCAGTACATGATTGTGGCCGAATCATACATGTATGATCTTGCTGATGGGGCAGTGTGGCTGCCCAGGTCCAAGGACTTGTGCT'
p19
(I1
S'MATLCLFDMDGTLTAPRQKITEEMDGFLQKLRQKTKIGVVGGSDFEKLQEQLGNDVVEKYDYVFPENGLVAYKDGKLLCKQNIQGHLGEDVIQDLINYCLSYIANIKLPKKRGTFIEFRNGMLNVSPIGRSCSQEERIEFYELDKKEHIRQKFVADLRKEFAGKGLTFSIGGQISIDVFPEGWDKRYCLRHLEHAGYKTIYFFGDKTMPGGNDHEIFTDPRTVGYTVTAPEDTRRICEGLFP'
p20
tp21
sS'ATGGCCAGCATCACCCAGCTGTTCGATGACCTCTGCGAGGCTCTCTTACCTGCTGCCCAAGCTCGCCCCGGCCAGCGCAGTGTGAACAGGAAGAGGGCGAAGCGGAGCCTTAAGAGGGTGGCCTACAATGCCCTTTTCGCAAATCTTTTTCAAGAGGACACCCATCAACGGCAGCCCGACTCGTCGAAGCTCCCCGTGAAAAACAAGGTCCTCATGCTGTCCTTCGATTTGAGGGTGGGGGGCTTGGGGCCAGAGGCTGACCGTTTGGAGGAGCTCGTGGAGAAACTTGAAGCAGCCCCTGACTGTCCTTTTGTGGAGGTAGCATCAGTGTTGGACCTCTTAGTTCAGCTGGCAGGAAGTGGCCCCCCTCAAGTGCTGCGTAGAAAACGGGATTACTTCTTTAACAACAAGCATGCAGGCCGAAACATACCCTACAGCGGCTACGATTGCTATGACTTGAGTGTGTTTGAAATGGACGTTCGGTCATTTATCTCTGGGGAGGAGAATTTGTGTCATCACACGGTCCAGGAAGCGCTTCAGGTGATGGAGGCTGCCCCAGGCACTGGCCTGCCCACCGTTGGGCTCTTCTCAATTGGTGACTCTTGTGGTGACAGGTTTGAGAGAGACACCAGGGTCTCCCTCTTTGGTGCACTTGTGCATAGCCGCACCTATGACATGGATGTGCGACTGGACCTACCACCTGTGCCAGACAGCGCGGACTTCTCTGGACTAGCCATCAAGGTCCCACAGATTGTGGATCAGTGGGAAGATGAAGGTTTCCAGTCAGCTTCCAATTTAACTCCCGACTCCCAGTCTGAACCAAGCATGACCCCCGATTTGGACCTGTGGGAAGCTGTGCTCACATACGAAGCCAGCAAGCGGAGGTGCTGGGAGCGTATTGGATGCCCCCCTGGTCACCGAGAGGAGCCCTACCTCACTGAGGCAGGACGGGATGCCTTTGACAGGTTCTGCAGGCTCCGTCATGGAGAGCTACAGGCCCTCAGTGGGGGCCTTCTACAGGCCCCGAAGCCTGTGCTGGTGGAGGAAAGCGAGCTGGTGAAAGACTCACTGAACGTTCTGCTGGGCGTTGTTTCTGCTACATTTTCCCTGTGTCGGCCGACTCAAGCCTTTGTAGTGGAGCCGGGTGTGCATGTGTCAGGTGCATCTCCTGAAAGCATCAGCAGCATCCTCTCAGAGGTGGCGGAGTATGGAACCTGTTACACACGGCTGAGCCATTTCTCTCTGCAACCTGTTGTAGGCTCCTTGTGCAGCAGGGGCCTTGTTTTCCAGGCCTTCACCAGCGGCCTAAGGAGGTACTTGCAGTATTACCGTGCCTGTGTGCTCTCCACTCCACCCACCCTCAGTCTCCTCACCATTGGCTTTCTCTTCAAGAAGCTGGGCCGGCAGCTCAGGTACTTGGCTGAGCTTTGTGGTGTTGGCACTGTATCCCTGGCGACCAGTGGAGAACCCAGGGCTGTGTTCCCCACTGGGGTGAAGCTTCTGTCCTACCTCTACCAGGAAGCACTGGATAACTGCAGTAATGAGCACTATCCCGTTTTGCTGTCCCTCCTGAAGACCAGCTGTGAGCCCTACACACGGTTCATCCACGATTGGGTGTACAGTGGAGTCTTCAGAGATGTTTATGGGGAGTTCATGATCCAGGTTAACCATGAGTACCTCAGCTTCAGAGACAAGTTTTACTGGACCCATGGCTACGTGCTCATTTCCAAAGAGGTGGAGGACTGTGTTCCTGTATTCTTGAAACACATTGCTCATGATGTGTATGTCTGTGGGAAGACCATCAACCTACTGAAGCTCTGCTGTCCCCGGCATTACCTTTGTTGGTCTGATGTCCCTGTCCCTCGGATCTCGGTGATTTTCTCTCTTGAGGAACTGAAGGAGATTGAGAAGGACTGTGCTGTCTATGTTGGGCGGATGGAGAGAGTCGCACGTCATAGCTGTATCAGCAAGGAGGAAAAGGAATTACGTATGGAAATTGCGAAACAAGAACTAATTGTCCATGCCCGGGAAGCCGCGTCCAGGGTCCTGAGCGAGTTGAGTGACCGGCAGATGGCAGAACAGATTGCTCAGGACACTCGGAAGCGAGAGCAGTTTCAGCGACTGAAGGAACAGTTTGTGAAGGATCAGGAGCGACGCCTGGCAGCCAGACAAGAAGAGCTAGATGATGACTTCAGCTATGCCCGTGAGCTCCGTGACCGGGAGAAGAGGCTAAAGGCCTTGGAGGAAGAGCTGGAGAGGAAGGCCAGGCAGGCGCTGGTTGACCATTATAGCAAGTTGTCTGCAGAGGCAGCTCGTCGAGAGCAGAAGGCTCTGTGGAGAATCCAGAGGCATAGGCTGGAAAGCGCACGACTTCGTTTTCTCCTAGAAGACCAGAAGTGCATTCAGGAGATGCTGAGAGACATGGAGGCTCAGCAGCCCCAGGAGCCGCCGAGTGTGTTCCCATCCACAGGCTCTCAGGTAATAAGC'
p22
(I38
S'MASITQLFDDLCEALLPAAQARPGQRSVNRKRAKRSLKRVAYNALFANLFQEDTHQRQPDSSKLPVKNKVLMLSFDLRVGGLGPEADRLEELVEKLEAAPDCPFVEVASVLDLLVQLAGSGPPQVLRRKRDYFFNNKHAGRNIPYSGYDCYDLSVFEMDVRSFISGEENLCHHTVQEALQVMEAAPGTGLPTVGLFSIGDSCGDRFERDTRVSLFGALVHSRTYDMDVRLDLPPVPDSADFSGLAIKVPQIVDQWEDEGFQSASNLTPDSQSEPSMTPDLDLWEAVLTYEASKRRCWERIGCPPGHREEPYLTEAGRDAFDRFCRLRHGELQALSGGLLQAPKPVLVEESELVKDSLNVLLGVVSATFSLCRPTQAFVVEPGVHVSGASPESISSILSEVAEYGTCYTRLSHFSLQPVVGSLCSRGLVFQAFTSGLRRYLQYYRACVLSTPPTLSLLTIGFLFKKLGRQLRYLAELCGVGTVSLATSGEPRAVFPTGVKLLSYLYQEALDNCSNEHYPVLLSLLKTSCEPYTRFIHDWVYSGVFRDVYGEFMIQVNHEYLSFRDKFYWTHGYVLISKEVEDCVPVFLKHIAHDVYVCGKTINLLKLCCPRHYLCWSDVPVPRISVIFSLEELKEIEKDCAVYVGRMERVARHSCISKEEKELRMEIAKQELIVHAREAASRVLSELSDRQMAEQIAQDTRKREQFQRLKEQFVKDQERRLAARQEELDDDFSYARELRDREKRLKALEEELERKARQALVDHYSKLSAEAARREQKALWRIQRHRLESARLRFLLEDQKCIQEMLRDMEAQQPQEPPSVFPSTGSQVIS'
p23
tp24
sS'GAGCAGGGCCACCCATCCAGACACCTTGCAGGAGAACTTTCCAGAAGAAACCTCACCCAGCCTCCACACTGCTGTCCTTCTCTGCACGCTGCTGCAGCTGTGGTCCCAAGATGCCAGCTCTCCATCTGCTGTTTCTGGCCTGCTTGGTGTGGGGAATGGGGGCCAGGACAGCACAGTTCCGAAAGGCCAATGATCGGAGTGGCCGATGCCAATACACCTTCACTGTGGCCAGCCCCAATGAATCTAGCTGCCCAAGGGAGGACCAGGCCATGTCAGCCATCCAAGACCTTCAGAGAGACAGCAGCATCCAGCATGCAGACCTAGAGTCCACCAAGGCCCGGGTCAGATCCCTGGAGAGTCTCCTCCACCAGATGACCTTGGGCCGAGTTACTGGGACCCAGGAGGCCCAAGAGGGGCTGCAGGGCCAGTTGGGTGCCCTGAGGAGAGAACGGGACCAGCTGGAGACCCAAACCAGGGATCTGGAGGCAGCCTATAACAATCTCCTTCGAGATAAGTCGGCTTTAGAGGAAGAGAAGAGGCAGCTGGAACAAGAGAATGAAGATTTGGCCAGGAGGCTAGAAAGCAGCAGCGAGGAGGTAACAAGGCTGCGGAGGGGCCAGTGTCCTTCCACCCAGTACCCCTCTCAGGACATGCTGCCAGGCTCCAGGGAAGTCTCTCAGTGGAATTTGGACACGTTGGCCTTCCAGGAATTGAAGTCAGAGTTAACTGAGGTTCCTGCTTCCCAAATCTTGAAGGAAAATCCATCTGGCCGACCCAGGAGCAAAGAAGGAGACAAAGGATGTGGAGCGCTAGTCTGGGTAGGAGAGCCAGTCACCCTGAGGACAGCTGAAACAATCGCTGGCAAGTATGGAGTGTGGATGAGAGACCCCAAGCCCACCCACCCCTACACCCAGGAAAGCACATGGAGGATTGACACGGTTGGCACAGAGATCCGCCAGGTGTTTGAGTACAGTCAGATAAGCCAGTTCGAGCAGGGCTATCCTTCCAAGGTCCATGTGCTCCCTCGGGCACTGGAGAGCACGGGTGCTGTGGTGTATGCGGGGAGCCTCTATTTCCAGGGGGCTGAGTCCAGAACTGTGGTCAGGTATGAGCTAGACACGGAGACCGTGAAGGCAGAGAAGGAAATTCCTGGAGCTGGCTACCACGGACACTTCCCGTACGCGTGGGGTGGCTACACAGACATTGACTTAGCTGTGGATGAGAGCGGCCTCTGGGTCATCTACAGCACGGAGGAAGCCAAGGGGGCCATAGTCCTCTCCAAATTGAACCCAGCGAACCTGGAACTTGAGCGTACCTGGGAGACTAACATCCGTAAGCAGTCTGTGGCCAATGCCTTTGTTATCTGTGGCATCTTGTACACGGTGATCAGCTACTCTTCAGCCCATGCAACCGTCAACTTCGCCTACGACACTAAAACGGGGACCAGTAAGACCCTGACCATCCCATTCACGAATCGCTACAAGTACAGCAGTATGATTGACTACAACCCCCTGGAGAGGAAGCTGTTTGCCTGGGACAACTTCAACATGGTCACCTATGATATCAAGCTCTTGGAGATGTGAGGAGCCTCTATGCCTACCAGCAAAGGCCAGAAAAGGTGAAGTTCCGGGCTCCCGGGTGAAGCAGCTGTCAGCAGAGGCAGCCAGATGCATGGAGTTTCTCCTCCTGCTAAAGATTTTGTTTATCCGGGTCAATGTACAGCTAGCTCCCCTCTGACTGACACGTCCTCCAGGCTTGTATAGTCGCATAGACTCTGTTCTCTTCTGTCAGCTTTCAAAGGGCTGTTCCTCTTTTAAAAATCACATAGTGTAGCAGTCCAGAGGAAAAACTAGAAGTAAGGTTGTTTCTTCATGAAACCATTGCTTTTGCACGCTATTATGGTTACCATAAGCTTTGCGAGGCAGCGGCGGTTCTGCGGAGCGACCGCTCCTGTGGTTAGAACTGCTCCTGCCGAAGGTGTATTATACTCCAGGGGGCTTCTAGTGCTACAGATACAGCATGTGGTTGGGTGGTACGTAAACCCTTTGCCCTGTGAAATAAAGTTATCTTACATG'
p25
(I32
S'MPALHLLFLACLVWGMGARTAQFRKANDRSGRCQYTFTVASPNESSCPREDQAMSAIQDLQRDSSIQHADLESTKARVRSLESLLHQMTLGRVTGTQEAQEGLQGQLGALRRERDQLETQTRDLEAAYNNLLRDKSALEEEKRQLEQENEDLARRLESSSEEVTRLRRGQCPSTQYPSQDMLPGSREVSQWNLDTLAFQELKSELTEVPASQILKENPSGRPRSKEGDKGCGALVWVGEPVTLRTAETIAGKYGVWMRDPKPTHPYTQESTWRIDTVGTEIRQVFEYSQISQFEQGYPSKVHVLPRALESTGAVVYAGSLYFQGAESRTVVRYELDTETVKAEKEIPGAGYHGHFPYAWGGYTDIDLAVDESGLWVIYSTEEAKGAIVLSKLNPANLELERTWETNIRKQSVANAFVICGILYTVISYSSAHATVNFAYDTKTGTSKTLTIPFTNRYKYSSMIDYNPLERKLFAWDNFNMVTYDIKLLEM'
p26
tp27
sS'GACAGTTGGTCCGAGCTGCTGAAAGGTCTGGTCGCAGAGACAGGAACGCAGCATCCTCAGCGTGCTCCATCCCGGCAGTGTCTTCCTGCGCTCCGCCGGGCGGCGAGCCTCCGGACGACAGCCCCTCTGCTTCTCGGAGAAGCCTGATGAAGTCCTCCGATATCGATCAGGATTTATTTACAGATAGCTACTGCAAGGTGTGCAGCGCACAGCTGATATCCGAGTCCCAGCGGGTGGCCCATTATGAGAGTCGAAAACATGCCAGCAAAGTCCGGCTGTATTACATGCTTCACCCCAGGGATGGTGGGTGTCCTGCCAAGAGGCTCCGAGCAGAAAATGGAAGCGATGCTGACATGGTGGATAAGAATAAATGCTGTACACTCTGTAACATGTCCTTTACCTCAGCTGTGGTGGCCGACTCACATTACCAAGGCAAAATCCACGCCAAAAGGTTAAAACTGTTGCTAGGAGAGAAACCTCCACTGAAAACCACAGCCGCTCCGCTGAGCTCACTTAAGGCTCCTCGAGTGGATACGGCCCCCGTGGTCGCATCTCCCTATCAAAGAAGAGACTCAGACAGGTACTGCGGTCTCTGCGCAGCCTGGTTTAACAATCCTCTGATGGCCCAGCAGCATTACGAAGGCAAGAAACACAAAAAGAACGCAGCCCGCGTTGCCTTGCTAGAGCAGCTCGGAACATCTCTGGATCTGGGAGAACTGAGAGGTCTGAGACGTACTTACAGATGTACCACGTGCAGTGTGTCGCTCAACTCCATAGAACAGTATCATGCACATCTGCAAGGATCAAAACATCAGACCAAGTGACTGAAAGCCACTGTCTCCCCAAGAGTCCTTCAAGCCTTCAGCTCATGATTGGAACTCCTGAAAAGCTGCTGAGTTCTCAGCCTCTTCCATGTGAAGATGGTGATTGTTGGAATACACAGACTATCACAACTGAGATGTTTTGCTGAAGCAGAAGACATGTGATGTTTGGAAAGAATGAAAGTAAAACCCAACAGACAGTGACCAATGCTCTTGCATTGGCTTGACTTGCAACACTTCGATAATCTTCACTGATCTTCTCTTGTCATGACTTCATAAAGAAGAAATGCAACAAAGAACTTTTCGTGGTATTCTGGCTGCTTCTTATCACTTCTACAGACTCATGCCAATTCCGCAGAGCCTTGAGGTTTCTCCTAGAGGGAGCCACAGATACTAATTCATGTTTGATGTTTGCCAATTGGACTAGACTGCTGCTACTGAACTGTGTTTGGAATTGCCCCAAAGTACATCCACAGGTACTACAGGTCCACATCCCATTCATCTTATTAACCATCTTTCTCCCCTACTTTAGGTGGGTGGGATGGAAAGTAGGTTGAAGTGTTCAAGAACCCGTATTAAAGGAGGTTTTGAAAAAATTCTAAGAGTTTACATTTTACAACAATAAGAACAATGAAATTATTTATTTAATTTTAAACAAAACCATTCCTTTGCCCAACCAAAGTACCTCATTAGCTTTCATGCTAAATGGCACCTTGATGTTTTCACTGTTCTGAGTAGGCTCTCATGTTAACTCACACGTTCACCCATGCATGGAGGATGTCACAGAAAGGCCTAGGATAGTGTTCCTCAACCTGTGGGTCATGCCCCCATTCTGCATATCAGATATTTACACTATGATTCACAGCAGTAGCAAAATTACAGCTATGAAGTAGCAACAACGATAATTTTACAGTTGGTGGTCACCCCAACTTAAGGAGCTATATTAAAGGGTTGCAGCATTAGGAAGGTTGAAAACCACTGACTAGGAGGTAAATGACTATGGTTAGCTTGTGAATGGACTTGAAGGGCTTCTTTGCATCTATAGGTTAGACTTTATAGGTCAATTTTACTTATATACCTTCTGCCTTCTTAAAGTGGCAAAATGGACACTTGTTAACATTAAGAAGTATAGCCAACCCTCTGACACATAACAAAATAAGAAGCTAAGGATGCACACACATACTTTATTTGGTGGCAATCTGTCATACAAAGAAATTAGTGAGTATTCAGGTAGTCAAGCATTACATATAAAGCAAGTCAAGTGATGTATTAAGAACTTATCATTAACTAACTGATTTGTTGATTATGCTTAAACTGGTACACAATTACCATCGGTACAAATCATTTCCCCAGCATTCTATTTTTCATGATCTAAAACATCTCTGAGTGACATAAGTCCTTAGTAAGCAAACCAAAAATAAATAAATAAATAAAATAATCCCCAAAACC'
p28
(I6
S'MKSSDIDQDLFTDSYCKVCSAQLISESQRVAHYESRKHASKVRLYYMLHPRDGGCPAKRLRAENGSDADMVDKNKCCTLCNMSFTSAVVADSHYQGKIHAKRLKLLLGEKPPLKTTAAPLSSLKAPRVDTAPVVASPYQRRDSDRYCGLCAAWFNNPLMAQQHYEGKKHKKNAARVALLEQLGTSLDLGELRGLRRTYRCTTCSVSLNSIEQYHAHLQGSKHQTK'
p29
tp30
sS'ATTATTGGCGTTCATCCCAGGGCTAGAGCCGGAGCAGACTGTCAGAAGGCTGAGCCTTCAGTATCCCTCGGTGCCGCATGGCCTTTAGTGTTGGAAAGCCGGAAGCAAACGGTTTGGATGTGGAGACATGGCCTCTGGTTTTCCTGCTGAGGCTGAGGCAAGAGAAAGGAGGGAAGATACCACAGAAGGGTTCAGAAACAAAGGCTTGCGTAAGAATGGGCTTCCTCTTCTGAGAGCACCACACATCCCTCGTCCTCTTCACCTGCCTGTCTGCAATCCTGACCAGAACCTTCTCTCAAGCTTAGATCATTCCCGAATCCCACTTCTAGCCTTGCTCAAGCTCTTTGGAATCAAGCTCAAACTCCTGAATGTTCCAAGACACACCCCTTCTAGAGATGCTGGATCCAACCCAAACCTGCCCACTCCGGAACCCACCATGTGTTTAAGCCACACCCCTCCTAGTACCCCTCTCCCCAGTCCCTTTTAGCCCCATTCCAGAATGGTGTAGGACACCACTTCCCTTTTAGGCTCCACATCCAGTATGTGTGGAATTCAACTTTTGGCTGACTGGTCCTCTCTCTACAGAGGCCATCTCCTCTCCACCCATTTCATCCAAGCCACCTCCACCCCTCTACTCTTGGGGTTGAATTTCCATTTGAGAGCTTCTTAAGTTCAGGCGATGCTGGAGGAACCAAGGCTAGAGTTAGGAGGGGCAGAGGGAGAGAAGGAAGGGGGAAAAAGTCACATCGACCCACTCCATGCAGCCAAGGTCTGGCCCCCTTCCTGTCCCCTTTCTAGAGCCCCCTTACATCACGGGACAGGGCTGGGGAACCGATAGGGGCTGAGGAGTGCAAGGTCAGGGGTAGGGAGGAGCCCATTCAGGACTGGGCCCCTAGTGCATGGAGGAGTGGGTGAAGGTAGGGCTCAGACAGATAAATAGATATTTATATATAATATATATATATATAAACAGCAAAGACAGGGTCTCCTGGGTTGAGGGGTGGAGACCTAGGATATGGGGA'
p31
(I17
S'MAFSVGKPEANGLDVETWPLVFLLRLRQEKGGKIPQKGSETKACVRMGFLF'
p32
tp33
sS'AGGTGCCGTCTGCCGGCCGCCGCGGGAGCGAGGAGCGCTGGGCGGCGCGGCTCCACCATGGCTCTGACCCTGTTCGATACAGATGAATATAGACCTCCTGTTTGGAAATCTTACTTATACCAGCTGCAGCAGGAAGCCCCTCACCCTCGAAGGGTCACCTGCACTTGTGAGGTAGAAAACAGACCAAAGTATTATGGAAGAGAGTATCATGGCATGATCTCTAGAGAAGAGACTGACCAGCTCCTGAGTGTGGCTGAGGGGAGCTACCTCATCCGTGAGAGCCAGCGGCAGCCAGGAACGTACACTTTGGCTTTAAGATTTGGAAGTCAGACCAGAAACTTCAGGCTGTACTACGATGGAAAGCACTTTGTTGGGGAGAAACGCTTTGAGTCCATCCACGATCTGGTGACTGATGGCTTGATTACTCTCTATATTGAAACCAAGGCAGCAGAATACATTGCCAAGATGACGATAAACCCAATTTATGAGCACATAGGATACACAACCTTAAACAGAGAGCCAGCATACAAACAGCACATGGCAGTCCTGAAAGAGACACATGATGAGAAAGAGGCTACAGGCCAGGATGGGGTATCAGAGAAAAGGTTGACATCACTTGTTAGAAGAGCAACTCTGAAAGAAAATGAACAAATTCCAAAATATGAAAAGGTTCACAATTTCAAGGTGCATACGTTCCGAGGGCCACACTGGTGTGAATACTGTGCCAACTTCATGTGGGGCCTCATTGCTCAGGGAGTGAAATGTGCAGATTGTGGGTTGAATGTTCACAAGCAGTGTTCCAAGATGGTCCCCATTGACTGTAAGCCAGATCTGAAGCACGTGAAGAAGGTGTACAGCTGTGACCTGACAACGCTCGTGAAAGCTCACATCACCAAGCGGCCAATGGTGGTAGACATGTGCATCAGGGAGATCGAGTCCAGAGGTCTTAATTCTGAAGGACTCTACCGAGTGTCAGGATTTAGTGACCTGATTGAAGATGTCAAGATGGCTTTTGATAGAGATGGTGAGAAGGCGGATATTTCTGTGAACATGTATGAGGACATCAACATTATCACTGGTGCACTTAAACTGTACTTCAGGGATCTGCCAATTCCTCTCATCACATACGATGCCTACCCCAAGTTCATTGAGTCTGCCAAAATTATGGACCCTGACGAGCAATTGGAGACCCTTCACGAAGCACTGAGATCGCTGCCGCCTGCCCACTGCGAGACGCTCCGGTACCTCATGGCGCATCTCAAGAGAGTGACCCTTCATGAGAAGGAGAATCTGATGAGTGCAGAGAACCTTGGGATCGTGTTTGGACCAACCCTCATGAGATCCCCAGAGCTCGACCCCATGGCCGCCCTGAACGACATACGCTATCAGAGACTGGTGGTGGAGCTGCTTATCAAAAACGAAGACATTTTATTTTAGAGTTTTGATTTGAGGAGAAGAAAAATGGTTTACAGATGAAGGAATGTTTTCTAGTAATTTAATTAGCTTCATTAGCTGAATTGTTTCTTCGTTAGAGGTTTGGCCAAATACCCAGATTAAAATGAAGGAACTTCCTGTCATTTCTATAGCACCGCTCAGCTGTCCTTGTAAAACAGTGCACACACGCTTTCTGGTCCCGGTAACCCTGGGTGTCTATCATGTTAAGAGAAACTCAAGCTACTGCATGATTACCCCTTTTTGGTGAGGAAACCCCACATTGAGGAATCACAGACTTGTGCCTGCACCACCTCTGTCCTGGGTTGTCTGTGGTTGTCACCCAGCATGCTTCCCAGAGTAAACTGTCATGACTTTGCTTTTGGGGTCCATGCCATTGGTTTCTGATGCTTGCACACACACACACATAAGCAGTGCCCTGGCTGTTACATCACCATCCCCATACCATATGCCAACTCCACAACGGTTCCTTTCCAGCTTCTTCCTCCTCCTCTGACATAGCGCTTTGTCCTCAGCAGAAGCCAGATGTGTTTTAGATCTTACTTCAGTACGCTACCAATAAAAATGCACCACACAACATTTTCTGTTAAATTATTGGTTTTCAACTGTAAATTTATATTTTTACCTGGCATGCAGTTATTAATTTATTAAATTTGGCTTTTAGAAATCAAAAAAAAAAAAAAAAAAAAAAAA'
p34
(I14
S'MALTLFDTDEYRPPVWKSYLYQLQQEAPHPRRVTCTCEVENRPKYYGREYHGMISREETDQLLSVAEGSYLIRESQRQPGTYTLALRFGSQTRNFRLYYDGKHFVGEKRFESIHDLVTDGLITLYIETKAAEYIAKMTINPIYEHIGYTTLNREPAYKQHMAVLKETHDEKEATGQDGVSEKRLTSLVRRATLKENEQIPKYEKVHNFKVHTFRGPHWCEYCANFMWGLIAQGVKCADCGLNVHKQCSKMVPIDCKPDLKHVKKVYSCDLTTLVKAHITKRPMVVDMCIREIESRGLNSEGLYRVSGFSDLIEDVKMAFDRDGEKADISVNMYEDINIITGALKLYFRDLPIPLITYDAYPKFIESAKIMDPDEQLETLHEALRSLPPAHCETLRYLMAHLKRVTLHEKENLMSAENLGIVFGPTLMRSPELDPMAALNDIRYQRLVVELLIKNEDILF'
p35
tp36
sS'CGGAAGTGGCCGTGGAGGCGGAAGTGGCGCGGCCGCGGAGGGGCCTGGAGTGTGGCGGGACCGGGAGCGGCGGGAGCTGCGGCTGGGGGCGGCGGCGGCGGCGGCGGCGGAGGCGCGCTGGAGGTGGCCATGGCCAAGCAGTACGACTCGGTGGAATGCCCGTTCTGCGATGAGGTCACCAAGTACGAGAAACTTGCCAAGATCGGCCAAGGCACATTCGGGGAAGTCTTTAAAGCCAAGCACCGTCAGACGGGCCAGAAGGTGGCTCTGAAGAAAGTGTTGATGGAGAATGAGAAGGAGGGGTTCCCCATCACAGCCTTGAGGGAAATCAAGATTCTACAGCTCCTAAAACATGAGAATGTGGTGAACCTAATTGAGATTTGTCGGACCAAAGCCTCACCGTATAACCGCTGCAAGGGCAGCATCTATCTGGTGTTTGACTTCTGTGAGCATGACCTTGCTGGGCTGCTGAGCAACGTCTTAGTCAAGTTCACGTTGTCTGAGATCAAGAGAGTGATGCAGATGCTGCTGAACGGCCTCTACTACATCCACAGGAACAAGATCCTGCACAGGGACATGAAGGCTGCGAATGTGCTCATTACCCGGGATGGGGTCCTGAAGCTGGCAGATTTTGGGCTGGCCCGTGCCTTCAGCCTAGCTAAGAATAGCCAGCCCAACCGATACACCAACCGTGTGGTGACATTGTGGTACCGGCCTCCGGAGCTGCTGCTCGGAGAGCGGGACTACGGCCCGCCCATTGACCTTTGGGGTGCTGGGTGCATCATGGCAGAGATGTGGACTCGTAGCCCTATCATGCAGGGTAACACAGAGCAGCACCAGCTCGCCCTCATCAGCCAGCTCTGTGGCTCCATCACCCCAGAGGTGTGGCCAAACGTAGACAAGTATGAGCTGTTTGAAAAGCTGGAACTTGTGAAGGGCCAGAAGCGGAAGGTGAAGGACCGTCTGAAGGCCTACGTGCGCGACCCCTATGCTCTGGACCTCATTGACAAGCTGCTGGTGCTGGACCCCGCGCAGCGGATTGACAGTGACGATGCCCTCAACCACGACTTCTTCTGGTCGGACCCCATGCCCTCGGACCTCAAGGGCATGCTGTCTACTCACTTGACGTCTATGTTTGAGTACCTGGCACCGCCACGGCGGAAGGGCAGCCAGATCACCCAGCAGTCCACCAACCAGAGCAGAAATCCCGCCACCACCAACCAGACGGAATTTGAACGTGTCTTCTGAGGCCGGAACTGGCCGGTGTTGTTCTTAGGTTAGGAGTGGATTGCTTCCTTTGCATGGAACATGTGACATGATGGGACATTTGAGATTTTCTCCTCCAGTACATATTAACTCCCACCCTGGCACTGGGAACAGCTGCCTGAGTGGGCTGGGGTGGAGCTATCCTGCCTGCCCCTCTCTGGAGGTCTCAGCGTGGACACAAAGTGAGGTGGGAGAGGCTCACCCACTGTGACTTTCTAAGAACTACTTGCATGGTGGGAGGAAGGCACAGGTCCCTCGCCATCGCCAGCTCTTCCTCTGGATGAGAGTTTGAGGGACAGAGGCGCCTCCAAAATGGGCTACTTTTGGTCTGGACCTTAGGGGCGTGGGGCTGTGTGAACTCCTGGTTCCTTTAAAAGGAGAATTTTATTTTGTTTTGTTAAGTTTAGAGACATTCCTGGACGCAGTTTGATTGGTTAAATTAAAAGTTGGTTATTTTTTTCCAGTAAAAAAAAAAAAAAAAAAAAAAAAAAAAAAAAAAA'
p37
(I40
S'MAKQYDSVECPFCDEVTKYEKLAKIGQGTFGEVFKAKHRQTGQKVALKKVLMENEKEGFPITALREIKILQLLKHENVVNLIEICRTKASPYNRCKGSIYLVFDFCEHDLAGLLSNVLVKFTLSEIKRVMQMLLNGLYYIHRNKILHRDMKAANVLITRDGVLKLADFGLARAFSLAKNSQPNRYTNRVVTLWYRPPELLLGERDYGPPIDLWGAGCIMAEMWTRSPIMQGNTEQHQLALISQLCGSITPEVWPNVDKYELFEKLELVKGQKRKVKDRLKAYVRDPYALDLIDKLLVLDPAQRIDSDDALNHDFFWSDPMPSDLKGMLSTHLTSMFEYLAPPRRKGSQITQQSTNQSRNPATTNQTEFERVF'
p38
tp39
sS'GGGAAAAACACATGGTGGCTCTGCGCTACAAGACTCAAGTGGCGTTCTCTGCGGCTGACTGGAACTTCTCTCGTAGTGACGGACCTCAAAACTGACTCGGAAGATGCTGGCCTCCAAGCACACACCATGGAGGCGGCTTCAGGGCATTTCCTTCGGAATGTATTCGGCCGAAGAGCTCAAGAAGTTAAGTGTTAAATCCATTACAAATCCTCGATACGTGGACTACCTGGGAAACCCTTCAGCAAATGGCCTGTATGATTTGGCTTTGGGTCCTGCAGATTCCAAAGAAGTATGCGCTACCTGCGTGCAGGACTTCAACAACTGCTCTGGACACCTGGGCCACATTGATCTCCCGCTCACAGTCTACAACCCTTTCCTCTTTGATAAACTCTACCTGCTGCTTCGAGGCTCCTGTTTGAGTTGCCACATGCTGACTTGTCCTCGGGCTGCAATTTACCTGTTGATCTCCCAGCTGAGGGTCCTGGAAGTTGGAGCCCTGCAAGCAGTCTACGAGCTTGAGCGAATTCTCAGCAGGTTTCTGGAAGAAACTGGAGATCCTTCCGCCTTCGAAATTCAAGAAGAGTTAGAAGAATACACAAGCAAAATTCTGCAGAACAACCTCTTGGGGTCCCAGGGCACACATGTGAAAAATGTGTGCGAGAGCAGAAGCAAACTTGTCGCTCAGTTCTGGAAGACACACATGGCTGCGAAGCAGTGTCCACACTGCAAGACGGGACGGTCGGTGGTTCGAAAGGAGCACAATAGTAAACTAATCATCACATACCCAGCCACGGTGCACAAGAAATCAGACCAGGAGGGCACAGAACTCCCAGAAGGAGTGCCGGAAGCTCCAGGAATTGACAAGGCTCAGATGGGGAAACGAGGGTACCTGACCCCAAGCAGCGCCCAAGAACACCTTTTCGCCATTTGGAAGAATGAAGGATTCTTTCTGAATTATCTTTTTTCGGGATTGGATGATATTGGCCCAGAGTCCAGTTTCAACCCCAGTATGTTCTTTCTAGACTTCATAGTCGTACCGCCATCCAGGTACCGTCCCGTCAATCGCCTGGGTGACCAGATGTTCACTAATGGCCAGACAGTAAACTTGCAAGCTGTCATGAAGGATGCAGTTTTGATCCGGAAACTTCTGGCGTTGATGGCCCAAGAACAGAAACTGCCCTGTGAGATGACAGAACTCACCATAGACAAGGAAAATGACTCCTCAGTGGCTATCGACCGATCCTTCCTGGGTTTGCTTCCAGGCCCGTCTCTCACAGATAAACTTTACAACATTTGGATTCGCCTTCAGAGCCACGTCAATATTGTGTTTGACAGTGAGATGGACAAATTGATGTTGGAAAAGTACCCTGGCATAAGACAGATCCTAGAGAAGAAGGAAGGCCTGTTCCGGAAGCACATGATGGGAAAGCGAGTTGACTACGCAGCCCGCTCGGTCATCTGCCCAGACATGTACATCAACACCAATGAGATCGGAATCCCCATGGTATTTGCCACAAAACTGACTTACCCTCAGCCAGTTACCCCCTGGAACGTGCAGGAACTGAGACAGGCAGTCATCAATGGACCCAATGTGCACCCAGGAGCCTCCATGGTCATCAACGAGGATGGCAGTCGCACAGCCCTGAGCTCAGTGGATGCTGCGCAGCGGGAAGCTGTGGCCAAACAGCTCCTGACACCAGCCACAGGGGCTCCGAAGCCTCAGGGGACAAAAGTTGTGTGCCGGCATGTGAAAAATGGGGACATCCTCCTCCTGAACCGACAGCCTACCTTGCACAGACCCTCCATCCAGGCCCACCGTGCCCGCATTCTGCCTGAAGAAAAAGTCCTACGCCTTCACTATGCCAACTGCAAGGCCTACAATGCTGACTTTGATGGAGATGAGATGAACGCCCACTTCCCCCAGAGTGAGTTGGGCCGAGCTGAAGCCTATGTCCTGGCCTGCACTGATCAGCAGTATCTTGTTCCCAAGGATGGCCAGCCATTGGCAGGACTGATCCAAGATCACATGGTTTCAGGTGCAAACATGACCATTCGGGGATGCTTTTTCACCCGGGAACAGTACATGGAACTGGTGTACCGAGGGCTCACAGACAAAGTGGGACGCGTGAAGCTCTTTCCTCCCGCCATCCTGAAGCCCTTCCCACTGTGGACAGGAAAACAGGTTGTGTCGACCCTCCTCATAAACATAATTCCAGAGGACTACGCCCCCCTGAACTTATCTGGAGAGGCAAAAATTGGCAGCAAAGCCTGGGTGAAGGAAAAGCCACGGCCTATCCCTGACTTTGACCCGGACTCCATGTGTGAGTCCCAGGTGATCATCAGGGAAGGAGAGCTGCTCTGCGGAGTGCTGGACAAGGCACACTATGGGAGCTCTGCCTACGGCCTGGTCCACTGCTGCTATGAGATCTATGGGGGTGAGACCAGCGGCAGGGTTCTCACCTGCCTAGCCCGCCTCTTCACTGCCTACCTCCAGCTCTATAGAGGTTTCACCTTGGGTGTAGAAGACATTTTGGTTAAGCCAAATGCAGATGTGGTGAGACAGCGTATCATTGAAGAATCTACCCAGTGTGGACCCCAGGCTGTCAAGGCTGCATTGAGCCTGCCAGAAACTGCATCATGTGATGAAATCCAAGGGAAATGGCAGGATGCCCATCTGAGCAAAGACCAGAGGGATTTTAACATGATTGATAAGAAGTTCAAGGAGGAAGTGAACCATTACAGCAATGAGATTAACAAGGCATGTATGCCTCTTGGCTTGCACAGACAGTTCCCCGAAAACAACCTGCAGATGATGGTGCAGTCAGGAGCCAAAGGGTCAACCGTGAACACGATGCAAATCTCTTGCCTGCTGGGCCAAATTGAATTGGAAGGTCGGAGACCCCCACTGATGGCGTCTGGCAAGTCACTGCCCTGCTTTGAGCCTTACGAGTTCACCCCCAGGGCTGGTGGCTTTGTCACTGGAAGGTTTCTTACCGGTATCAGGCCTCCTGAGTTCTTCTTCCACTGCATGGCAGGACGAGAAGGCCTGGTGGACACTGCTGTCAAAACCAGCCGTTCTGGCTATCTCCAAAGGTGTATCATCAAGCACCTGGAGGGGCTGGTCATCCAGTACGATCTGACGGTCCGTGACAGCGATGGCAGCGTGGTCCAGTTCCTGTATGGGGAGGACGGCCTGGACATCCCCAAGACACAGTTCCTACAGCCCAAGCAGTTCCCCTTTCTGGCCGGCAATTATGAGGTGATAATGAAATCCAAGCATCTTCATGAAGTTTTATCCAGAGCAGATCCCCAGAAAGTGCTCGGCCACATCAAAGCCATTAAAAAATGGCATCACAAGCATTCCGGTGCCCTGCTGAGGAAAGGCGCCTTCCTCAGTTTTTCCCAGAAGATCCAGGCAGCTGTGAAAGCTTTGAACCTAAAGGGCAGTATCCAGAATGGCCGCAGCCCCGAGACCCAGCAGATGTTACAGATGTGGTATGACTTGGATGAAGAGAGCCGATGGAAATACCAGAAGAGGGCTGCCCCTTGTCCCGACCCTAGCCTTTCTGTGTGGCGCCCAGACATCTACTTTGCATCTGTGTCTGAAACATTTGAAAAGAAGATTGATGACTTCAGTCAGGAATGGGCAGCTCAAGCAGAGAGGAGTTACAAGAAATCAGAGCTTTCCCTCGACAGGCTGAGAACCTTACTGCAGCTGAAGTGGCAGCGCTCACTGTGTGACCCAGGCGAGGCTGTTGGCCTCCTGGCTGCCCAGAGCATCGGAGAGCCCTCCACACAGATGACACTGAACACCTTCCACTTTGCAGGCAGAGGCGAGATGAACGTCACCCTGGGCATTCCAAGATTGAGGGAGATTCTCATGGTGGCCAGTGCCAACATCAAAACGCCCATGATGAGTGTGCCTGTGTTCGACACCAAGAAAGCATTGAAGAAAGTGAAGAGTCTAAAGAAGAGGCTCACCAGAGTGTGCCTGGGGGAGGTATTGCAGAAAGTTGACATCCAGGAGTCCTTCTGTATGGGAGAAAAACGGAATAAGTTCCAGGTGTATGAGCTCCGGTTTCAGTTCCTGCCACATGCATATTACCAGCAGGAGAAGTGCCTGAGACCCGAGGACATCTTGCACTTCATGGAAACCAGATTCTTTAAGCTACTAATGGAAGCTATCAAAAAGAAGAAAAACAAAGCATCAGCCTTCAGAAATGTGAATTCGAGGAGAGCTACACAGAAGGACCTCAATGACACTGAGGACTCGGGGAGGAGTCAGAGAGAGGAGGAAAGGGATGAGGAAGAGGAGGGGAACATTGTGGATGCTGAAGCTGAGGAGGGCGATGCAGACGCTTCTGACACCAAACGC'
p40
(I13
S'MLASKHTPWRRLQGISFGMYSAEELKKLSVKSITNPRYVDYLGNPSANGLYDLALGPADSKEVCATCVQDFNNCSGHLGHIDLPLTVYNPFLFDKLYLLLRGSCLSCHMLTCPRAAIYLLISQLRVLEVGALQAVYELERILSRFLEETGDPSAFEIQEELEEYTSKILQNNLLGSQGTHVKNVCESRSKLVAQFWKTHMAAKQCPHCKTGRSVVRKEHNSKLIITYPATVHKKSDQEGTELPEGVPEAPGIDKAQMGKRGYLTPSSAQEHLFAIWKNEGFFLNYLFSGLDDIGPESSFNPSMFFLDFIVVPPSRYRPVNRLGDQMFTNGQTVNLQAVMKDAVLIRKLLALMAQEQKLPCEMTELTIDKENDSSVAIDRSFLGLLPGPSLTDKLYNIWIRLQSHVNIVFDSEMDKLMLEKYPGIRQILEKKEGLFRKHMMGKRVDYAARSVICPDMYINTNEIGIPMVFATKLTYPQPVTPWNVQELRQAVINGPNVHPGASMVINEDGSRTALSSVDAAQREAVAKQLLTPATGAPKPQGTKVVCRHVKNGDILLLNRQPTLHRPSIQAHRARILPEEKVLRLHYANCKAYNADFDGDEMNAHFPQSELGRAEAYVLACTDQQYLVPKDGQPLAGLIQDHMVSGANMTIRGCFFTREQYMELVYRGLTDKVGRVKLFPPAILKPFPLWTGKQVVSTLLINIIPEDYAPLNLSGEAKIGSKAWVKEKPRPIPDFDPDSMCESQVIIREGELLCGVLDKAHYGSSAYGLVHCCYEIYGGETSGRVLTCLARLFTAYLQLYRGFTLGVEDILVKPNADVVRQRIIEESTQCGPQAVKAALSLPETASCDEIQGKWQDAHLSKDQRDFNMIDKKFKEEVNHYSNEINKACMPLGLHRQFPENNLQMMVQSGAKGSTVNTMQISCLLGQIELEGRRPPLMASGKSLPCFEPYEFTPRAGGFVTGRFLTGIRPPEFFFHCMAGREGLVDTAVKTSRSGYLQRCIIKHLEGLVIQYDLTVRDSDGSVVQFLYGEDGLDIPKTQFLQPKQFPFLAGNYEVIMKSKHLHEVLSRADPQKVLGHIKAIKKWHHKHSGALLRKGAFLSFSQKIQAAVKALNLKGSIQNGRSPETQQMLQMWYDLDEESRWKYQKRAAPCPDPSLSVWRPDIYFASVSETFEKKIDDFSQEWAAQAERSYKKSELSLDRLRTLLQLKWQRSLCDPGEAVGLLAAQSIGEPSTQMTLNTFHFAGRGEMNVTLGIPRLREILMVASANIKTPMMSVPVFDTKKALKKVKSLKKRLTRVCLGEVLQKVDIQESFCMGEKRNKFQVYELRFQFLPHAYYQQEKCLRPEDILHFMETRFFKLLMEAIKKKKNKASAFRNVNSRRATQKDLNDTEDSGRSQREEERDEEEEGNIVDAEAEEGDADASDTKR'
p41
tp42
sS'ACTTCCGTCGGGCTTGCCGGGAGTCGCGCGCTGCTGCATCCACGGAGGCGGTGGGCTCGGGCAGTCATGGAGCACTCGGGAACCAGCGAAGTGACAGGCGCAGACACGGCGGGACCCGACCCTCAGCTGGCGGTCACCATGGGCTTCACAGGATTCGGGAAGAAAGCTCGCACATTTGACTTGGAGGCCATGTTCGAGCAAACTCGAAGGACAGCGGTGGAAAGAAGCCGGAAAACACTGGCGGAACCAGTATTTGGAAGGCTGGGCCAGAGGTGGCTGTCACCATTGCTTGTTGACCCAGACAGTATAGAACATTGTGACACACACTGATGTGGCTGCTGCTGTTGAATCCCTGCTTTAATGAGCTGTAGGAGATACTTAATGAAGCCTTACTTCCAGATGGCTTTTCCAGATGGTTGGCAGTTCTAGGAACCACCTTAGGGTCTCCAGAGAACACTGGCAGTGTGCTTTTTTTGGCTCTAACTCAGATCTCTCTTGTACTAGAGGACGGTCTGGAGTCTGGGAACAGCTGGATTTAAATCAGTGCTGTGATAGTACTTGTCATGTTTGTTTATTTTTGTTTTTGTTTGCAGTTGAGACAGGGTCACACTGTAATCCTGGCTGACTTTCTGTGTAGACCAGGATGGCTTTGACTTCTGGCAGGGTATCTCCTTCAGCCTCCTGAATGCTCAGATTAGAGGAACGAGCTACCAATACCTAGATCTGACCCAAATTCAATTTTAGTGACAAAGAAGAGATATGGGATCTTACAATATTACCCTGGGGAGGCTTGAACTCATGGACCAAGTTATCCTTCTGTCTCAGCTCCCTGAGTACCAAGTATTTAGGAGTGCACTACTGTGCCCAGCAGTTAGTTTTGGTTTTAAAATGCTGAATTGTGGGGCTGGAAGGTGGCTCAGCGATTACGAGGACTAGATATTCTTCCAGAGCACCTGGGTGGAGTTCCCAGCATCCACCAGATCTCACAACCCCTTGACCTTCAGAGTCTGGGGATAGGACACCCTCTTCCGGCCTCCTTGGACACTGCACACATATGGTGCCCAGACATCCATGCAGGCAAAAGCATTCATACATGTAACAGTAATAAATAAAATGTTCAAAAGTTAAAATGGTGCATTATTCAGCAATACATATACTATATGGTTAGTGAACTTGAAGCTAATATCACTGGAAGTAAGCCTTTTTGGTGAGATGTAAAGATGTCGATGTGTATATAGTCATATGTACGTATGGTTTTTTTGAGACAGGATCTCACTAAAACTTATCATATAGACTGGGCTGGCCTTAGACTTACAGAGATCCTCAGCCTCTATTTCCTGAATGCTGGGATGAAAGACATGTGCCATTAAGGTGCCCCCCTCACTCTCCCCCCTTCTTTTTGTTGTTTTTTTTTTTTTTTTTTTTTTTTTAAGACAAGGTAGCCTGAAACTTGGTATGTAGGTTAGACTGGCTTCTAACTCAAAGAGATCCACCTGCTTCTACCTCCCAAGTGCTGGCATTAAAGGCGTGTAACCCTGTGTCTGGCTGCTACTGCTTTTTAAAATTCATTATGAGAAATTATAAACTTATAAGTATTACTATCTATATAAGCTACTATTATTCATGGTTAGTTATTATTTTCTTATTGCTATAATAATAAACATTTTTATTTGCTTTTCCTCTCTGATTATTTTGAAGC'
p43
(I21
S'MEHSGTSEVTGADTAGPDPQLAVTMGFTGFGKKARTFDLEAMFEQTRRTAVERSRKTLAEPVFGRLGQRWLSPLLVDPDSIEHCDTH'
p44
tp45
sS'TTTGTGTGGACAGTAATGACCGCACGTTTCCGATTGCCTGCTGGCAGAACCTACAATGTCCGAGCATCAGAGTTGGCCCGAGACAGACAGCATACAGAGGTCGTTTGCAACATTCTTCTTCTGGATAACACTGTACAGGCTTTCAGAGTTAACAAACATGATCAGGGGCAAGTTCTGTTGGATATAGTCTTCAAGCATCTTGATTTGACTGAGCGAGACTATTTTGGTTTACAGTTGGCTGACGATTCCACAGATAACCCAAGGTGGCTGGATCCAAACAAACCAATAAGGAAGCAGCTAAAGAGAGGATCACCTTACAATTTGAACTTTAGAGTCAAATTCTTTGTAAGTGACCCCAACAAGTTACAAGAAGAGTATACAAGGTATCAGTACTTTTTGCAAATTAAGCAAGACATTCTTACTGGAAGATTATCCTGTCCTTGTAACACTGCTGCCCTTTTAGCATCATTTGCTGTTCAGTCTGAACTTGGAGACTACAATCAGTCAGAAAACTTGGCAGGCTACCTCTCAGATTATTCTTTCATTCCTAATCAACCTCAAGATTTTGAGAAAGAAATTGCAAAGTTACATCAGCAGCACGTTGGCCTATCTCCTGCAGAAGCAGAATTTAATTACCTAAACGCGGCACGTACCTTAGAACTCTATGGAGTTGAATTTCACTATGCAAGGGATCAAAGTAACAATGAAATCCTGATTGGAGTGATGTCAGGAGGAATTCTGATTTATAAGAACAGGGTACGGATGAATACTTTTCTGTGGTTGAAGATTGTAAAAATTTCTTTTAAATGCAAACAGTTTTTTATTCAACTTAGAAAAGAGTTGCATGAATCTAGAGAAACATTACTGGGATTTAATATGGTGAATTATAGAGCATGTAAAACTTTGTGGAAAGCGTGTGTAGAACATCATACATTCTTCCGCCTGGATAGACCACTTCCACCTCAAAAAAATTTTTTTGCACATTATTTTACATTGGGTTCCAAATTCCGGTACTGTGGGAGAACTGAAGTCCAGTCAGTTCAATATGGCAAAGAAAAGGCAAATAAAGACAGGGTATTTGCAAGATCTCCAAGTAAGCCTTTGGCACGGAAATTAATGGATTGGGAAGTAGTCAGCAGAAATTCATTATCTGATGACAGGTTAGAAACACAAAGCCTCCCATCCCGGTCTCCACCTGGAACTCCCAACCATCGGAATTCTTCATTCACACAAGAGGCAACCCGGGTTCGGCCGTCTTCAGTTGGTCATTTGGTAGACCATGTGGTTCACATGTCCCCCAGTGAGGATTTTGTAAGTCAGAGATCTCCATCATCAACGCAAGCTAATAGCATAGTTCTGGAGTCATCACCATCACAAGAGACCCCTGAAGATGGGCAGCCACCAGCTTTACCACCCAAACAATCTAAGAAAAATAGTTGGAACCAAATTCATTTTTCAAACTCTCAGCAAGATCTAGTCACCCATACTAATGAATCCTTTGATGTGCCCTCTTCCCCTGAAAAGTCCACTCCTAATGGTGGCATTCCACATGATAACCTTGTTCTAATCAAAATGAAACCTGATGAAAATGGAAGGTTTGGATTCAATGTAAAGGGAGGATATGATCAGAAGATGCCTGTAATTGTTTCCCGGGTAGCACCAGGAACACCTGCTGACCTCTGTGTCCCTCGCTTGAATGAAGGGGACCAAGTGGTACTAATAAATGGTCGGGACATTGCAGAACATACCCATGATCAAGTAGTCTTGTTTATTAAAGCTAGCTGTGAGAAACATTCTGGGGAACTCGTGCTCCTAGTCCGACCTAATGCTGTATATGATGTAGTGGAAGAAAAACTAGAAAGTGAACCAGACTTCCAGTATATTCCTGAGAAAGCCCCACTAGATAGTGTCCATCAAGATGACCATTCCTTGCGGGAGTCAATGATCCAGCTAGCTGAGGGGCTTATCACTGGAACAGTACTGGCACAGTTTGATCAACTCTATCGGAAAAAACCTGGAATGACAATGTCTTGTGCCAAATTACCTCAGAACATTTCCAAAAACAGATACAGAGATATTTCACCTTATGATGCTACACGGGTCCTTTTAAAAGGTAATGAAGACTACATCAATGCAAACTATATAAATATGGAAATTCCTTCTTCAAGTATTATAAATCAATACATTGCTTGTCAAGGGCCATTACCACACACTTGTAAAGATTTTTGGCAAATGACTTGGGAACAAGGCTCCTCCATGGTTGTGATGTTGACCACACAAGTTGAACGTGGCAGAGTTAAATGTCACCAGTATTGGCCAGAACCCTCAGAAAGCTCATCCTATGGATGCTATCAAGTCACCTGCCACTCTGAAGAAGGAAACCCTGCCTATATCTTCAGGAAGATGACACTGTTTAACCAAGAGAAAAATGAGAGCCGTCAACTTACTCAGATTCAGTACACAGCCTGGCCTGACCATGGAGTACCTGATGATTCGAGTGACTTTCTGGATTTTGTTTGTCATGTACGAGACCAGAGGGCTGGAAAAGAAGAGCCCATTATTGTTCATTGCAGTGCTGGAATTGGAAGGACTGGGGTTCTTATTACTATGGAAACTGCCATGTGTCTCATTGAATGCAATCAGCCAGTTTATCCACTAGACATTGTAAGAACAATGAGAGATCAAAGAGCAATGATGATCCAAACACCTAGTCAATACAGATTTGTATGTGAAGCTATTCTGAAAGTTTATGAAGAAGGATTTGTTAAACCATTAACAACATCATCAAATAAATAAAACAAAAAGGTTGGAACAAGTACTGGGAAACTGATTTTGTTATGTTCACTGTGCCATAATACTGCTTGCAAGAAATGGCCTCTCAC'
p46
(I31
S'MTARFRLPAGRTYNVRASELARDRQHTEVVCNILLLDNTVQAFRVNKHDQGQVLLDIVFKHLDLTERDYFGLQLADDSTDNPRWLDPNKPIRKQLKRGSPYNLNFRVKFFVSDPNKLQEEYTRYQYFLQIKQDILTGRLSCPCNTAALLASFAVQSELGDYNQSENLAGYLSDYSFIPNQPQDFEKEIAKLHQQHVGLSPAEAEFNYLNAARTLELYGVEFHYARDQSNNEILIGVMSGGILIYKNRVRMNTFLWLKIVKISFKCKQFFIQLRKELHESRETLLGFNMVNYRACKTLWKACVEHHTFFRLDRPLPPQKNFFAHYFTLGSKFRYCGRTEVQSVQYGKEKANKDRVFARSPSKPLARKLMDWEVVSRNSLSDDRLETQSLPSRSPPGTPNHRNSSFTQEATRVRPSSVGHLVDHVVHMSPSEDFVSQRSPSSTQANSIVLESSPSQETPEDGQPPALPPKQSKKNSWNQIHFSNSQQDLVTHTNESFDVPSSPEKSTPNGGIPHDNLVLIKMKPDENGRFGFNVKGGYDQKMPVIVSRVAPGTPADLCVPRLNEGDQVVLINGRDIAEHTHDQVVLFIKASCEKHSGELVLLVRPNAVYDVVEEKLESEPDFQYIPEKAPLDSVHQDDHSLRESMIQLAEGLITGTVLAQFDQLYRKKPGMTMSCAKLPQNISKNRYRDISPYDATRVLLKGNEDYINANYINMEIPSSSIINQYIACQGPLPHTCKDFWQMTWEQGSSMVVMLTTQVERGRVKCHQYWPEPSESSSYGCYQVTCHSEEGNPAYIFRKMTLFNQEKNESRQLTQIQYTAWPDHGVPDDSSDFLDFVCHVRDQRAGKEEPIIVHCSAGIGRTGVLITMETAMCLIECNQPVYPLDIVRTMRDQRAMMIQTPSQYRFVCEAILKVYEEGFVKPLTTSSNK'
p47
tp48
sS'GCGCTGTGCGGTTCCGGCGTCAGGGCCCGGCATGGCGGGGGTCGGGGCCAGGCCGGGCCGGACCCGGACCTAAATGCCTCTATTTCTCTCCGCGCTGTTGGTCTTGCTGCTGGTTGCGCTTAGCGCACTCTTCCTAGGCCGGTGGCTTGTGGTCCGGTTGGCCACCAGGTGGTGTCAGCGCAAGTTGCAGGCAGAGCTAAAGATTGGCTCCTTCCGATTTTTTTGGATCCAGAATGTCAGTCTTAAGTTTCAGCAGCACCAGCAGACGGTGGAAATTGACAACTTGTGGATTTCCAGCAAACTCCTTAGCCATGATCTGCCAAACTATGTGGCATTGTGCTTTGGAGAAGTGCGCATCAGGACAGATCTACAGAAGGTTTCTAGCCTGTCTGCCCCATTCTCTCAGAACACAGAGGTGGAGCAAAAGGAACTGTCCCTCAGCCCATCCTTGTTGAAGATCTTCTGCCAACTATTCTCCATTCATGTAGATGCCATAAACATCATGGTTCTTAAGGTGGCTACCTCTGAGTCCTTGTGGCACATCCAGATCAGTAGAAGCAGATTTCTTTTGGACAGTGATGGGAAGAGTCTCATCTGTAAAGTGAACCTATCAAAGATCAATAGCAAAGTCCTGAAGAGTGGTCAGCTGGAGGATACATGTCTGGTAGAGCTCTCACTGGCCCTGGACCTGCGCCTACAGGTCAGCGTCAGCAGTTGGCATCTGACGGCTGTCACTGTGGATGTGTGGACACTCCATGCTGAGCTGCATGAAGGTCTCTTCCATAGTCAGCTACTGTGTCATGCCCCAGGCCGGATTTCCAAATCAGTTTCTTGTTCAGATTTGACTGAGAACTTTGCTGAACCAACTCTGCCTGGCCTATACCTCCTCCAGCGGCTGCCAGACCAAGTCAAGGTGAAGATGGAGAACACAAGTGTGGTGTTGTCTATGAACAGTCAAAAACGGCACTTGACTTGGACACTGAAGCTGCTGCATTTCCTGTACCACCGTGATGAGGACCAACTGCCGCTTCGAAGCTTCACAGCAAACTATGATATGGCACAGATGAGCACTGAACTCCTATTGGAAGATGGGTTGTTGCTGTCCCAGAGTCGCCAACGAATTGTCTGCCTCAACTCCCTCAAGGCTAATGTGCAGGTGACCACCATCGACCTCTCAGCTTCTCTAGTTCTGAACACCTGTATCATTCATTACCGACACCAGGAGTTCTCTCACTGGCTCCTTATGCTAGCACTGGAGACCCAAGGAGCCAGTTCACCTGATCTTAAACAAAAAAAAAAAAAAA'
p49
(I10
S'MPLFLSALLVLLLVALSALFLGRWLVVRLATRWCQRKLQAELKIGSFRFFWIQNVSLKFQQHQQTVEIDNLWISSKLLSHDLPNYVALCFGEVRIRTDLQKVSSLSAPFSQNTEVEQKELSLSPSLLKIFCQLFSIHVDAINIMVLKVATSESLWHIQISRSRFLLDSDGKSLICKVNLSKINSKVLKSGQLEDTCLVELSLALDLRLQVSVSSWHLTAVTVDVWTLHAELHEGLFHSQLLCHAPGRISKSVSCSDLTENFAEPTLPGLYLLQRLPDQVKVKMENTSVVLSMNSQKRHLTWTLKLLHFLYHRDEDQLPLRSFTANYDMAQMSTELLLEDGLLLSQSRQRIVCLNSLKANVQVTTIDLSASLVLNTCIIHYRHQEFSHWLLMLALETQGASSPDLKQKKKK'
p50
tp51
sS'CCTGAAGAGACAGTTTTAGCTGGACATGCTGCTGTTGCTGCTGCTGCTGCTGCTGCTCTGGGGGATAAAGGGTGTGGAGGGTCAGAACCCCCAAGAGGGTTTCACCCTGAATGTGGAAAGGAAGGTGGTGGTGCAGGAGGGCCTGTGTGTCCTTGTGCCCTGTAACTTCTCCTATCTCAAGAAGAGGTTGACTGACTGGACTGACTCAGACCCAGTTCATGGATTCTGGTACAGGGAAGGAACCGACAGACGCAAAGATTCCATCGTGGCCACAAATAACCCAATTCGTAAAGCAGTGAAGGAAACCCGGAATCGATTCTTCCTGCTCGGAGAACCTTGGAGGAATGACTGCTCCCTGAACATCAGAGAGATCAGAAAGAAGGATGCGGGGTTATACTTCTTTCGCCTGGAGCGTGGAAAAACAAAGTATAATTACATGTGGGACAAGATGACTCTGGTTGTAACAGCCCTCACTAACACCCCCCAAATTCTTCTCCCGGAGACGCTTGAAGCTGGCCATCCCAGCAACCTGACCTGCTCTGTGCCTTGGGACTGTGGGTGGACGGCACCTCCCATCTTCTCCTGGACTGGTACCTCTGTGTCATTTTTGAGCACCAACACTACAGGTTCCTCAGTGCTAACCATCACCCCTCAGCCTCAGGACCATGGCACCAACCTCACTTGTCAGGTGACCCTGCCTGGAACTGATGTGTCCACAAGAATGACCATCCGTCTCAACGTGTCATATGCTCCAAAGAATCTGACTGTGACCATCTATCAAGGAGCTGACTCAGTTTCCACAATCCTGAAGAATGGCTCATCTCTTCCTATCTCTGAGGGCCAGTCACTGCGTCTCATCTGCAGCACCGACAGCTATCCCCCTGCGAACCTAAGCTGGTCCTGGGATAACCTGACCCTGTGCCCATCAAAGTTGTCCAAGCCCGGGCTCCTGGAGCTGTTTCCAGTGCATCTTAAGCACGGAGGAGTGTATACCTGCCAAGCTCAACATGCCCTGGGCTCCCAACACATTTCCTTGAGCCTGTCTCCACAGAGCAGTGCAACTTTATCTGAAATGATGATGGGGACCTTTGTGGGTTCAGGAGTCACAGCCCTCCTTTTCCTGTCTGTCTGCATCCTCCTCCTGGCAGTAAGATCCTACAGGAGGAAACCAGCCAGGCCAGCTGTGGTAGCTCCGCACCCAGATGCCCTCAAGGTCTCAGTTTCTCAGAATCCCCTGGTTGAATCCCAGGCAGATGACAGCTCTGAGCCCCTGCCTTCCATACTTGAGGCGGCCCCCTCCTCCACAGAGGAAGAGATACATTATGCGACCCTCAGCTTTCACGAGATGAAGCCCATGAACCTGTGGGGGCAACAGGACACTACCACGGAGTACTCAGAGATAAAGTTTCCGCAAAGGACCGCATGGCCATGACCGTGGCTGGAGAAAGCATGGTGGCCCCAGGAGGCTGGCTCTGGAGAAGGAAAGAGTCACCTAGGTTGACATGTGATACACAGGGCTTCAGAGCCATTCCTTCTGTGACACAGGCGTTCTGTGCTGCCCATGCCCCTGTGCTGCCCTGTCCACACAACTGCTATTGTGCCCTGGGAATCATAAGCTTGACCTTTTTACTCCTCTTCTCCCCTTCCCCTCCTTCCCCGCCCCCTCTTCTCCTCCTCCTCTCTCCCCTCTCCTCCCCTCTTCCTTTTGTTTTTTCCAAGACAGGGTTTCTCTGTGTAGCCTTGGCTGTCCTAGAACTTGCTCTGCAGACCAGACTGCCCTTGAACTCTTCTTTCCAAGTGCTGGGATTAAAGATGTGCACCACCACCCAAAAAAAAAAAAAAA'
p52
(I28
S'MLLLLLLLLLLWGIKGVEGQNPQEGFTLNVERKVVVQEGLCVLVPCNFSYLKKRLTDWTDSDPVHGFWYREGTDRRKDSIVATNNPIRKAVKETRNRFFLLGEPWRNDCSLNIREIRKKDAGLYFFRLERGKTKYNYMWDKMTLVVTALTNTPQILLPETLEAGHPSNLTCSVPWDCGWTAPPIFSWTGTSVSFLSTNTTGSSVLTITPQPQDHGTNLTCQVTLPGTDVSTRMTIRLNVSYAPKNLTVTIYQGADSVSTILKNGSSLPISEGQSLRLICSTDSYPPANLSWSWDNLTLCPSKLSKPGLLELFPVHLKHGGVYTCQAQHALGSQHISLSLSPQSSATLSEMMMGTFVGSGVTALLFLSVCILLLAVRSYRRKPARPAVVAPHPDALKVSVSQNPLVESQADDSSEPLPSILEAAPSSTEEEIHYATLSFHEMKPMNLWGQQDTTTEYSEIKFPQRTAWP'
p53
tp54
sS'GCGTGTACCACTGCTCCCCTCCCGTTCAAAGGCGACAAGATCATTTGCCAAAAGGAGGAGGAGGCAAAGGAAGCAACAGGTCTACATGTTCATGAACGGAAGATTGAGGTCATGGAGAATCCTTCCTGTCGGCGAGGAACCACAAACACCAGCAACGGGGATACAAGTGAGAGTGAACTCCAGGTGGGAAGTCTTTTAAATGGGAGAAAGTATAGTGACTCAAGTCTACCTCCTTCAAACTCAGGGAAACTTCAGAGTGAGACGAGCCAGTGCTCACTAATCAGCAATGGGCCATCGTTGGAACTAGGTGAGAATGGAGCGCCTGGAAAACAGAACTCAGAACCAGTAGACATGCAGGATGTCAAAGGTGATCTGAAAAAAGCCCTCGTCAATGGAATCTGTGATTTTGATAAAGGAGATGGTTCTCATTTAAGCAAAAACATTCCAAATCACAAAACTTCTAATCATGTAGGAAATGGTGAGATATCTCCAGTAGAACCACAAGGGACTTCGGGTGCCACTCAGCAAGATACTGCCAAAGGTGACCAACTAGAAAGAGTTTCTAATGGACCTGTGTTAACTCTGGGTGGGTCACCGTCCACAAGCAGTATGCAAGAAGCCCCGAGTGTGGCGACACCGCCGTTGAGTGGTACTGACCTGCCTAACGGACCTCTAGCTTCAAGTTTGAATTCAGATGTGCCTCAGCAACGCCCAAGTGTAGTTGTCTCACCACATTCTACAGCCCCTGTCATACAGGGGCATCAAGTCATAGCAGTTCCCCACTCAGGACCTAGAGTGACCCCTTCTGCTCTATCATCTGATGCTCGGTCTACAAACGGCACAGCCGAGTGCAAAACTGTAAAGAGGCCGGCAGAGGATAATGATAGGGACACTGTCCCGGGAATCCCAAATAAAGTAGGGGTTAGAATTGTTACAATCAGCGACCCCAACAATGCTGGCTGCAGTGCAACCATGGTTGCGGTCCCAGCTGGAGCGGACCCAAGCACTGTAGCGAAAGTAGCAATAGAAAGTGCTGCTCAGCAAAAGCAGCAGCATCCACCGACCTACATGCAGAGTGTGGCCCCACAGAACACTCCTATGCCACCTTCACCAGCTGTACAAGTGCAGGGCCAGCCTAGCAGTTCTCAGCCTTCTCCAGTCAGTGCGTCCAGTCAGCATGCAGATCCAGTGAGAAAACCTGGGCAGAACTTCATGTGTCTGTGGCAGTCTTGTAAAAAGTGGTTTCAGACTCCCTCACAAGTGTTCTATCATGCAGCTACTGAACATGGAGGAAAAGATGTGTATCCGGGGCAGTGTCTTTGGGAAGGCTGTGAGCCTTTCCAACGGCAGAGGTTCTCTTTCATTACCCACTTACAGGATAAGCACTGTTCAAAGGATGCCCTGCTTGCAGGATTAAAGCAAGATGAACCAGGACAAGTGGCAAATCAAAAATCTTCTACCAAGCAGCCCACCGTGGGGGGCACAGGCTCTGCGCCCAGAGCCCAGAAGGCCATTGCAAGCCACCCCAGTGCTGCACTCATGGCTCTGCGGAGAGGCTCAAGGAACCTCGTCTTCCGGGACTTCACAGATGAAAAAGAGGGACCAATAACTAAACACATCCGACTAACAGCTGCCTTAATATTAAAAAATATTGGTAAATACTCAGAGTGTGGGCGCAGATTGTTAAAGAGACATGAAAACAACTTATCAGTGCTCGCCATTAGTAACATGGAAGCTTCCTCTACCCTTGCCAAATGCCTTTATGAACTTAATTTTACAGTTCAGAGTAAAGAACAAGAAAAAGACTCAGAAATGCTGTAGTGAATCCTACCCCACTGACACAGTGGGGTCTCAAAGTCAAATACATTTCACATACTGTTACTGAAGAAAGCACCAAGTCTTAATGGAGCAGAGACCATAGAATGAATTATTTTGTGTCCTCCATGATGCTGAGAGGAAACTTCGTATTCTGATCTCTGAACGAATCCCTTTCTTTTCTGCT'
p55
(I4
S'MENPSCRRGTTNTSNGDTSESELQVGSLLNGRKYSDSSLPPSNSGKLQSETSQCSLISNGPSLELGENGAPGKQNSEPVDMQDVKGDLKKALVNGICDFDKGDGSHLSKNIPNHKTSNHVGNGEISPVEPQGTSGATQQDTAKGDQLERVSNGPVLTLGGSPSTSSMQEAPSVATPPLSGTDLPNGPLASSLNSDVPQQRPSVVVSPHSTAPVIQGHQVIAVPHSGPRVTPSALSSDARSTNGTAECKTVKRPAEDNDRDTVPGIPNKVGVRIVTISDPNNAGCSATMVAVPAGADPSTVAKVAIESAAQQKQQHPPTYMQSVAPQNTPMPPSPAVQVQGQPSSSQPSPVSASSQHADPVRKPGQNFMCLWQSCKKWFQTPSQVFYHAATEHGGKDVYPGQCLWEGCEPFQRQRFSFITHLQDKHCSKDALLAGLKQDEPGQVANQKSSTKQPTVGGTGSAPRAQKAIASHPSAALMALRRGSRNLVFRDFTDEKEGPITKHIRLTAALILKNIGKYSECGRRLLKRHENNLSVLAISNMEASSTLAKCLYELNFTVQSKEQEKDSEML'
p56
tp57
sS'GAGAGTAGAGAGGAAGGTCTAGGAGCCTGTGGAGTCTAAGGAAGATCGCGGGAGGCGTGTTCCTCCGGAGTTTGCTTTTCCTTGGGAGCCTCGCGCGCACACCCATCCCTTCTAGTCTGGCAACTGTGTCTAGGAGGTGGGGAGCCTCTCTCTGATCCACCGGACCATCGCTGGAGCTTGCAGGCTGAGCAAGATCTCCCCCTAGAGAAGCCTGGCTGTCCGGGGAAGTTTCCCCGAGCTGAGACTGTGCTGCAGCCCTGGTCACCCGCCACCCTGCGCGCCACCCTCGTTCTCCAGCTCAGGCTCCGGCTGGCCCGTGCGCGGACCTGGAGCTGTCTGCTTCCGAGGAGCTCTAAGGTGAAAAAAAGAAAGGCGTGAGAGCAACATAAGAAGACTTAAAATCCAGGTTAAGATGAGTATCTTTTGCCTTGCGGCATACTTTTGGCTGACCATGGTGGGAGGCGTAATGGCTGACAATCCGGAGAGATACAGCGCTAATCTAAGCAGCCACATGGAAGACTTCACCCCTTTTCCGGGGACGGAGATCAACTTTCTGGGCCCACCCATCGACCCCCTAATTTGGGCCGTGATAGCAATGGCTCAATGCACGGCTATTGCCACAGCAGACTAAAATCACGAGAGCTTTCAGATATATTAACACTGTGATATCCTGCACCACTTTCATCGTGGGAGTGGTGGGGAACGCAACTCTACTACGAATCATTTATCAAAACAAGTGTATGAGGACGGCCCCAATGCGCTCATAGCCAGCTGGCCTCTTGGAAGACCTTATCTACGTGGTCATTGACCTCCCCATCAACGTGTTTAGCTCTTGCAGGACGCTGCCTTTCGACCACAATGATTTTGGAGTGTTNCTCTGCAAGCTGTCCCCCTTCCTGCAGAAGTCCTCCGTGGGCATCACCGTCTTGAACCTCTGTGCTCTCAGTGTGGACAGGTACAGAGCAGTGGCTTCCTGGAGCCGAGTTCAAGGAATCGAGATCCCCTTGATTACCGCCATTGAAATCGTCTCCATCTGGATTCTTTCCTTCATCTTGGCCATCCCGGAAGCAATCGGCTTCGTCATGGTACCCTTCGAATACAAGGGCGAGCTGCATAGGACCTGCATGCTCAACGCCACGTCCAAGTTCATGGAGTTTTACCAAGATGTGAAGGACTGGTGGCTCTTTGGGTTCTACTTCTGCATGCCCTTGTTGTGCACAGCAATCTTCTACACCCTCATGACCTGTGAGATGCTCAACAGGAGGAACGGCAGCTTGCGGATCGCCCTTAGTGAGCACCTCAAACAGGTAAACACAATTCACAGGAAGGTGGCTGAGGCCTTTGGAAATCAGCACGCCATGGAGGCATTGATCAGTCACTAACGAGATACACTTGCCTCCAGTATGCCGTACAGTAATATGTCGTGCAGATGTGTATTCTAGGAGCAATAGGCTAGGCCACACAGCCTACCGTGAGATAGATAGTACCATTCAATTCTATGGTGTTTGCTCAGTGTTGAAATTTCCAAACCACACATTTCTCAGAACCTCTCTGTCATTGAACTGCACATGACCATGTTGTATGTAACAGATTTACCCTGATTTTCTAAAAATAAAAATGTTCTCTT'
p58
(I25
S'MVPFEYKGELHRTCMLNATSKFMEFYQDVKDWWLFGFYFCMPLLCTAIFYTLMTCEMLNRRNGSLRIALSEHLKQVNTIHRKVAEAFGNQHAMEALISH'
p59
tp60
sS'GAGTCTGCGGGTGCTGGGCTGGGTGCTGGGCTTGGTGCTGAGAAGAGGCTCTGGCTCTTGGCTATTTTCAGGTCAAACACTAAGACTGTGTCCATGTTAGAGCTCATAGAAGTTAATGGAACCCCTGGTAGTCAGCTCTCTACTCCACGCTCGGGCAAGTCACCAAGTCCATCACCCACCAGCCCAGGAAGCCTGCGGAAGCAGAGGATCTCTCAGCATGGCGGCTCCTCGACTTCACTTTCATCCACTAAAGTTTGCAGCTCAATGGATGACAATGATGGCCCTGGGGAAGAAGAGTCTGAGGAAGGCTTCCAGATTCCTGCCACAATAACAGAGAGATACAAAGTCGGGAGAACAATAGGAGACGGAAATTTTGCTGTTGTCAAGGAATGTATAGAGAGGTCGACTGCTCGGGAGTATGCCCTGAAAATCATCAAGAAAAGCAAATGCCGAGGCAAAGAGCACATGATCCAGAACGAGGTCTCCATCCTACGGAGGGTGAAGCACCCCAACATTGTCCTCCTGATTGAAGAGATGGATGTGCCGACTGAACTGTATCTTGTAATGGAATTAGTGAAGGGTGGAGACCTTTTCGATGCCATCACCTCCACTAGCAAATACACAGAGAGAGATGCCAGCGGGATGCTGTACAACCTGGCCAGCGCCATCAAATACCTGCACAGCCTGAACATCGTCCACCGTGACATCAAGCCAGAGAATCTGCTGGTGTATGAGCACCAGGATGGCAGTAAGTCACTCAAGTTGGGTGACTTTGGCCTGGCCACAATTGTCGACGGCCCCCTGTACACAGTCTGTGGCACCCCAACATATGTGGCTCCAGAAATCATTGCAGAGACTGGATATGGCCTCAAGGTGGACATCTGGGCAGCTGGCGTGATCACTTATATCCTGCTGTGTGGCTTCCCTCCGTTCCGTGGAAGTGGGGATGACCAGGAGGTGCTTTTTGACCAGATCTTGATGGGCCAAGTGGACTTTCCATCTCCGTATTGGGACAATGTGTCAGATTCTGCTAAGGAGCTCATCAACATGATGCTGTTGGTTAACGTGGACCAGAGATTTTCAGCCGTGCAGGTCCTTGAGCATCCCTGGGTTAATGATGATGGTCTCCCAGAAAATGAGCATCAGCTGTCAGTAGCTGGCAAAATCAAGAAGCATTTCAACACAGGCCCCAAGCCGAGCAGCACTGCAGCAGGAGTTTCTGTAATAGCACTGGACCACGGGTTTACCATCAAGAGATCAGGGTCTTTGGACTACTACCAACAACCAGGAATGTATTGGATAAGGTATGAGATGGTGCAGCTCAACAGTCAGTGTTTCCATGGCAACGTGCTGGCAGTCTCCATTTACCAGTTCCTTCAGTGGATAAACATGTTTTTGATTTGTTACCCAGTCCATATGCTGCTTTATCGGTTTCATTTTAATCTTGATTGAGATGCCACACCCCCTCATTCCTTTTTTTCACCCATTCTTCACACTGACATTTGCCGGCTTTCTTTCCATCGCACATGCTCAGTATCGATTTCCCCTTACGGTTAAAAGGACAGTATATTCCGTGCTGATGCCAAAGCCTTTGCCTGTTGTTGCTGATTGCAGCAATGATGTTTCCAGTGCTCTCCTGCCCTGTAATAAATGGAACTACAGCT'
p61
(I42
S'MLELIEVNGTPGSQLSTPRSGKSPSPSPTSPGSLRKQRISQHGGSSTSLSSTKVCSSMDDNDGPGEEESEEGFQIPATITERYKVGRTIGDGNFAVVKECIERSTAREYALKIIKKSKCRGKEHMIQNEVSILRRVKHPNIVLLIEEMDVPTELYLVMELVKGGDLFDAITSTSKYTERDASGMLYNLASAIKYLHSLNIVHRDIKPENLLVYEHQDGSKSLKLGDFGLATIVDGPLYTVCGTPTYVAPEIIAETGYGLKVDIWAAGVITYILLCGFPPFRGSGDDQEVLFDQILMGQVDFPSPYWDNVSDSAKELINMMLLVNVDQRFSAVQVLEHPWVNDDGLPENEHQLSVAGKIKKHFNTGPKPSSTAAGVSVIALDHGFTIKRSGSLDYYQQPGMYWIRYEMVQLNSQCFHGNVLAVSIYQFLQWINMFLICYPVHMLLYRFHFNLD'
p62
tp63
sS'GACTTTGTGGAACCTCTAGGGTTAGTGTGCTCCAGATCCCATCATGCTTGGCCTCTGGCTGCTCAGCGTCTTATGGACACCAGTAGCCCCTGGACCTCCTTTGCCCCATGTGAAACAGTATGAAGTGGTTTGGCCTCGGCGCCTAGCTGCATCCCGCTCCCGCAGAGCCCTGCCCTCCCACTGGGGCCAGTACCCAGAGAGTCTGAGCTATGCTCTTGGGACCAGCGGGCACGTTTTCACCCTGCACCTTCGAAAGAACAGGGACCTGCTGGGCTCAAGCTACACAGAGACCTACTCAGCTGCCAATGGCTCTGAGGTGACAGAGCAACTGCAGGAGCAGGACCATTGCCTCTACCAAGGCCATGTGGAAGGGTACGAGGGCTCAGCTGCCAGTATTAGCACCTGTGCTGGCCTCAGGGGCTTTTTCCGAGTTGGGTCCACTGTCCACTTGATTGAGCCTCTGGATGCTGATGAAGAGGGGCAACATGCGATGTATCAGGCAAAGCATCTGCAACAGAAGGCTGGGACCTGTGGGGTCAAAGATACCAACCTGAATGACCTAGGGCCTCGGGCATTAGAAATATACAGGGCTCAGCCACGGAACTGGCTGATACCCAGAGAAACCCGCTATGTGGAGTTGTATGTGGTTGCAGACAGCCAAGAGTTCCAGAAGTTGGGGAGCAGAGAGGCCGTGCGCCAGCGAGTGCTGGAGGTTGTAAACCACGTGGACAAGCTTTATCAGGAACTCAGTTTCCGAGTTGTCCTGGTGGGCCTGGAGATCTGGAACAAGGACAAATTCTACATCAGCCGCTATGCCAACGTGACACTGGAGAACTTCTTGTCCTGGAGGGAACAGAACTTGCAAGGGCAGCACCCACATGACAACGTGCAACTTATCACGGGGGTTGATTTCATTGGGAGCACTGTTGGACTGGCTAAGGTGTCTGCCCTGTGTTCCCGTCACTCCGGAGCTGTGAATCAGGACCACTCCAAGAACTCCATTGGTGTAGCCTCCACCATGGCCCATGAGCTGGGCCACAACCTGGGCATGAGCCATGATGAGGACATTCCAGGATGCTACTGTCCTGAACCACGGGAGGGTGGTGGCTGCATCATGACCGAAAGCATCGGCTCCAAGTTCCCCAGGATATTCAGCAGGTGTAGCAAGATTGACCTAGAGTCATTCGTGACAAAACCCCAGACAGGCTGCCTGACCAATGTTCCAGATGTCAACCGGTTCGTGGGTGGCCCTGTGTGTGGAAACCTGTTTGTGGAGCATGGAGAGCAGTGTGACTGTGGCACACCTCAGGACTGTCAAAACCCCTGCTGCAATGCCACCACTTGCCAGCTGGTCAAGGGGGCAGAGTGTGCCAGTGGTACCTGTTGTCATGAATGCAAGGTGAAGCCAGCTGGAGAGGTGTGTCGTCTCAGTAAGGACAAATGTGACCTGGAGGAGTTCTGTGATGGCCGGAAGCCAACATGTCCCGAAGATGCCTTCCAACAGAATGGCACTCCCTGCCCAGGGGGCTACTGCTTTGATGGGAGCTGTCCCACCCTGGCACAGCAGTGCCGGGATCTGTGGGGGCCAGGTGCTCGGGTAGCAGCCGACTCCTGCTATACCTTTAGCATCCCTCCGGGCTGCAATGGGAGGATGTACTCTGGCAGCCTGCCTTCTGTCTGCAGGATCAACCGGTGTGGAGCGCTGTACTGTGAGGGAGGCCAGAAGCCCCTTGAACGCTCCTTCTGCACTTTCTCCTCCAACCATGGAGTCTGCCATGCTCTTGGCACAGGCAGCAACATTGACACCTTTGAGCTGGTATTGCAGGGCACCAAGTGCGAGGAGGGAAAGGTTTGCATGGATGGAAGCTGCCAGGACCTCCGTGTATACAGATCTGAAAACTGCTCTGCTAAATGCAACAACCATGGGGTATGCAACCACAAGAGGGAGTGCCACTGTCACAAGGGCTGGGCACCACCCAACTGTGTACAGCGGCTGGCAGATGTATCAGATGAACAAGCAGCGTCTACGAGCCTCCCAGTCAGTGTGGTTGTGGTCTTGGTGATCCTGGTGGCTGCGATGGTCATCGTGGCAGGCATCGTCATCTACCGAAAGGCTCCGAGACAAATCCAGAGGAGGAATGTGGCACCCAAGCCTATCTCGGGGCTCTCCAACCCCCTATTCTACACAAGGGACAGCAGCCTGCCAGCTAAGAACAGGCCTCCAGACCCTTCTGAGACAGTTTCTACCAACCAGCCCCCAAGACCCATAGTGAAACC'
p64
(I16
S'MLGLWLLSVLWTPVAPGPPLPHVKQYEVVWPRRLAASRSRRALPSHWGQYPESLSYALGTSGHVFTLHLRKNRDLLGSSYTETYSAANGSEVTEQLQEQDHCLYQGHVEGYEGSAASISTCAGLRGFFRVGSTVHLIEPLDADEEGQHAMYQAKHLQQKAGTCGVKDTNLNDLGPRALEIYRAQPRNWLIPRETRYVELYVVADSQEFQKLGSREAVRQRVLEVVNHVDKLYQELSFRVVLVGLEIWNKDKFYISRYANVTLENFLSWREQNLQGQHPHDNVQLITGVDFIGSTVGLAKVSALCSRHSGAVNQDHSKNSIGVASTMAHELGHNLGMSHDEDIPGCYCPEPREGGGCIMTESIGSKFPRIFSRCSKIDLESFVTKPQTGCLTNVPDVNRFVGGPVCGNLFVEHGEQCDCGTPQDCQNPCCNATTCQLVKGAECASGTCCHECKVKPAGEVCRLSKDKCDLEEFCDGRKPTCPEDAFQQNGTPCPGGYCFDGSCPTLAQQCRDLWGPGARVAADSCYTFSIPPGCNGRMYSGSLPSVCRINRCGALYCEGGQKPLERSFCTFSSNHGVCHALGTGSNIDTFELVLQGTKCEEGKVCMDGSCQDLRVYRSENCSAKCNNHGVCNHKRECHCHKGWAPPNCVQRLADVSDEQAASTSLPVSVVVVLVILVAAMVIVAGIVIYRKAPRQIQRRNVAPKPISGLSNPLFYTRDSSLPAKNRPPDPSETVSTNQPPRPIVKP'
p65
tp66
sS'ATGGACGTTCTGCTTGAGATTTCAAGAATTTTGAATACCAGCTTAGATATGGAAACGCTGTCTATTTGTGTACGGCTTTGTGAACAAGGAATCAACCCAGAAACCTTATCATCTGTTATTAAGGAGCTTCGCAAGGGTACTGAAGCACTAAAGGCTGCTGAAAACACAAGCTGA'
p67
(I0
S'MDVLLEISRILNTSLDMETLSICVRLCEQGINPETLSSVIKELRKGTEALKAAENTS'
p68
tp69
sS'GGGTACTTCTCGGCGCGGCGATTCCTCCGGCCGGGCCCTGCCGTCCCGCGTTCCCCGGAGCGCACGTCTCCGGGGGGAGGGAGCAGGGCTGGTGGGCGCCCGCGGCGCACAGCGGGACCCACGGGGCCCCGCGACCAGCCGAGCCTGGAGCCGGGCCGGGGCGGGGCAGCCGGCTCCAGCCCGGAGCAAACTTCGCCGCCGGGCGGGGCGTGGCGGGGACCCGGGCCCGAGCCGGAGGAGGGGGCGGCCGCGGCCCCTGCCTCTGCGCGCGAGTCGCCGGGCACCATGCTGTCGGGCTCTCCGGGCCAGACTCCGCCGGCGCCTTTCCCCAGCCCTCCACCGCCAGCCCCGGCCCAGCCGCCGCCGCCGTTCCCCCAGTTCCACGTCAAGTCGGGCCTGCAGATCCGAAAGAACGCCATCACCGACGACTACAAGGTCACCAGCCAAGTGCTTGGCCTGGGCATCAACGGGAAGGTGCTGCGGATCTTCGACAAGAGAACCCAGCAAAAATTCGCCCTAAAGATGCTCCAGGACTGTCCGAAGGCGCGCAGAGAGGTGGAGCTGCACTGGAGGGCCTCCCAGTGCCCACACATTGTGCACATCGTGGATGTCTATGAGAACCTGTATGCCGGGAGGAAGTGCCTGCTGATTGTCATGGAGTGTCTCGATGGTGGAGAGCTCTTTAGTCGAATCCAGGACCGAGGAGACCAGGCATTCACAGAAAGAGAGGCGTCAGAGATCATGAAGAGCATCGGCGAGGCCATCCAGTACCTGCACTCGATCAACATTGCTCACCGGGATGTCAAGCCTGAGAACCTCTTATATACTTCCAAAAGGCCCAATGCCATTTTGAAACTCACTGATTTTGGCTTTGCCAAGGAAACCACCAGTCACAACTCTTTGACCACTCCGTGTTATACACCATACTATGTGGCTCCGGAAGTCCTGGGCCCGGAGAAGTATGACAAGTCCTGTGACATGTGGTCCTTGGGTGTCATCATGTATATTTTGCTGTGTGGGTATCCCCCCTTCTATTCCAATCACGGCCTTGCCATCTCTCCGGGCATGAAGACTCGTATTCGAATGGGCCAGTATGAATTTCCTAACCCGGAGTGGTCAGAAGTATCAGAAGAAGTGAAGATGCTTATCCGGAATCTGCTAAAAACAGAGCCCACCCAGAGAATGACCATCACAGAATTCATGAACCACCCCTGGATCATGCAATCTACGAAGGTCCCTCAGACTCCACTGCACACCAGCCGTGTCCTGAAGGAGGACAAGGAACGATGGGAGGATGTCAAGGAGGAGATGACCAGTGCCTTGGCCACGATGCGTGTTGACTATGAGCAGATCAAGATAAAGAAGATAGAAGACGCATCCAACCCTCTGCTTCTCAAGAGGCGGAAGAAAGCTCGTGCTGTGGAGGATGCGGCTCTCGCCCACTGAGCCGCTCTGTCTCCCACCCACTGGAGGACAAGCAATAACTCTACATGAATATATTTTTTAGACAAAGAGACACAAGTTGCCCAATGCTGCCTCCTGTTCTCTTGGGCTGCGTGGCGCCCAGAAATGCCTCCGGCTTTATTCTGCCCTTGGCTCTGGCTCCCCCGAGGTGGGGGCTGGAGGATGTGTGAGGGGCAAGGTGCTCCTGAGCCCGTTGCTCTTTTGCATTTTATCTGTAATTTGGCGTAGAGTTTTTATGGAACCTGTCTTCTTGTCCTTTTCCCCACTCCTCACTCCTTCCCCAGGTCCTTTCCCATCTACAAAGGCTGAGGCTTATCCACAGGTGTTGTGGAAGTTGTTATAGGGAAAGTCCCTAGGTTGCCCTATCTGTCTCCTCTGGCCTCCCACTGTAACGTGGGGTCCTCACTGGCTCTAGAATCTGGGAGTTCCAGGGAGAAGGCAGCAGAGTGGCAGTAGGTGGCCCTTGGAGTCAATGTTCCTTTGCAATTATACAACCCTGGGATTGACTGCTGCCTTTGGAAATTTATTGACTGTATGCTAACTGTGTTTGAATTAATTTATATCAGACTGGAAAATGTACTGGGTGGGTTTTAATTTATTTTTTTCCTCTGACAGTGAAGCATCAGTGTTTTGAAATCCTTTACTCTATAGCTTGCTATCTGGGTGGCCCTGGCAGTGTATACAATGTGTTCCAGCTAGAGCTGCCTTCCAGTGGGCTGTCTCTGGAAACTAGCTGGAAATGCAGCTGAGGATCTGAAATTTCTTTTTTCTTTTCTTTTCTTTTCTTTCTTTTCTTTTCTTTTCTTTCTTTTCTTTTCTTTTCTTTTCTTTCTTTCTTTCTTTCTTTCTTTCTTTCTTTCTTCTTCTTCCTCCTCCTCCTCCTTCTTCTTCTCCTCCTCCTCTTCCTCCTTCTCTTCCTCCTCCTTCTCTTCCTCCTCCTTCTCTTCCTCCTCTTTCTCCTCCTCCTTCTCCTTCTTTCTCCTTCTGCTTCTTTCTCTTCCTCTTCCTCCTCTTCTATTTTGTTCTTCCTTCCATTTCCTTCCCCCACCTTTTTAATTGCACTGTCTTCATAGTATCACATTTGCCAAAGGTGGCAGCTTTGGCACTTAAAGCCCTGAGAAGTGTTTTGCTTTCCTAGACTGTGGGGTGAGCAGAGTGTGCCTGGGAATGTCTGCTTCCTCTTTGTTCAGCTGGAGACAAGCAAGGGTGG'
p70
(I7
S'MLSGSPGQTPPAPFPSPPPPAPAQPPPPFPQFHVKSGLQIRKNAITDDYKVTSQVLGLGINGKVLRIFDKRTQQKFALKMLQDCPKARREVELHWRASQCPHIVHIVDVYENLYAGRKCLLIVMECLDGGELFSRIQDRGDQAFTEREASEIMKSIGEAIQYLHSINIAHRDVKPENLLYTSKRPNAILKLTDFGFAKETTSHNSLTTPCYTPYYVAPEVLGPEKYDKSCDMWSLGVIMYILLCGYPPFYSNHGLAISPGMKTRIRMGQYEFPNPEWSEVSEEVKMLIRNLLKTEPTQRMTITEFMNHPWIMQSTKVPQTPLHTSRVLKEDKERWEDVKEEMTSALATMRVDYEQIKIKKIEDASNPLLLKRRKKARAVEDAALAH'
p71
tp72
sS'CGCGTTTGTACTCGGAGATGCGGAGCTAAAAGGTTCAGGCTTTACTGTGCCGGGAGGAACAGAAGAACTTCCAGAAGAGGAGGGAGGAGGTGGTAGTAGCGGTCGGAGACAGGGTGGCCGCAACATCTCTGTGGAGACAGCAAGTCTGGATGTCTATGCCAAGTACGTGCTGCGAAGCATCTGCCAACAGGTCAGTCTCACCTTCCCCCCCATACCACCTATAAATGCTTCTATGTAATCTAGCCCTGTTTCTAGCCCATGACCACACTACCTCCCTGCTATACATTGGGTCCTTTACCTGCCCCTGGCACAACTTCCCAGGGTTGCCTGCTGTCCTCTAATTATCAGCCTCCTTAGGAATGGGTAGGAGAACGTTGCCTTAAGTCACTGTGTGAGGATAGCAATGATCTACAAGACCCAGTGTTGAGTAGTGCCCAGGCCCAGCGCCTCATGCAACTTATCTGCTACCCACATCGACTGCTGGACAATGAGGATGGAGAAAACCCCCAGCGGCAGCGCATTAAACGTATTCTCAAGAATTTAGACCAATGGACCATGCGCCAGTCCTCTTTGGAGCTACAGTTGATGATCAAGCAGACCCCCAACACTGAGATGAACTCTCTCTTGGAGAACATTGCCAAGGCCACAATCGAGGTTTTCCAACAGTCAGCAGAGACGGGGTCATCTTCTGGAAGTACAGCAAGCAACATGCCCAGCAGCAGCAAGACCAAACCTGTGCTCAGCTCTCTAGAGCGATCTGGTGTATGGTTGGTGGCTCCTCTCATTGCCAAACTGCCCACTTCAGTCCAGGGCCATGTATTAAAAGCTGCTGGGGAGGAACTGGAAAAGGGTCAGCACCTGGGCTCTTCTTCCCGTAAAGAACGAGATCGACAGAAACAGAAGAGCATGTCCCTGTTGAGCCAACAGCCTTTCTTATCACTGGTGCTAACATGTCTGAAAGGACAGGATGAGCAGCGCGAGGGACTCCTGGCCTCCCTCCACAGCCAGGTGCACCAGATTGTGATTAATTGGCGAGAAAACCAGTACTTAGATGATTGCAAACCAAAGCAGCTAATGCATGAGGCACTCAAACTGCGGCTCAACCTGGTGGGGGGCATGTTTGACACTGTGCAGCGTAGTACCCAGCAGACTACAGAGTGGGCCCAGCTTCTCCTTGAGATCATCATCAGCGGCACTGTGGACATGCAGTCTAACAATGAGCTCTTCACTACTGTGTTGGACATGCTGAGCGTGCTTATCAACGGAACGTTGGCTGCAGACATGTCCAGTATCTCGCAAGGCAGCATGGAGGAAAACAAGCGTGCATATATGAACCTGGTGAAGAAGCTTCAGAAGGACTTGGGGGAGCGCCAATCAGACAGTCTGGAGAAGGTTCACCAACTGTTGCCACTACCCAAGCAGAACCGAGATGTCATAACCTGTGAGCCACAGGGCTCCCTTATTGACACCAAGGGCAACAAGATTGCTGGCTTCGATTCCATCTTCAAGAAGGAGGGTCTACAAGTTTCTACCAAACAAAAGATCTCTCCCTGGGAGCTTTTTGAGGGCCTGAAGCCATCAACAGCACCACTGTCATGGGCCTGGTTTGGCACAGTCCGAGTGGACCGCAGAGTGGCACGAGGGGAGGAGCAGCAGCGGCTGTTGCTCTATCATACCCACCTGAGGCCTCGACCCAGAGCCTATTACCTGGAACCACTACCTCTGCCCCCAGAAGATGAGGAGCCACCAGCCCCTGCCCTACTAGAGCCTGAGAAAAAGGCTCCTGAGCCCCCCAAGACTGACAAACCAGGGGCTGCTCCTCCGAGCACTGAGGAGCGCAAAAAGAAGTCTACCAAGGGCAAAAAACGCAGCCAGCCAGCCACCAAGAACGAGGACTATGGCATGGGGCCAGGTCGGAGTGGCCCCTATGGTGTGACAGTGCCTCCAGACCTTCTACACCATGCAAATCCTGGTTCTATATCCCACCTTAGCTACAGGCAAAGCTCCATGGGCCTGTATACCCAAAACCAGCCACTACCTGCTGGTGGCCCTCGTGTGGATCCATACCGCCCCGTGCGATTACCAATGCAAAAGCTGCCAACTCGACCAACTTATCCCGGTGTGCTGCCTACAACTATGTCTACTGTCATGGGCCTAGAACCCTCTTCTTATAAGACATCTGTATACCGGCAGCAGCAACCCACAGTGCCCCAGGGACAGCGCCTTCGCCAACAGCTCCAGCAGAGTCAGGGGATGTTGGGACAGTCATCTGTCCATCAGATGACCCCTAGTTCTTCCTATGGTTTGCAGACTTCCCAGGGCTATACATCCTATGTTTCTCATGTGGGATTGCAGCAACACACAGGCCCTGCAGGTACCATGGTGCCCCCCAGCTACTCCAGCCAGCCTTATCAGAGCACCCACCCTTCTACCAATCCTACTCTTGTAGATCCTACCCGCCACCTGCAACAGCGGCCCAGTGGCTATGTGCATCAGCAGGCCCCAACCTATGGGCATGGACTGACTTCCACTCAAAGGTTTTCACACCAGACACTGCAGCAGACACCCATGATGGGTACCATGACTCCGTTGAGTGCCCAGGGTGTCCAGGCAGGCGTCCGTTCAACTTCCATCCTGCCTGAGCAGCAGCAACAACAACAGCAGCAGCAGCAACAGCAGCAGCAGCAACAGCAGCAGCAGCAACAACAACAGCAGCAGCAGCAGCAGCAACAACAACAGCAGTACCATATCCGACAGCAACAGCAGCAGCAGCAGATGCTACGGCAACAGCAGCAACAACAGCAACAGCAGCAGCAGCAGCAACAGCAGCAGCAGCAACAACAACAGCAACAGCAGCAGCAGCAGCCACACCAGCAGCAGCAGCAGGCAGCTCCTCCCCAACCCCAGCCCCAGTCCCAGCCCCAGTTCCAGCGCCAGGGCCTGCAGCAGACCCAGCAGCAGCAACAGACAGCAGCTTTGGTCCGGCAACTTCAACAACAGCTCTCTAATACCCAGCCACAGCCCAGCACCAACATATTTGGACGCTACTGAGTCACCTGGAGGAACTGCTTGTACACTGGATGTGGCCCAGCCTTTCTGCTTAATTCCCAGTCCCCTTCCTGGGCGAGCTCCAGTAGTGGTTGGGGTCCTTCCCTCAGGCTCCATTTTTAATGAATTTTTAGTATTTTTGTTAATGTGAAACATTGAACTGTTGGGTTTTGTATATTATTTATATAGAGATCCTAGAGCTGCTGCACTCAATACACAGAGCTTCTTTGCAAAAAAAAAAAAAAAAAAAAAAAAAAAAAAAAAAAAAAAAAA'
p73
(I15
S'MQLICYPHRLLDNEDGENPQRQRIKRILKNLDQWTMRQSSLELQLMIKQTPNTEMNSLLENIAKATIEVFQQSAETGSSSGSTASNMPSSSKTKPVLSSLERSGVWLVAPLIAKLPTSVQGHVLKAAGEELEKGQHLGSSSRKERDRQKQKSMSLLSQQPFLSLVLTCLKGQDEQREGLLASLHSQVHQIVINWRENQYLDDCKPKQLMHEALKLRLNLVGGMFDTVQRSTQQTTEWAQLLLEIIISGTVDMQSNNELFTTVLDMLSVLINGTLAADMSSISQGSMEENKRAYMNLVKKLQKDLGERQSDSLEKVHQLLPLPKQNRDVITCEPQGSLIDTKGNKIAGFDSIFKKEGLQVSTKQKISPWELFEGLKPSTAPLSWAWFGTVRVDRRVARGEEQQRLLLYHTHLRPRPRAYYLEPLPLPPEDEEPPAPALLEPEKKAPEPPKTDKPGAAPPSTEERKKKSTKGKKRSQPATKNEDYGMGPGRSGPYGVTVPPDLLHHANPGSISHLSYRQSSMGLYTQNQPLPAGGPRVDPYRPVRLPMQKLPTRPTYPGVLPTTMSTVMGLEPSSYKTSVYRQQQPTVPQGQRLRQQLQQSQGMLGQSSVHQMTPSSSYGLQTSQGYTSYVSHVGLQQHTGPAGTMVPPSYSSQPYQSTHPSTNPTLVDPTRHLQQRPSGYVHQQAPTYGHGLTSTQRFSHQTLQQTPMMGTMTPLSAQGVQAGVRSTSILPEQQQQQQQQQQQQQQQQQQQQQQQQQQQQQQQQQYHIRQQQQQQQMLRQQQQQQQQQQQQQQQQQQQQQQQQQQQPHQQQQQAAPPQPQPQSQPQFQRQGLQQTQQQQQTAALVRQLQQQLSNTQPQPSTNIFGRY'
p74
tp75
sS'ATGCCTCCGCTCTGGGCCCTGCTGGCTCTCGGATGCCTGCGGTGTGGCTGGACTGTGAACCTCCAGCCCCAACTGGCCAGTGTGACCTTTGCCACCAACAATCCTACCCTCACCACCGTGGCCTTGGAGAAGCCTCTGTGCATGTTCGATAGCTCAGAGCCACTCAGCGGCTCTTACGAGGTTTACCTCTATGCTATGGTCGACTCAGCCATGTCCAGGAATGTGTCTGTACAGGACAGCGCTGGCGTCCCACTGAGCACTACTTTCCGGCAAACCCAGGGTGGGAGGTCAGGCCCCTATAAAGCTGCGGCCTTTGACCTGACCCCTTGTGGTGACTTGCCCAGCCTGGATGCTGTTGGAGATGTGACCCAGGCCTCAGAGATCCTGAACGCATACCTAGTCAGGGTGGGCAACAACGGGACCTGTTTTTGGGACCCCAACTTCCAGGGCCTCTGCAACCCACCCCTGACGGCGGCCACTGAGTACAGATTCAAATATGTCCTGGTCAACATGTCCACAGGCTTGGTGCAGGACCAGACACTATGGTCAGATCCCATCCGGACCAACCGGCCCATCCCCTACTTGGCCATCGACACGTGGCCCGGCCGGCGGAGTGGAGGCATGATTGTCATCACGTCCATTCTGGGCTCCCTGCCCTTCTTCCTGCTCGTGGGTTTCGCTGGAGCCATCATCCTCAGCTTTGTGGACATGGGCAGTTCTGATGGGGAAATGACACACGACTCACAGATCACCCAGGAGGCTGTCCCCAAGACCCTGGGGACTTCTGAGCCTTCCTACTCATCTGTGAACCGGGGCCCACCCCTAGACAGAGCAGAGGTGTTCTCCAGCAAGCTTCAAGACTGAAACAACCCAAGCCCCGGCACCAACCCATGGCCACTTTTCAACTTGGCCCTGTGGTTGGCAGTGATGGTGTTTATGCTCTGACTGGACCAGATGTGAAACATGACATCTTGGTCCAACCTCATGAAAAAGCTAAATAA'
p76
(I2
S'MPPLWALLALGCLRCGWTVNLQPQLASVTFATNNPTLTTVALEKPLCMFDSSEPLSGSYEVYLYAMVDSAMSRNVSVQDSAGVPLSTTFRQTQGGRSGPYKAAAFDLTPCGDLPSLDAVGDVTQASEILNAYLVRVGNNGTCFWDPNFQGLCNPPLTAATEYRFKYVLVNMSTGLVQDQTLWSDPIRTNRPIPYLAIDTWPGRRSGGMIVITSILGSLPFFLLVGFAGAIILSFVDMGSSDGEMTHDSQITQEAVPKTLGTSEPSYSSVNRGPPLDRAEVFSSKLQD'
p77
tp78
sS'ATGATTTTAAAGTACATTAAAGAAATTATTTTCCCCTCCATGACAGTGCTTGGCACTCTGGGAAACATGTTTGTTTTTGTGAATTATATGTTCAGTTGGTGGGGAAGCCCTGAGAAGAAACCCATACACCTCATTCTCATCCACTTGGCTTTTACAAACATCATAATCCTTCTTACAAAAGGATTGCAAAAGACAATAGCAGCTTTTGGTTTGAGAAACTTCCTGGATGACATAGGCTGTAAGAGCATTGTCTACCTGGAAAGGGTATCCCGTGGCCTCTCCATCTGTACCAGCAGTCTCCTCACTGTGGTCCAGGCCATCACCATCAGTCCCAGAGCATCTGGATGGAGGAGGCTCAGGACAAAGTCTGCATGGCACATCCTTCCATTCTTGCTATTCTTTTGGATACTCAATGGTTTAATAAGTATGAACCTAATCCATTCCATCACAGGTACAGGTTTTAATATATCACAGCTTGAGAATAGAGACAGCTATTGCTATTTTATGCTAGAAAGTCAGGAAATAAAATGGATTGTTCTCCCTCTCATGGTCATGAGAGATGCAGTGTTTCAGAGTGCCCTGGGAGGGGCCAGTGGCTACATGATATTTCTTCTCCACAAGCACCACCAGCATGTCCTCTACCTTCAGAATTCCAAGCTTCTCTACAGAACTCCCCCTGAGCTGAGAGCTGCCCAGAGTGTCCTCCTTCTGATGCTCTGTTTTGCTTTCTTCTACTGGACAGATTGTGCGTTTTCTCTAATTTTAAGTCTCTCTTCAAGGGACAAAACCTTGATGGTAAATACTCAAGAATTTCTGGCCCTTGGTTATGCAACTTTTAGCCCTTTTGTGCTGATTCACAGGGATGGGCTTCTGGTTGATTGGTGGCATGCTCAGATGGAGAAATTGAGAAAATGTTACTCTCGTTTATATGTGCAATAG'
p79
(I5
S'MILKYIKEIIFPSMTVLGTLGNMFVFVNYMFSWWGSPEKKPIHLILIHLAFTNIIILLTKGLQKTIAAFGLRNFLDDIGCKSIVYLERVSRGLSICTSSLLTVVQAITISPRASGWRRLRTKSAWHILPFLLFFWILNGLISMNLIHSITGTGFNISQLENRDSYCYFMLESQEIKWIVLPLMVMRDAVFQSALGGASGYMIFLLHKHHQHVLYLQNSKLLYRTPPELRAAQSVLLLMLCFAFFYWTDCAFSLILSLSSRDKTLMVNTQEFLALGYATFSPFVLIHRDGLLVDWWHAQMEKLRKCYSRLYVQ'
p80
tp81
sS'GTATTGACGTTACAAATGGTTGTAAGCCACCATGTGAGTGAGTATTGGGAACTAAAGCTGTGTCCTCTGCAAAGACCAGCAAGTGAGCGCTCTTAACTGCTGAGCTCTTTCTCCAGGCCTGAGGGGGAACCCTTTTCTTTTATTAAATGTTTTTTATTTTTGCACTGGATGCATGCCAGCCTCTGCTTTTGAGGGTTCTATGTGCCACGATATAGGGAGGGCCTCCTTTCTCTTTCTGATATTCCTAGAATTTGGCCTGGGCTAGAAACATGAGGTACACTCAGGCTGCTGTGCAGCCTCACACTTCATGTTTGGGTAAATTTTCTTTGTTTTAAGTTTTCTACTCTGTCCCTTGATCTCTCTGCTTACCTGGCTGTTGCTGGGGTTTCAGGTGTGCCGCCCTCCGTGTCTGCTGCAGCAGCACGTGTGGCTGGCTTCTCCTCCAAAACTTCCCCATCGTCTCCCACTGCAGGTGTCTTGCCCCCAGCCATCTTTGAAGCCACTTGTTTTGCCCAGCAGACCTTCTTGAGCTTTTCCTGTGGTTTCTCACCACAGAGTCTGACACCATGGGGGGTTCTGGATAGTGGCTCATCACCTGAACTGCAGGCTGATGTCTCTCGAGTCCTCAGCACCTGACAGTGTGGGTCCCTCGGGAAATAAAGGGAATGGCCAGTGCTTCTCAGACCCTAGGGTGGGGTTTCTGGGTAACCTAGGTGCCATGAAAGAGGCGAGGCCTTCCCCTCTGCTGGGCCAGGTATGACTCTGAGAGGCCCTTCTCACATCTTTCCTAGGCCAGGCGGATGTCATCAGAGCACCGTGGAGCTGCTGAAGCAAGAGTCCCGATGGGTGTTTGAGAATCCCTCTCTGGGTATATTGGATTATCGGGTACTGGGCACTAACTTCAAAGACTACGCTGTCGTCTTCACACAGCTGGAATTTGGGGATGAGGTCTTCAACACAGTGTCGTTGTACAGTCGGACAGAGATGGCTAGCCACGAAGCCATGCAGCTATTCACCAAATGGAGCCAGGGGCTGGGCTTCTTGTCTCAACAGCAGGCTCAGCTGCAGAAGGACCTTTCTTCAACAGAGGCTTGTGGGTGGGATCCTGGGAACTGCTAAGCCCCATTCTCACAACTGGCTCGCTTCTTCTACAGTCACTTGTGCACACAAGATCCTCCAGTGAGTGCCACACCCTGGATATAGCACCACAGCATCCTGGCATCCTGGTGGAGGTGGGCAGGCACGGTCTTTGCACAGTGGCTGGTGGTACTGGCGCTGATTGGCTGCTCTCCTAGGCTCTTGCTTGGGTTCAAAATAAAATGATTTCACAAGT'
p82
(I26
S'MTLRGPSHIFPRPGGCHQSTVELLKQESRWVFENPSLGILDYRVLGTNFKDYAVVFTQLEFGDEVFNTVSLYSRTEMASHEAMQLFTKWSQGLGFLSQQQAQLQKDLSSTEACGWDPGNC'
p83
tp84
sS'GGAAGGACCTCTCCAGAGAATCCAGATTGCTCCTAGGGAGGCTCCAAACCTCCATTTGACAATGGGAAACTGGCTGGTTAACCACTGGCTCTCAGTTTTGTTTCTGGTTTCCTGGTTGGGGCTGAACATTTTTCTGTTTGTGTATGCCTTCCTGAATTATGAGAAGTCTGACAAGTACTATTACACGAGAGAAATTCTTGGGACTGCCTTGGCCTTGGCCAGAGCATCTGCTCTGTGCTTGAATTTTAACAGCATGATGATCCTGATTCCTGTGTGTCGAAATCTGCTGTCCTTCTTGAGGGGCACCTGCTCATTTTGCAACCGTACACTGAGAAAGCCATTGGATCACAACCTCACCTTCCATAAGCTGGTGGCATATATGATCTGCATATTCACAGTTATTCATATCATTGCACACCTATTTAACTTCGAACGCTACAGAAGAAGCCAACAGGCCATGGATGGATCTCTCGCTTCTGTTCTCTCCAGCCTATCTCATCCTGAGAAAGAAGATTCTTGGCTAAATCCCATCCAGTCTCCAAACATGACAGTGATGTATGCAGCATTTACCAGTATTGCTGGCCTTACTGGAGTGATTGCCACTGTAGCTTTGGTTCTCATGGTAACGTCAGCTATGGAGTTTATCCGCAGGAATTATTTTGAGCTCTTTTGGTATACACATCACCTTTTTATCGTCTATATCATCTGCTTAGGGATCCATGGCCTGGGTGGGATTGTCCGGGGTCAAACAGAGGAGAGCTTGGGTGAAAGCCATCCTCACAATTGTTCCCATTCTTTTCACGAGTGGGATGACCATAAGGGGAGTTGCAGGCATCCTCATTTTGCGGGGCACCCCCCTGAGTCTTGGAAGTGGATCCTTGCACCGATTGCTTTTTATATATTTGAAAGGATCCTTCGCTTTTATCGCTCCCAGCAGAAGGTCGTGATTACCAAGGTTGTCATGCACCCATCTAATGTTTTGGAATTGCAGATGAGGAAGCGAGGCTTTAGCATGGAAGTAGGACAGTATATATTTGTAAATTGCCCCTCCATTTCCTTCCTGGAGTGGCATCCCTTCACTCTGACTTCTGCTCCAGAGGAAGAATTTTTCTCCGTTCATATTCGAGCAGCAGGGGACTGGACACGAAATCTCATAAGGACATTTGAACAACAGCACTCACCAATGCCCAGGATCGAGGTGGACGGTCCCTTTGGCACAGTCAGTGAGGATGTTTTCCAGTATGAAGTGGCTGTACTGGTTGGGGCAGGGATTGGGGTCACTCCCTTTGCTTCCATCTTGAAATCTATCTGGTACAAATTCCAGCGTGCCGACAACAAGCTCAAAACACAAAAGATCTATTTCTACTGGATCTGTAGAGAGACAGGTGCCTTTGCCTGGTTCAACAACTTATTGAATTCCCTGGAACAAGAGATGGAGGAATTAGGCAAAATGGATTTTCTAAACTACCGTCTCTTCCTCACTGGCTGGGATAGCAACATTGCTGGTCATGCAGCATTAAACTTTGACAGAGCCACTGACATCCTGACAGGTCTGAAGCAGAAAACTTCCTTTGGGAGACCAATGTGGGACAATGAGTTTTCTAGAATAGCTACTGCCCACCCCAAGTCTGCGGTGGGGGTTTTCTTATGTGGCCCTCGGACTTTGGCAAAAAGCCTGCGCAAACGCTGTCAGCGATACTCGAGTCTGGATCCTAGGAAGGTTCAGTTCTACTTCAACAAAGAAACGTTCTGACTTGGAGGAAGCAGCACAGCTTCCACACTTTCCTTTGCTCTTCACTAACTTGGGGGTCAGTTACTAGATAACCCTTTGCCTCACAAGGCCTTCCCTCCCAACTTCAAGTTTGATCATACATGGGCTTGGCCGACCTGAGAGCTGCATAATTCACAAGTGCAAAACACATGAATTGGTTTTTATTGGGGGGGGGGGGGGCTGTAAATCCTGGGAACCTGCCTTTAGCTGAATTTTGCTGGCTGACACTTGCACAATTTAACATCAGGTGTCTTGCTTGATAATCTTCCCTCCCACTTGTCCCTCACAAAAGATTTCTAAGTAGGGTGACTTTTAAAATATTTATTGAATCCACGACAGAACAACAATCATAAATAAACAACATAGAACGACCAAGCTTCCCACTCCCATATCACCCACTAAGTACATTGTTACATGAGTTAATCCAGTGTGACCAACAATTTACACGTTACTTTGTCAAAATAATTGACTTTCCTTTTTGCTTATTGAACAATTTCCTAGTAATATCTTAAGTATATTAACTGTAATCAAATTTGTACTATAGTTAGAAGCCAACTATATTGTCACTTTGTATTGTTTGGAATAACTGGAAAGGCCTGACGC'
p85
(I3
S'MGNWLVNHWLSVLFLVSWLGLNIFLFVYAFLNYEKSDKYYYTREILGTALALARASALCLNFNSMMILIPVCRNLLSFLRGTCSFCNRTLRKPLDHNLTFHKLVAYMICIFTVIHIIAHLFNFERYRRSQQAMDGSLASVLSSLSHPEKEDSWLNPIQSPNMTVMYAAFTSIAGLTGVIATVALVLMVTSAMEFIRRNYFELFWYTHHLFIVYIICLGIHGLGGIVRGQTEESLGESHPHNCSHSFHEWDDHKGSCRHPHFAGHPPESWKWILAPIAFYIFERILRFYRSQQKVVITKVVMHPSNVLELQMRKRGFSMEVGQYIFVNCPSISFLEWHPFTLTSAPEEEFFSVHIRAAGDWTRNLIRTFEQQHSPMPRIEVDGPFGTVSEDVFQYEVAVLVGAGIGVTPFASILKSIWYKFQRADNKLKTQKIYFYWICRETGAFAWFNNLLNSLEQEMEELGKMDFLNYRLFLTGWDSNIAGHAALNFDRATDILTGLKQKTSFGRPMWDNEFSRIATAHPKSAVGVFLCGPRTLAKSLRKRCQRYSSLDPRKVQFYFNKETF'
p86
tp87
sS'GGCCCGCAGCGGTGCCGGCCCCAGCGACCCTCCGCGGCCCCCAGGTCCTACGCCGCCAGCCTCCATGGACTCGTTCGACCCCCAGCAGCTGGGGCTGTCCCCCGCGCGCTTCGCTGGCACCTTTGGCAGTGGGGCGGCCTCCGTCAGCTGCAGCCGACTCCGCCAGGTTCAAAGTGTCCTGACCCAGAGCAGCAAGTCTCAACCTGATGGGATCCTCTGCATCCTCGGAATTGACAGCAGGTACAATGAAGGCTGTAGAGAGCTGGCAAATTACCTGCTTTTTGGTTTGTACAGTCAGAATGCCACTGATTTTGAGAAAACGGGATTTTCTGAAGAAATTCTAGATGACGTGATTTTATTGATTAAATCAGATAGTGTCCATCTGTACTGTAATCCCGTCAACTACCGCTATCTTTTGCCTTACGTGGCACACTGGAGAAACCTGCATTTCCATTGCATGACGGAAAATGAGTATGAAGATGAGGAAGCAGCAGAAGAATTTAAGATTTCCAGCTTTGTGGACATGGTTCGAGACTGTAGTAGGATTGGTATTCCTTATAGCTCCCAAGGTCACTTACAGATATTTGATATGTTTGTGGTAGAGAAGTGGCCAATTGTCCAGGCCTTTGCACTTGAAGGCATTGGAGGAGATGGATTTTTTACCATGAAATATGAGTTGCAGGACGTGAGTCTGAGTCTGTGGAATGTCTACAGCAGGATGGACCCTGCGTCTCTGGAGAACATGCTTTCAGAAGACCTGGCGGTGTTTGAGCATCAGTGGACGAGCTTCTTTGCTAACTTTGATACAGAAATCCCTTTCCTGCTGGAACTTTCTGAATCTCAGGCGGGTGAGCCATTCAGAAGCTACTTCGGTCATGGAATGCTCTCCAGCCATATTACTGAAAACAGCCCTCATCGGCAGCCTTTTGTTCTCTTTGGCAACCACTCCACACGGGACAACCTGAGCGCTGGCAGCTTTAACTTCCCTTCTGAAGGGCACCTGGTGCGCAACACTGGTCCTGCAGGGAGCTTTGCCAAACACATGGTCGCTCAGTGTGTCTCACCAAAGGGACCTCTGGCCTGTTCAAGAACATACTTTTTTGGAGCTACTCATGTTCCTTATTTGGGTGACAACGAGAAGCTGCCCAGGACCACGGAGCAAATTAGGCTCTTATCCCAGATATATGCTGCTGTTATTGAGGCTGTTTTGGCTGGCATTGCATGTTATGCTAAAACTTGCAGTCTGGCAAAGGCCAAGGAAGTAGCAGAGCACACTCTGGAGTCTGGGTTAGTGTTCACTGAGTTGGTTCCATTCAAAGCAGATCTACGCTCCAAGGTGACTTTTCATATACATGCTGTGAATAACCAGGGAAGAATTGTGCCTCTGAATAATGAAGATAGCTTATCCTTTGTGAAAACGGCTCGTATGACCGTCTATGACATTCCTGACCTGCTGGGAGGAGGAGGAGGAGGATGCTTAGGGTCTGTGGTCTTCTCAGAGTCGTTTTTGACATCTCGGATCTTGGTTAAAGAAAAAGATGGCACTATTACCCCAGAGACCAGCTACATCATCCTGACAGCTGCCATCCCCAGATTCTGTTCCTGGCTGGTAGAAGATAGTGAAATAAAATTGTCTGAGAAAACCCTGCAAGCAACAAAGGGGGACGACTGTTGCTTGGGCACTTTGCTAACAGGAGGAAAGGGAGCGTATCTTTATTCCAACAGTCCACAGTCCGGGCCTGAGGAAGGGAGTGCGTATTTCTTCTCTGGTGGCCTTCTCTTTTCTCACCGTCATCACGGAAGTATCGTCATTGCCAAGGAGCATGTGGATGCTTTCTCCTTCTATGATGGGGACTCCACCAGCGTAGTGGCCGCCCTTCTCATACACTTCCGAAGCTCCATACTTCCTCATCTCCCAGTTCACTTCCACGGATCAAGCAACTTCCTGATGCTTGCCCTTTTCCCCAAATCAAAGATATATCAAGCATTTTACTCAGAGGTCTTCTCTCCCTGGCAACAGCAGGATAACTCAGGGCTTTCTTTAAAAGTGATCCAGGAGGATGGATTATCTGCGGAACAAAAGAGATTGCACTCCAATGCACAGAAGCTCTTCAGTGCGCTGAGCCCTCCTGCCCAGGACTGGAGCTCCCCAAAACTGCTCTCAGGCAAACTTCCTGAGCTGGACCGGTTTCTCCAGCATTTTGCCATCGGCAGCATTGGTCAGGAGCCTGTGATGCGAGCCCATCTTGTGGGCCTGCTGCAGCAACCTGAGATGAGCCCTGCTCACGAAGTAGAGAGTGACAAGGTTGTCATCAGCATTGTAACTGGTCTCCCAGGCTGTCATGCCAGCAAGCTCTGTGCTTTCCTGATCACTCTGCATAAGGAGTATGGCAGATGGATGGTATACCGGCAAATCATGGACAGCTCTGAATGTTTCCATGCTGCCCACTTCCAAAAATACCTTTCCAGTGCCCTGGAGGCCCAACAGAACCGTTCTGCCCGCCAGTCAGCTTACATCCGCAAGAAGACCAGGCTGCTGGTGGTACTACAAGGCTACACAGACGTCATTGATGTTGTGCAAGCCCTGCAGACTCACCCAGACCCAAACGTCAGGTCCTACTTCACCATTGGTGCCGTCACGGTGTGTGTGGAGCCCTTGAGCTGCTACATGGAGCACAGATTTCTCTTTCCTAAATGTCTTGACCAGTGTTCACAAGGTGTGGTGAGTAACGTGGTGTTTACCAGTCACACAGCAGAGCAGAAGCACCCTCTCCTTGTTCAGCTGCAGACCCTCATCAGGGCTTCCAATCCTACCGCAGCCTTCATTCTTGCCGAAAATGGGATTGTCACAAGGAATGAAGACATTGAGCTGATTCTCTCAGAAAATAGTTTTTCGAGTCCCCAGATGCTACGTTCTCGATACTTACTGTTCCCTGGCTGGCAAGCTAGTAAATTTGATGCTGGATCCGTCTTTCCGCTAATGGTTCAGATCTGTGTGTGGTTTGACTGTCCCCTGGAGAAAACCCGCTTTGTGAGCAGGTGCAGAGCAATTCAGTCTTCCATCAAGCCCAGTCCCTTCTCTGGAAACATCTACCACATCCTTGGCAAAGTGAAATTTTCAGATTCTGAAAAGACCATGGAGGTTTGCCACAATACTTTAACCAACTCCCTGACCATTGTGCCAGTTTTGGAGGGACCCACACCACCTCCCAACTCAAGAAGCAGCCCCCAAGACAACGGGCAGCCAGAATGCTACCTTGTGTTCATTGGCTGCTCCCTGAAGGAGGACAGCCTCAAAGACTGGCTTCGACAGTCAGCTAAGCAGAGGCCTCAGAGGAAAGCTCTGAAAACCAGGGGCATGCTGACCCAGCAAGAGATCAAGAACATCCATGTGAAACGCCACTTGGACCCCTTACCTGCAGGCTATTTTTACAATGGCACCCAGTTTGTTAACTTCTTTGGGGACAAGACTGATTTTCACCCACTCATGGACCAGTTCATGAATGATTATGTGGAAGAGGCCAATCGGGAGATCGAGAGGTACAACCGGGAGCTGGAGCAGCAGGAATACCGGGACCTCTTTGAGCAGAAGCCGAAGCCCTAGAGAAAGCTGGGCTTGTGCCTACCAGAGATGAATGAATGAATGGGTGTCCAGCTTTCCTGGAGGCCCCTCCTGAAGGGGCTGTCTCTGTCCTCCCTGGCCTGTGCCTGACAGTGTAGTACATGTTGTCTTTATTCTCTCTTCTCTCTGCACCATGAAAGGCATTGTGTGGACCACTGAGTGAGGGCGGGCACAGGATGAGCAGCTAGCTAGCACTGCCCTGTGAACCAGCAGCTCTGGGTGTCTGGTAAAAGATTCCATTGGACCGATGGACACCATGTAAGGCCGAGGAGAAGCCTTTGGTGTAGCTGCTGGTATTTAGAAGGACCCTGGTTCCCTAAGCAGTGGCCAGGCAGAGATCCACAATGCCTTCTAGATGAGAGCACTTCTGTGGGATGAATGGAAGTGAGATACGATGCTTTCTAGAAATGCAAGGCTCCGTCACTAATTGCAGCACCTTGGGAGGTTTGGTCCTTGAGTTCCTCTCTGTGGCATCACTTGGTTCTCTAATTTAGGGAGAAGAGCAGGCATGCTGCTCGAGCCCTGGAGTGCCTCCCCTCCCTGTTGAGGTGGATATCCTATAACTAGCTTGGACCCAGGGTCTAACCGTTTGGGGACTGTTGGTCTCTAGCACTCAGCCTCCCCACCTCCTGCTAATACATTTCAGAAAACCTCCCAAAACTGCCCCTGGCCCTGAATTTGTTTACTTGGTTCCCAAAGACCAGGAATTTGAAAAATTCTGATATCCAAATTGGAATTCCCTCCAGTAGTTTTGATTTAGGTTGGACCGAACAGCAAAGGTAAACTAACTTGCATTCCCAAGACTGACCTTGCTAATTAGTGTGAGGAATAAGGTCATTAAAGGTGACGTCTGCTAGGATTTGAGTGCCTCTGCTGCTGGACTGTAAATGTTTTCTGAGTTTCATGTACCTTTTGCATGCCTTAGAAGAAGCACATAGTAAAACCAGCATAGTGTTCTGTAATGTAGAAGGGTTTTTGAGAAAGGGCCCTGGCACAGAGGAGAGGTAAGATGGAGCATATGGGTCTGTGTGCCTGGTAACATGGCACTCTTTGGACAAATAGCAAAGTAGTAATCAAGGACTTGTCAATAAAATATACTTGTGTTAGGGGGAAAAAAATGGAAGCTGAATGAACTAAATTACAAGTCCCATTGGGTCAGAAATCTTGCATTAAGAAAAGCTTGTGAAGCCGGGTGTGGTGGCGCACGCCTTTAATCCCAGCACTTGGGAGGCAGAGGCAGGCGGATTTCTGAGTTCGAGGCCAGCCTGGTCTAGAATGAGTTCCAGGACAGCCAGGACTACACAGAGAAACCCTGTCTCGAAAAACCAAAAAAAAAAAAAAAAAAAAAAAAGA'
p88
(I23
S'MDSFDPQQLGLSPARFAGTFGSGAASVSCSRLRQVQSVLTQSSKSQPDGILCILGIDSRYNEGCRELANYLLFGLYSQNATDFEKTGFSEEILDDVILLIKSDSVHLYCNPVNYRYLLPYVAHWRNLHFHCMTENEYEDEEAAEEFKISSFVDMVRDCSRIGIPYSSQGHLQIFDMFVVEKWPIVQAFALEGIGGDGFFTMKYELQDVSLSLWNVYSRMDPASLENMLSEDLAVFEHQWTSFFANFDTEIPFLLELSESQAGEPFRSYFGHGMLSSHITENSPHRQPFVLFGNHSTRDNLSAGSFNFPSEGHLVRNTGPAGSFAKHMVAQCVSPKGPLACSRTYFFGATHVPYLGDNEKLPRTTEQIRLLSQIYAAVIEAVLAGIACYAKTCSLAKAKEVAEHTLESGLVFTELVPFKADLRSKVTFHIHAVNNQGRIVPLNNEDSLSFVKTARMTVYDIPDLLGGGGGGCLGSVVFSESFLTSRILVKEKDGTITPETSYIILTAAIPRFCSWLVEDSEIKLSEKTLQATKGDDCCLGTLLTGGKGAYLYSNSPQSGPEEGSAYFFSGGLLFSHRHHGSIVIAKEHVDAFSFYDGDSTSVVAALLIHFRSSILPHLPVHFHGSSNFLMLALFPKSKIYQAFYSEVFSPWQQQDNSGLSLKVIQEDGLSAEQKRLHSNAQKLFSALSPPAQDWSSPKLLSGKLPELDRFLQHFAIGSIGQEPVMRAHLVGLLQQPEMSPAHEVESDKVVISIVTGLPGCHASKLCAFLITLHKEYGRWMVYRQIMDSSECFHAAHFQKYLSSALEAQQNRSARQSAYIRKKTRLLVVLQGYTDVIDVVQALQTHPDPNVRSYFTIGAVTVCVEPLSCYMEHRFLFPKCLDQCSQGVVSNVVFTSHTAEQKHPLLVQLQTLIRASNPTAAFILAENGIVTRNEDIELILSENSFSSPQMLRSRYLLFPGWQASKFDAGSVFPLMVQICVWFDCPLEKTRFVSRCRAIQSSIKPSPFSGNIYHILGKVKFSDSEKTMEVCHNTLTNSLTIVPVLEGPTPPPNSRSSPQDNGQPECYLVFIGCSLKEDSLKDWLRQSAKQRPQRKALKTRGMLTQQEIKNIHVKRHLDPLPAGYFYNGTQFVNFFGDKTDFHPLMDQFMNDYVEEANREIERYNRELEQQEYRDLFEQKPKP'
p89
tp90
sS'GACATTCCACCAGAAGCTTCCAGATGAGCCCACGGGATAACCCTTCGACAACACTGCTGAGACACGGAGAGCACACACACTTGGGAAACCCAGAAAGAGGCGTACTGAAATATGGCTCAGAGTGACTTCCTCTACCCACAAAACCCAAGGAGGCGACAGGAAGTAAACCGCCTACACCAGCAGCTGCTGGACTGCTTGTCTGACAGCTTCCAGGTCACCAACAAGCTCACAGGGGTTCTTAATACCCACTTGGGTTGCAGGCTGGCCTTCATTGAAATGAAAAGCGATGGAACCATCAAAGAAAACTGTGACATCATTATCCAAGCCATGACAAAAATCCAAAAGGAACTGCAAAAGATTGACGAGGCACTGAAAGACCAACTAGAGCCAACCCTTTATAGGGAAGCTGCAGGATATTAAGGAAAGGGAGACGGAGAAGATTGCCATCGTGCAGAAGGTCATTTCTGTCATCCTGGGAGAAGCTACATCTGCAGCCAGTGCAGTGGCTGTTAAACTGGTGGGCTCAAGTGTCACAACTGGCATAATTAGCAAGCTGGTCTCTGTGCTAGCTCACATCGGGACTTCTCTCCTTGGAAGCATTGGCGTTGCCGTGCTCAGCCTCGGGATAGATATGATCATTCAAGCCATCTTGGGAGCAGTGGAGAGGACACAGCTTCAGGCAGCCATCAAAAGTTATGAGAAGCACCTGGAGGAGTCAAGGCTGCCTCAGCAAAGTACCATCATGCTATCACTGAGGTTGCCACTGCTGTGAAGCGCCAGCTAAGATGAACAGATTAAATACAATTGTCTGCCACCCGGAAATGAAGGCAGAGCAACCTCAACAACATTATGTTCCAGAATGAACGAAAGCCCATGCATCTGCGAGGTTCTCCTCAGTTCAAAGCGTGGCTGGATGGATTGGGAAAGGATGAGATAATAAATGTTGTCTGTAATGCAGTCAATATTGACCACCTGTTTGTCATCTATCTCTTGAGTGGTCAAAGTGTGTGGAACCATTGTAAACAAAACAAGGCATAAAATGCAGTGATCCCTGCATAAAATATGTTAGAGTC'
p91
(I35
S'MAQSDFLYPQNPRRRQEVNRLHQQLLDCLSDSFQVTNKLTGVLNTHLGCRLAFIEMKSDGTIKENCDIIIQAMTKIQKELQKIDEALKDQLEPTLYREAAGY'
p92
tp93
sS'AGCCCGTGGGGCGCCCTTCCCGGTTCACCGACTCCGGCCCCGGGGCCTCCGGCTGTGGTGCTGCCGCCCTCCGTCCCGCCGTCCCTCCCCGTCCAGCTCGGGCCGCCGGGCTCCCGCAGGCCCCACCGCCCGCGTTCCTATGGACAGACGCACAGACACCTGCAGGAGAGACACTGCTGATCCTGTAACATGGAGGATTGTCTTCATACCTCATCTGAGAATCTGTCCAAATTGGTCAGCTGGGCCCACAGCCATGGGACCATTTGCAGCCTCATTCCAAACCTGAAACACTTGCTTTCTGAAGGTTCCCATGGGAACCTGACTGCAATGTGGGGCTGTAGTGCCGGCCATGCGTACCACTGGCCACTAACAGCTACTTGCAGAGCTGGGTCCCAAGAGAGGGTTTGTTTCCAGGACAACCGAAGTTTTAATTCTGATAGTCCCAGTATAATTGGGGTGCCTTCTGAGACACAGACTAGCCCTGTGGAAAGGTACCCTGGGAGACCTGTGAAGGCAAAGCTGGACTGTAATCGGACCAGAGACTCTTGTGACTTCTCTTACTGCAGTGAGCCCTCTGAACTGGATGAAGCTGTCGAGGAGTATGAAGATGAAAACACACTGTTTGACATGGTTTGCGAGTCTTCTGTTACAGATGAGGACAGTGACTTTGAACCCCAAACCCAGAGACCTCAAAGCATTGCTCGCAAAAGGCCAGGAATCGTCCCATCTTCCATCCATTCAAGTTCCCAGGGACAGATGGTCGATGAATGCAGTAATGATGTCATCATCAAGAAAATCAAGCAAGAGATTCCAGAAGATTATTACATTGTGGCAAATGCAGAGCTGACTGGAGGAGTGGATGGACCAGCCCTTTCATTGACACAGATGGCAAAACCCAAACCCCAGACTCATGCTGGTCCCTCCTGTGTAGGGTCTGCTAAACTGATTCCCCATGTAACATCTGCCATCAACACGGAATTAGACCCACACATTCTGTCAGCCTCTCCCTCTGTTATCTCCAGACCGATCATCCCAAAGACTGCTAGGGTATCTCTGGCTTCACCAAACAGAGGACCCCCTGGTGCCCATGGCACTGCCCACCAGGTGACCATGCAGATGCCTGTGAGCACATCACATCCTAACAAACAGATCAGTATCCCTTTGTCTGCTCTGCAGTTGCCTGGACAGGATGAGCAAGTTGCTTCGGAGGAGTTCCTGCCCCACTTGCCTAGCCAGGTCTCATCATGTGAGGTAGCCCTTTCTCCCTCTGTTAACACAGAGCCTGAAGTGAGCTCCAGTCAACAGCAGCCCCCTGCTGCTCCAACCATAACCACTGAAGCCACCGCGCAGTGCATTCCAGCTTATTCTACTAAGCTCAACAAATTTCCTGTATTTAATATTAATGATGACTTGAATGGTCTGTGTACCAGTGCAGTGAGCCCAAACACCACCAAAGCCACGAGGTACGCCCTAAATGTGTGGCGCTACTGGTGCATGACCAACGGGCTCAAAGACCACACGGACATCACCAAGATCCCTGCAGTGAAACTGAATGAGCTGCTTGAGAACTTTTATGTCACCGTCAAGAAGAGTGACGGCTCAGACTTCCTGGCTACCTCGCTTCATGCCATTCGCCGAGGCCTGGACCGCATCCTGAAGAACGCGGGTGTGGGCTTTTCCATCACCAGCAGCACCTTCAGCTCCTCCACCAAGAAACTCAAGGAGAAGCTGTGGGTCCTGAGCAAGGCAGGGATGTCGGGGGCCCGTTCCCGCAATATCGTCTACTTCTCCCTTTCTGATGAGGAGGAGATGTGGCAGGCAGGGTGTCTAGGGGATGACAGCCCAATTACTCTCCTGTCCACAGTGGTCAAGTACAACAGCCAGTATCTGAATATGCGGACTCTGCAGGAACATGCAGATCTGATGTATGGTGACATCGAGTTGCTCAAAGATCCGCAAAACCAGCCCTACTTTGCCCGGACCGACAGTGTCAAGCGGGAGAGCCGGAGTGGTTCGACCAGAGTGTGCCATGGGAAAATCTACCATGAGCACTCCAGGGGACACAAGCAGTGTCCTTACTGCCTCCTCTACAAGTACATGTACATCCACCGGCCACCCACCCAAATGGAGGCCAAGTCTCCCTTCTACCTTACAGCCCGGAAGGAGGCCACGGACATGGGCAGCGTGTGGTACGAAGAGCAGAGAATGGGGTTACGGTCTCTCCGGGGAATTGTCCCAAATTTAGCCAGGAAGGTCAAGCTGGAAAACTGTGAGAACTTCACCTTCGTCTCCTTCACTCAGGTCTCCAGGCGACTTGGCTCCCATAGCTGCTGCCAGTGAGCCCCCAGGGCCAGCAGGTTCTGAAGCCGCAGAGACTGATGTCCTCGCTCCGTGATCCAGCTGGTCTCCGTTACTACAGCCGGCCATTCCTCAGACTTGAGATTCACTTTTACATGAAAGTCGATGACTGAATAATTTGGATGTTTTATCTAAATGTTTGACACCTTGTTAAATCATAGAATATAACACAATATAAAATTACTATATACAAAAGTGAAGAAATTCATTTTATCTAGTGCCTTTTTAGCACAGGTTTTCTTGGAAAAAAAGAAAAGAAAAAGAAAAAAAAATGTTTTGAGTAGTTACTTAAAAAATATCCCAGTAGCCCAGTAGCTTTAGAATGGTATAGAATTATATATACTTTGTTGGTTTTCTGGGGTTTTTTGTTTTTCCCCACGTAGGGACCTAGAGCAGGAGAGGCAGACATAGTAGAGAAAACTCTCACTCAGCACCCTTGTGTTTTGTTGGGGCCCTGGCAGTGGGCTGCTTGCAGAAATAAAAGATACATTGTTGCTACGCTGTCTGTCCATAGAGGCAGTTTGGTGACAGGAAGATCAGTTCTCTGAAAGGGTGTACAGGAAACACGGTGTGCAGTGGACTCGGTGGTGTGCACTGTGAGGAGTTCTAGATAGCGGAGGGTGGACTTGGAAAGCCCCCGCGGCCCAGATGTGAAACCCCCCCGAAGCAGAAGTGCCTGCGTCTGTCCAGTTCTCCTTAGAGAACACTTGCTGTTTGAACTTCCTTTTGTTTGTTTTGTTGTTTAATCTGCATTGTTACATCTCGGATTTACATCTCACAGTTGTGTTGGCAGGAGTCCCTGGACCTGTGAGGCTAGCAGCGATGCTTGACTAGGAGAATCAACAGAGAGAGTCACAAGGCAAACACTCCCAGGGCATCTTAAGGGCCCTGGGAATCCTGTAGGCTGGCACTATGTTAGGGACACTGATTCAGGCAGCCTGCCAGGAAACCAAGCCCGGCACAGGGACATAGTTACTGGATCAGAGTGTCACGGTAGGTCATTCCTGCATTTAAAAATCATTTCGCATTAATAAAAGTCAACCTGACCATGTGTTACTTAAAAAGCAGACTTTTCTAGCAACTACTGTGAATACGTGTTTTTAAAATGGAGCCCAAAGAGTGCTAATTAATAGTAGTAATTTCTACTCTATTTTCTATTCCAGGAAAGACTGCTCTAATTGTACCATTATGTTCTTGTGTATGCTTTCTAATCCCAAATTAAAGCCCCAATGCACATTCATATTGC'
p94
(I34
S'MEDCLHTSSENLSKLVSWAHSHGTICSLIPNLKHLLSEGSHGNLTAMWGCSAGHAYHWPLTATCRAGSQERVCFQDNRSFNSDSPSIIGVPSETQTSPVERYPGRPVKAKLDCNRTRDSCDFSYCSEPSELDEAVEEYEDENTLFDMVCESSVTDEDSDFEPQTQRPQSIARKRPGIVPSSIHSSSQGQMVDECSNDVIIKKIKQEIPEDYYIVANAELTGGVDGPALSLTQMAKPKPQTHAGPSCVGSAKLIPHVTSAINTELDPHILSASPSVISRPIIPKTARVSLASPNRGPPGAHGTAHQVTMQMPVSTSHPNKQISIPLSALQLPGQDEQVASEEFLPHLPSQVSSCEVALSPSVNTEPEVSSSQQQPPAAPTITTEATAQCIPAYSTKLNKFPVFNINDDLNGLCTSAVSPNTTKATRYALNVWRYWCMTNGLKDHTDITKIPAVKLNELLENFYVTVKKSDGSDFLATSLHAIRRGLDRILKNAGVGFSITSSTFSSSTKKLKEKLWVLSKAGMSGARSRNIVYFSLSDEEEMWQAGCLGDDSPITLLSTVVKYNSQYLNMRTLQEHADLMYGDIELLKDPQNQPYFARTDSVKRESRSGSTRVCHGKIYHEHSRGHKQCPYCLLYKYMYIHRPPTQMEAKSPFYLTARKEATDMGSVWYEEQRMGLRSLRGIVPNLARKVKLENCENFTFVSFTQVSRRLGSHSCCQ'
p95
tp96
sS'GATTCCTGCCCCCGTACCCCGTCCTGTCCTCCTCCTCCTCCTCCTCTTCTCTACGTCCCTTTTTTATATCAGCAAGCTAGGGGCGGTGCAACGGTGGGCGGGTCCTAATGACGTGCCCGGACGGGTCTCACACCATAGGAGTCTACAGTTCTTAGTTTGTGGCGGCTTGGGCGGGACGCACGCGGTGCAGTTCAAGATGGCGGATGCAGAAGTAATTACATTCCCAAAGAAGCATAAGAAGAAAAAAGACCGGAAGCCATTACAAGAAGATGATGTTGCCGAAATACAACATGCTGAAGAATTTCTTATCAAACCAGAATCTAAAGTGGCTCAATTAGACACTTCTCAGTGGCCCTTGTTACTAAAGAATTTTGATAAGCTAAATGTAAGGACAGCACACTATACACCTCTTCCTTGTGGTTCAAATCCTCTGAAGAGGGAGATTGGGGACTATATCAGGACCGGTTTCATTAATCTTGACAAGCCCTCTAACCCCTCTTCCCATGAGGTGGTAGCCTGGATCCGACGAATACTTCGGGTAGAGAAGACTGGCCACAGTGGCACACTAGATCCCAAAGTGACTGGTTGTTTAATTGTGTGCATTGAACGAGCCACTCGTTTGGTGAAATCACAACAGAGTGCAGGCAAAGAGTATGTTGGAATTGTCCGGCTGCACAATGCTATTGAAGGGGGTACTCAGCTTTCTAGGGCCCTAGAAACTCTGACAGGTGCCCTGTTTCAGCGACCCCCACTTATTGCTGCAGTAAAGAGGCAGCTTCGAGTGAGGACTATCTACGAGAGCAAAATGATAGAATATGATCCTGAGAGAAGATTAGGAATCTTTTGGGTAAGCTGTGAAGCTGGCACCTACATTCGGACACTATGCGTACACCTTGGCTTGTTACTGGGAGTTGGTGGTCAGATGCAGGAACTTCGGAGGGTGCGTTCTGGAGTCATGAGTGAAAAGGACCACATGGTGACAATGCATGATGTACTCGATGCTCAGTGGCTGTATGATAACCATAAGGATGAGAGTTACTTGCGGCGTGTTGTTTACCCTTTGGAAAAGCTGTTGACATCTCATAAACGTCTGGTTATGAAAGATAGTGCAGTGAATGCAATCTGCTATGGGGCCAAGATCATGCTTCCTGGTCTTCTTCGATATGAAGATGGCATTGAGGTCAACCAGGAGATTGTGGTCATTACTACTAAGGGGGAAGCTATCTGCATGGCAATTGCATTGATGACTACAGCAGTGATTTCTACCTGTGACCATGGTATAGTAGCCAAAATAAAGAGGGTGATCATGGAGAGAGACACTTATCCTCGCAAGTGGGGTTTAGGTCCAAAGGCAAGTCAGAAGAAGATGATGATCAAGCAGGGCCTTCTGGACAAGCATGGCAAACCCACAGACAATACCCCTGCCACATGGAAACAGGATTACATTGACTATAGTGATTCTGGCAAGAACACACTGGTTACCGAAGCAGTACAAGCCCCTCAGTTAGCTGCTGAAGCAGTAAATGTCATAAAAAGGAAGCGGGATAGTGAGAGTGAAAGTGATGAGACCCCAACAGTTCCCCAGTTGAAGGAAAAGAAGAAGAAGAAGGATAAGAAGCCCAAAACTGTGCTAGAAAGTGGGGGCGAAACTGGAGATGGGGACAACGACACCACCAAAAAGAAAAAGAAGAAGAAAGTAAAAGTGGTAGAAGAGATGTCTGAATAGTTTAAGCCACTTCTGGAAGCATTATGTCCAGCTGGGAAGAAAAAGAAAAGCCTTATTGGAAAAACTTTTTGTTGAGGGAGAACAGAGGTCCCAGAGTAGAAAGTTCTGGTATACTTTTAGCTGCCACTTGTGACCTCAGTGGTTAGCTGGTGTGGCCATCTCATCCCATCCTGTCCTGTTTTAAGGATATGAGAGATAAAATCAGGCCTTTGCCACCAACCCCTCTGCTTGCTTGAGGAAGCCACACCTTTAGACATGGCATGGCCTAGTAACTATCTGCAGCTATTTACTAATGAGCATTTTCAACAATGCCATAGATAGTCCTCTCCTACTTTGCTTTTTAAAAAGTTGGTAAAAATTAAATCTGCTACATAAAATGGTATAGAACCTTCTGTGAGAGAAAAAATGTAATTGAACTATGTTCACTGGGGGACTCTTATCTCCAGTGTTCTATGAGGACTGCTCTATTCAGGTATTAACCTTGCCTGGTGGTATCTATGATATTTAGGCTAGTACTCTGTATTTTTGTGTACAACAGGATTTCTCTATATGGCTACTTGTGTTTCTTATGGAAGCCAAAGCATTCCTGTACCTTCCTATTTGTTTTCTTTTAAAGAATGGAATTGCCGGGCGTGGTGGCGCATGCCTTTAATCCCAGCACTTGGGAGGCAGAGGCAGGTGGATTTCTGAGTTCAAAGCCAGCCTGGTCTACAGAGTGAGTTCCAGGACAGTCCAGGCTATACAGAGAAACCCTGTCTCGAAAAAAAAAAAACCAAAAAAACAAAAAACAAAACAAAAAAACCAAAAAACAAAAAAAACAAAAAAAAAAACAAAAAAACAAAAAAAGAAAAAAAAAAGAATGGAATTGTTCAGAATGGAATTGTTCATTGCTGAAGAATGTAATTTGTAGTTTTTTTTTTTTTTAAAAAGTATTCCTGTTAGATTTACTATGATAATCTTGGACTGGCAACAAAAGTGAGAGAATATTTTTATTAAAAGTCTGAGGTTTA'
p97
(I43
S'MADAEVITFPKKHKKKKDRKPLQEDDVAEIQHAEEFLIKPESKVAQLDTSQWPLLLKNFDKLNVRTAHYTPLPCGSNPLKREIGDYIRTGFINLDKPSNPSSHEVVAWIRRILRVEKTGHSGTLDPKVTGCLIVCIERATRLVKSQQSAGKEYVGIVRLHNAIEGGTQLSRALETLTGALFQRPPLIAAVKRQLRVRTIYESKMIEYDPERRLGIFWVSCEAGTYIRTLCVHLGLLLGVGGQMQELRRVRSGVMSEKDHMVTMHDVLDAQWLYDNHKDESYLRRVVYPLEKLLTSHKRLVMKDSAVNAICYGAKIMLPGLLRYEDGIEVNQEIVVITTKGEAICMAIALMTTAVISTCDHGIVAKIKRVIMERDTYPRKWGLGPKASQKKMMIKQGLLDKHGKPTDNTPATWKQDYIDYSDSGKNTLVTEAVQAPQLAAEAVNVIKRKRDSESESDETPTVPQLKEKKKKKDKKPKTVLESGGETGDGDNDTTKKKKKKKVKVVEEMSE'
p98
tp99
sS'TCCTCTTCCACGCCTTTTTGGGTTTTCCTCTAAATTCACTCTCTTCCTTCTCCTCCAACCCCTCATTCCTCCTAGCCACCCTCTTCCTTTAGGTCTTTCTCTTTAAAAGTCCCTTTCTGGTCTCTGTCTCTTTGCATCTCCTACCCACATTTTTGTTTCCCTTCCTGTCCCTCTCTTTCTGCATCTCTGTTCTATATGTCTCCCTTGACCAGAAAGCTTTGACTCTGTCCTGGCTCCAGCCTCTCTCTAAGTCACTGTTTCCCTACACCCTCATTCCATCTACAGAATGTTTGGTTTATGCTTGCCGCCCCCCACCCCCACCCCAGTTCCTCTGATGTTCTCTGAGCCTGGGCCTCTCGTTCGTTCCCGACCACTGACAGATGCTTGCTTAAGGAGTGGGGCTCTGAGCTGAGCTCTAACTGGTACCACAGTGCTGGGTTTTCGGGCAGAATCAAGGCCTGCCGAGTTCAGTCCCTTGCATGGTGTCACAGACCTCATCAGGGGGGACCTGAGCTCAGATCTATGTCTATTCTGGCAGTTCTCAACTTATAGGTTTGGGGGTCAAATGACTTTCACAGGGGTCACTTTAGACCATCAGTAAACACATTATGATTCATAACAGCAAACTTACGGCTATCACTCACAAACAAAAATAATTGCATGGCTTTGGGTAACTGTAACATGAAGAACTGCATTGAAAGGTCACATCATTATGAAGGCTGAGAAACACTGGTCTATGTGAAGGAGGACGTCATGGGTCTACTTTAAGCTCTTAGCAGAGGGCTGCGCTTGACTACCAGGTAAAGGGTGCCCCATTTCCTGCAGTTTTCTCTATGTAGTTTCATGCCTCTGTGGAAATGGTGAGTTTCCAGCTCCTCACTGCTGCTTTTAACACCAGGGTTCATTTGGCCCCATGCCCCAGGGTGTTCCAGGACCATCATGCTAACATACCCGGACTTTGCCGATCTCATTCTTGTGGATGGAAATGTTGGTGTTGAGAGTGGTCACAGTGACCTGTCTCACGTAGGACACAGCGGGGCTACCCCGGTTCTCGTTCTTGGTTGTGACAGTGAAGTGAGTCAGGCCCTCGGCATTGACCCCAGGACAGAGCGTTCCTGCCAGCAGGTAGTTGCAGGTGCCCTGGAAGTCAAAGCTCCAGCCATCGAAGGAGTTGTAGTGAGGGTCACCCCACAGCCAACACGTGGAATTATAGTTGGGCACACACACACCCTCACCACCTTGAACTTTGCAGGTCTCCTGTGGTCGGCAGGTGATACCATGGCATGGGTCTGTGAGGAGAGGAGAAAGTACCGTGAGGGGCTGCCCACCACAAGCATGTCTGCTCCTGCCATCTGCCTGTCTGTGCTAGGGATGTCATCTCTGATGGTTGCTGCAGCTGTGACCAGACCTTAGTGTCTTGACACCTTAGCCCTCATTCCTGGAGTTGCTGTGTGTTACATCTGAGAACCCACCACTAGGGGTCCAGAAATTTCGTATCTCATGTCTAGGGTCCCCGCGTCTAAATCTCTCAGTTTGGATGGCCCACATTACAAAATTCAGCCCCTGGGTGCTAGTCCAGCCTCAGGAGTCTCTGAAGACTGGTCCCCAGGGACTTTTGTGTTTGAGACCCCTCTAGTATCACACTCTCTGTGGCTCCAGCTCTGTGTCTGGGTGTCCAGCCTTCAAACTTGCTCCTCTTCAAACTTGTTTCCTGTTTGAAATTGGCCTGGAAGCTTTGTCAGCAGAGGGCGCTGGGGAGTCTGCGGGAGGCAGGGGTGCCTGTCCTCACAGCTTGTGCTGCTCTTCTGCCTGCTGCCGCTGCTTGTACTCTGTGAGTAGAGGCAGGTTGGACCCTGGCTCTCTAGCTAATCAGCTAAACACCTCAGGTGGCTGCTTCCAGCTGAGTTTTACCAACATCAGTGGGGATTTCACTCCTCCAAGTCCAACCTGCAGGATCCCGCACTCTCCAGTATGGTCTATGGTGAGGCCTTTTAAGTCCCAGCCTTCTTCTCTCAGCATTGGGGATCAGCTCTAGGCAGGACTCCTGTGAGCACTGTTTCCCTTATCTGAAAGCAGCCAGGAAGGAGGTGGACTGTTCACACATACTAACTGCTATCATTTCTGAGGAGTGAGTCGGGGACAGCAGGAAAGCAGCTAGCCACTGAGGTGGGTGAGGGCAGAAACACATGCAAACCTTGGTAGTGAACAGACACAAACTCTGTCTGTCTGTCATTGTCTCTGTCTCTCCACAGCCACCATGTGGGTGCTGGGAACTGAACACAGGTCCTCTGAAAGAACAGCCAACAGCCAGTGCCATCTGAGCCATCTCTCCACTGAGCCATCTCTCCAGCCTTAACCCTTATTTTTTAATCCCTTTTTTCCTTCTCCCTCCATTTTTTTTAAAAAAAAAAAAATTTCCTGTCTTTGGTCAAAGCTTCCTTTTTTTCTCATCTTTCCCCTTATAGAAAACAGAAACCTCTCTCTCTCTCTCTCTCTCTCTCTCTCTCTCTCTCTCTCTCTCTCTCTCTCACACACACACACACACACACACACACACGCACACCCCACACTACCTTGTAAAAAAAATCAACTTAAAATGGATGACAGGCCTTAAGGTCAGTCCCTAGATTATAAAACTGCTAGAGGACACAGTGAAAAAACCAGGACCAGTCGCTAACAGCTCAATGAACTCTTGAGGAGACGGTGTAGAGAACTGGTAAATAAAACTTCACTAGATCAAAAAGCTTCTGCATAGAGAGTGAAGGGAAAGGCCACAGAACGGGAGAGAAGTCGTTAGCCATTAATCTGACAGGAGACTAATATCCAGACTAC'
p100
(I18
S'MLTYPDFADLILVDGNVGVESGHSDLSHVGHSGATPVLVLGCDSEVSQALGIDPRTERSCQQVVAGALEVKAPAIEGVVVRVTPQPTRGIIVGHTHTLTTLNFAGLLWSAGDTMAWVCEERRKYREGLPTTSMSAPAICLSVLGMSSLMVAAAVTRP'
p101
tp102
sS'AACTTCGCAGCCCCGGGTGTCGGAGGTAGCCATGCAGAGCGCACCCTTGGAGCAGCCAGCTAAGCGACCCCGCTGCGATGGCAGCCCAAGGACGCCACCGAGCACTCCTCCTGCAACAGCTAATCTGTCTGCAGACGACGACTTCCAAAACACCGACCTCCGAACCTGGGAACCGGAGGACGTGTGCTCCTTCTTAGAGAATCGTGGTTTCCGAGAGAAGAAAGTGCTGGACATCTTCAGAGACAATAAAATCGCCGGCTCGTTTCTGCCCTTTTTGGATGAGGATCGTCTGGAAGATCTGGGAGTAAGTTCCTTGGAGGAGAGGAAGAAGATGATAGAATGTATCCAGCAGCTGAGTCAGTCTCGGATTGATCTAATGAAGGTATTTAATGATCCCATTCATGGCCACATTGAGTTCCACCCTCTCCTTATCAGAATCATCGACACACCTCAGTTCCAGCGACTTCGCTATATCAAGCAGCTGGGGGGCGGCTACTATGTTTTCCCTGGAGCGTCCCACAATCGCTTCGAACACAGTCTCGGAGTGGGGTACCTAGCAGGCTGCCTGGTGCGAGCACTTGCCGAAAAACAGCCAGAGCTACAGATCAGTGAGCGAGATATACTCTGTGTTCAGATTGCGGGGCTCTGCCACGACCTAGGTCATGGGCCATTTTCTCATATGTTTGATGGAAGGTTTATCCCACGGGCTCGCCCAGAGAAAAAGTGGAAGCATCCTTCCCTGGGACAGCATTCAGGGTGCTTCTGTTCATGGGTCTGTGTTTCAGCCCTCACAGTAGCCTGTGGAGAAAGGACCTTATCTTCTGTTCAGAGCCCTCAGAAGCATAGAGATGTGCCTGACTTCACAGGGTCATGGAGTGGTGGACCAGCCCTGGAGAGCCAGCTCCCCTCTTTCAATGCAGTGTCCGTTCTACTCTGTCAGATTACTGTAGACTTTGTTTTCTTTTAA'
p103
(I45
S'MIECIQQLSQSRIDLMKVFNDPIHGHIEFHPLLIRIIDTPQFQRLRYIKQLGGGYYVFPGASHNRFEHSLGVGYLAGCLVRALAEKQPELQISERDILCVQIAGLCHDLGHGPFSHMFDGRFIPRARPEKKWKHPSLGQHSGCFCSWVCVSALTVACGERTLSSVQSPQKHRDVPDFTGSWSGGPALESQLPSFNAVSVLLCQITVDFVFF'
p104
tp105
sS'AGAAGGGCAACTGGAGGATCAGGGCTCCCTCAGTGAGACTGGGAAAGCACTAAGACAACTTCAGAACCTTCAAACAAGGTAGTGGGATCCCAGCAGCTTAAGAGGGAGGGTGTCTAGCAGCAGTGGCCTGGCCTGAAGGATCCTCCATACGGAAGACTGTATTGGTTCCGGAGTGTGAACTCAAGTGGTCAGGCTTGCATGGCATGCATGGTTACCCACCGAGCCAACTCACAAGTTCTGGGAATTCTTTGACCAATGTCCTACCACAGGATTTGCTTCCTGCTAATTGTTTCTCCCTGCCATTCCAGAGACTGAGAAGTGGCTAAGGAGTTACAGAGGCATCAAACTATCTCAAGAAACTTGTTCAGAAGTGACAAAACAACAATGGAAAAAGTCATCCATGGAAGCTCTGTGAGCATCAATGGAAGCCCTGTGAGAAAGAGACTGTAGAGATGCTCAGTGGTTAAGAGCATGTGTTGCTCTTGCAGAGGATTTGGATTTTGTTCCTACCAACCACATGGAGCAGCACACAAACATCTGCAACTCCAGTTCAAGGGATATGCTATGCTGCTCTCTTCTGGCCTCCTAGGGTACCCATGCATGTGTACCTGTGTGCATACACACATATACATAATACAACAAATATTTTTTAATAAAAGAATCTTTGTGGAG'
p106
(I22
S'MCCSCRGFGFCSYQPHGAAHKHLQLQFKGYAMLLSSGLLGYPCMCTCVHTHIYIIQQIFFNKRIFVE'
p107
tp108
sS'ATGGGCAAATTAAACCACACTTATCTGACGGAGTTCATCTTGCTGGGCCTCTCTTCAGATCATCAGACTCAGATCCTGCTGTTTGTGGTATTTCTCATCATCTACCTGATCACTGTGTTTGGGAACCTGCTCATCATACTCCTCATTCATGTTGACTCCCGACTTCATACACCAATGTACTTCTTTCTAAAAATCCTGTCATTCAATGATCTCTGTTTCTCTACAACAATTGTTCCAAAGATGCTAGTCCACTTTCTAGGTGTCAGAAAGACCATTTCATTTGCTGGGTGCTCAGTGCAAATGTTTTCTTTCCTCATAATGGGGTGTACAGAAAGCTCTCTTCTGGCAGTCATGTCATATGACCGCTACATAGCTGTCTGCAAACCCCTGCACTACTCCACCATCATGACACATAAGGTTTGTGTTCTGCTAGTTGTAGGATCCTGGACTAGTGGAATATTTGTGTCTGTAGTAGATACCTCATTTACTTTATGCTTGACGTACCGGGGACCAAATATAATCAATCATTACTTTTGTGAGCCTCCTGCACTCTTAAAGCTGGCTTCAGAAGAAACCTACACAGCTGAAATGGTCATATTTGCAATGGGTATAATAATTCTCTTAGGTCCTGTCTCTCTTATCCTTTTCTCCTATTGGAATATTATCTCCACTGTGGTTCAAATACAATCAGGTGAGGGGAGGCTCAAGGTTTTCTCTACCTGCAGTTCCCATTTTATTGTTGTTATCTTCTTCTATGGCTCAACAATATTTACCTACATGCAGCCAAACTCAAAGAAAATGAATGAAAAGGATAAGGTAATCTCGGTATTCTACTCAATAGTAACATCCATGATGAACCCATTCATTTATAGCCTAAGGAACAAAGATGTGAAAGGGGCATTAAAGAAAGTACTTAAAAGAGAGATAAGATAA'
p109
(I11
S'MGKLNHTYLTEFILLGLSSDHQTQILLFVVFLIIYLITVFGNLLIILLIHVDSRLHTPMYFFLKILSFNDLCFSTTIVPKMLVHFLGVRKTISFAGCSVQMFSFLIMGCTESSLLAVMSYDRYIAVCKPLHYSTIMTHKVCVLLVVGSWTSGIFVSVVDTSFTLCLTYRGPNIINHYFCEPPALLKLASEETYTAEMVIFAMGIIILLGPVSLILFSYWNIISTVVQIQSGEGRLKVFSTCSSHFIVVIFFYGSTIFTYMQPNSKKMNEKDKVISVFYSIVTSMMNPFIYSLRNKDVKGALKKVLKREIR'
p110
tp111
sS'ATGGACAGGGAACGCCTGGATGAAGAAGCTGGGAAAACCCCCTTGGATACGCACAACAAGGATTGTTCCATTGCTGCCACAGGCAAAAGGCCATCTGCCCGCTTCCCCCACCAGCGGAGGAAGAAGAGGAGGGAGATGGACGATGGGCTCGCTGAGGGGGGTCCTCAGAGATCCAATACGTATGTGATCAAGCTATTTGACCGGAGTGTGGACTTGGCCCAGTTCAGTGAGAACACACCACTGTACCCCATCTGCCGCGCCTGGATGCGCAACAGCCCCACAGTGCGAGAGCGCGAGCGCTCACCCGGCTCACCGCTGCCTCCTCTGCCCGAGGATGGAGAGGGTTCAGAGGTCATCAACAGCAAAAACCGTGATGTGTACAAGCTGCCTCCACCCACAGCTCCTGGACCACTTGGAGATGCCTGTAGATCCAGAATTCCATCCCCACTGCAGCCTGAGACCGAGGGTACCCCCGATGATGAACCTTCCGAGCCTGAACCTTCTCCTTCCACACTTATCTATCGCAACATGCAACGTTGGAAACGCATACGCCAGAGGTGGAAGGAGGCATCTCATCGGAACCAGCTTCGCTACTCAGAAAGTATGAAGATCCTACGGGAGATGTATGACCGGCAGTGACCTTCCCAGGAACCCCACCCCAATAAATGTGCCCCCCAACCCACACTGGCCAGGCCATCGTTCCTGGCCCAGACATAAGGCAGTTGA'
p112
(I27
S'MDRERLDEEAGKTPLDTHNKDCSIAATGKRPSARFPHQRRKKRREMDDGLAEGGPQRSNTYVIKLFDRSVDLAQFSENTPLYPICRAWMRNSPTVRERERSPGSPLPPLPEDGEGSEVINSKNRDVYKLPPPTAPGPLGDACRSRIPSPLQPETEGTPDDEPSEPEPSPSTLIYRNMQRWKRIRQRWKEASHRNQLRYSESMKILREMYDRQ'
p113
tp114
sS'CCATGCCGCACTCCAATAGCTGCCGACATGCAGTCCCCGGCGGTGCTCCGCACCTCCAGACAAGTTCAGAATGCACACACAGGCCTCGACCTGTCTGTCCCACAGCACCAGGAGGTGCGGGGTAAGATGATGTCCGGCCATGTGGAGTACCAGATCCTAGTGGTGACCCGGTTGGCTGTGTTCAAGTCAGCCAAGCACCGGCCCGAAGATGTCGTCCAGTTCTTGGTCTCTAAAAAATACAGCGAGATCGAGGAGTTTTACCAGAAGCTGTACAGTTGTTACCCAGCAGCCAGCCTGCCCCCGCTGCCTAGGAAGGTCCTGTTTGTCGGGGAGTCTGACATCCGGGAGAGGCGAGCCATGTTTGATGAGATCCTACGCTGTGTCTCCAAGGATGCCCAGTTGGCAGGCAGCCCAGAGCTGCTAGAATTCTTAGGCACCAGAGCCCCAGGGGCTACGGGCCTTGCCACCCGAGATCCCTCTGTCTTGGATGACACAGCCAGCCAGCCAGGGGACAGTGATGAGGCTTTTGACTTCTTTGAGCAGCAGGATGAAGTGCAGCCACCCACACTGGGCCTGAGCAGCAAGGATGTGGAGAAGTCCTTGGTGGGAGAAGAGGAGGAGGAGGAGGAGGAGGAGGAGGTGCTGGATCCCCTGGGTATCATGCGCTCCAAGAAGCCCAAGAAACGCCCAGAAGTGGCCGTGAGGCCCAAGCCTGCACCTCGGCTCACCATCTTTGATGAGGAGGTAGACCCTGACGCGGGGCTCTTCAGCTCAGACAAGAAGGTGTCTGAGACCCGGAGACCCCTGGAGACCACACAGGACTCCCTGAAGCTGTTTGATGACCCTGACCTTGGCGGGGCTGTCTCCCTGGGTGACCCTCTACTGCTGCCTGCTGCCAGTGAGAGCAGAGGGCCCACATCCCGCCCAGAACACGGGGATGCCTCCAAGGAGCTGTTCAGAGTTGAAGAGGACCTGGACCTGATTCTGAACCTGGGATCTGAACCAAAGCCCAAGCCCCAGACTAAGCCCAAGCCTCTAGTCCCAGCTAAGCCAGCATTGCCCAGGAAACCAACTCTGCCCGCATCAGTGGGCCCGTCAGAACCTGGGTCTGGACCGCAGAAGCAGCAACAGATCCAAGCTATGGATGAAATGGACATCTTGCAGTATATCCGGGACCATGACACACTTGCCCAAGACTCTTCTGGCTTCCAATGCTAAGAAGAAAACGTAGTCCCAGCCTTGCCTTTCTAGTGCACGGAGGGCTTCCAGGACCCCAAGCCTTCTACTCCCTTTCCCACGAGAGGGCCTGGCCAGCCCATGGTCCTTGGATGTGGCTTTCAACAAAGTAGGTCTTAGCATCTCCCAGAGTTTAGCCCATGGGGTTTGAGGGAA'
p115
(I9
S'MQSPAVLRTSRQVQNAHTGLDLSVPQHQEVRGKMMSGHVEYQILVVTRLAVFKSAKHRPEDVVQFLVSKKYSEIEEFYQKLYSCYPAASLPPLPRKVLFVGESDIRERRAMFDEILRCVSKDAQLAGSPELLEFLGTRAPGATGLATRDPSVLDDTASQPGDSDEAFDFFEQQDEVQPPTLGLSSKDVEKSLVGEEEEEEEEEEVLDPLGIMRSKKPKKRPEVAVRPKPAPRLTIFDEEVDPDAGLFSSDKKVSETRRPLETTQDSLKLFDDPDLGGAVSLGDPLLLPAASESRGPTSRPEHGDASKELFRVEEDLDLILNLGSEPKPKPQTKPKPLVPAKPALPRKPTLPASVGPSEPGSGPQKQQQIQAMDEMDILQYIRDHDTLAQDSSGFQC'
p116
tp117
sS'AGGAGCCAAGTTCCAGGCCATGGGGACCCTGCATCCTGAGCAGCACTGGCCCTCTTGGCCACTGATATGAGCCCCTGCGGGCTTAACCTGAGCCTAGCGGATGAGGCAGCAACGTGCGCAACACCCAGGCTCCCCAATACATCTGTGGTGCTGCCAACAGGCGATAATGGCACATCACCAGCGCTGCCTATCTTCTCCATGACGCTGGGTGCTGTGTCCAACGTGCTGGCGCTGGCGCTGCTGGCCCAGGTTGCAGGCCGAATGCGGCGGCGCCGCTCGGCTGCCACCTTCCTGTTGTTCGTCGCCAGCCTGCTTGCCATCGACCTAGCAGGCCATGTGATCCCGGGCGCCCTGGTGCTTCGCCTGTATACTGCGGGGCGTGCGCCTGCTGGAGGGGCGTGTCATTTCCTGGGTGGCTGCATGGTCTTCTTCGGCCTGTGCCCACTTTTGCTTGGCTGTGGCATGGCCGTAGAGCGCTGTGTGGGTGTCACGCAGCCACTGATCCACGCGGCGCGCGTATCTGTGGCCCGCGCACGCCTGGCACTAGCCGTGCTGGCTGCCATGGCTTTGGCAGTGGCGCTGCTGCCACTGGTACACGTGGGTCGCTACGAGTTACAGTACCCTGGCACCTGGTGTTTTATTAGCCTTGGGCCTCGTGGAGGTTGGCGCCAGGCGTTGCTTGCCGGCCTCTTCGCCGGCCTTGGCCTGGCCGCGCTCCTTGCGGCATTAGTGTGCAATACGCTCAGCGGCCTGGCGCTCCTCCGTGCCCGCTGGAGACGGCGTCGCTCTCGACGATTCCGAAAGACCGCAGGTCCCGATGATCGCCGGCGCTGGGGATCTCGTGGACCCCGCTTGGCCTCCGCCTCGTCTGCCTCATCCATCACTTCAGCCACAGCCACCCTCCGCAGCTCTCGGGGCGGCGGCTCCGCGCGCAGGGTTCACGCACACGATGTGGAAATGGTGGGCCAGCTCGTGGGCATCATGGTGGTGTCGTGCATCTGCTGGAGCCCCCTGCTGGTGTTGGTGGTGTTGGCCATCGGGGGCTGGAACTCTAACTCCCTGCAGCGGCCACTCTTTCTGGCTGTACGCCTCGCATCGTGGAACCAGATCCTGGACCCATGGGTGTACATCCTGCTGCGCCAGGCCATGCTGCGCCAACTGCTTCGCCTCCTACCCCTGAGGGTCAGTGCCAAGGGTGGTCCAACGGAGCTGGGCCTAACCAAGAGTGCCTGGGAAGCCAGTTCACTGCGTAGTTCCCGGCACAGTGGTTTCAGTCACCTCTGAATGTGCCCAGAAGCTAAGTCAAACCATTCTGGGCTGGGCTCAAGGGTATAGAGTCTCAAACTCAGTGTGCCTAGGGCGCTGCGTCCTGTGGGTCCACAACACTGTCACCGCACAGGGGTGAAAGAGGCTCCACTGGGGACGAGTACAGTTCTAACGATGGTCACGCGATGGCCCAGATACATGGGATGCTCGAAACACCAGAGGTGGGACTCCCCAGGCCAACAGCTTGAAGAGCATGCGCACAGCGCCGCAACCTTAGTTCTAAGATTCGGGCTCTCCATAAATAGAGCAAAGTTTTGGATTCACTTCCCATCTCTGTCACCACCCCAATAGACTCTTGCAAGCGTCTATCCCAAACTATCCCAAGAATCTCAACACCTTCTACCCACACGGCCTTAAAACCCCAATGCTCTCCAACATACCCCTAAGCCCACTACTGCATGTTCCCATCTTGACCTTTCAAATGTGCCCCATCAGTCCTGCCCCCAAGAGTCTGCCTTGCCTCTGTCACCTGCTCCAAGCACACTCCAGTCCAGATGCACACAGAGGCTGAAAATGCATGTATGGAGTAAACCCCAAAGGCTTGTTTTTTAAAAAATCAAGAACTCTTGGGTAAGGCAGGGGCTTGGGGCTAGTAGCCTCCGGCCACAAAGTCGAAATCCCGGAAGGCTGCCTGCTCCGCAGCTGTGAGGGGCCGTGCATCCCGGGGAGGACTCAGTGTGGGGGCCTCCCCAGTGAACTCCTCATCGAAGTTGCTGACATCTGTGCGCCCTGAAAGTGTAGGCACGAAGGGTGGAGGCAAGCGGCGGGCCAGCAGGACATCCCAGCCCAGAGACTGTGGAGAGGGGGACAGAGTGAGTCATGATGGACTTTGAGGGTCTGAAGGGAAGTCTAGAGATCAGCAGGAAGCAGATAAGATGGGGAGGGACTGGGAACTCAGATAAATCTAGGGAGCCTGAGGTAGTCCAGGGTAAGCCCTGTGATGATGATTTGGGCCTGGAGAAGCAGTGGGGATGACAATTAAGGGAAATGAAGGTTGCAGACAAACGGAGGTAACATTTGTGAAGAATCATGGTGGCTGTGAGGTGTGGGGCTACAAAGCTCTTTAAGATACAGCTACTAGATTTGGGGTGGGAATGAACTGGAACTGAGAAGAATACTCAGGTCCTTGGGGTGACTGAGAGGATGGGGAGGGGTCCGCTCACCCGGAAGAAAGGCTGTTTTTTCACATCTTCTGCATCGCGCTCAGTGGACCCCAGCCTCCGCTCCGGGTTCCTCCGCAGTAGCTGTGAGCATGCACAGGAGTTGATCTATATCTGAGTCCAGTCCCGAGACCCCTTCCCAGCCTACCTTGCCGGAGGTGGTCGGGAGGCGGGAGGTGTGCCTACCCTTCTCATGATGCCGATGGCCTCTGCAGACAGGAAGCGGGGATAGCGAACTTCGTCGTTGACAATGCTGTCAAATACCTCCTCCTCATCATCCCCAGGGAACGGAGACTGGGGGGCAGAGGATGCGGGTTTGTAAAATCCCACTTTTAGCCAATCCACACACCCAGCACTACCAAATGGCCTCACCCCTCCGGGAGCACTCTTGCACCGCTGCTGGCTTACAGGGGTAAGTATCCCACTTTACAACTACAGAAAGATTAGAGAGGTAAGGCTGCCGGCTCCAGATCATACTTCACGTGGTAGGAGCAGATTCCCATCTCACTCTGAGGCACATGCATGTTCTCTACAGAAAAAAAAAAAGGCAGCCTGGGCCTCACCTCTCCAACCAACATCTCATAGAGCAGCACGCCCAGTCCCCACCAGTCCACTGCTCGCGTGTAGGATGTGTCTGTGAGCACTTCCGGCGCCAGGAACTCCGGAGTTCCGCAGAACGTGCTGGTCCGGTCCCCATAGCCCATCCCTGGGTGGGATGGAGAGCAAGGCCACGTGAGCCTATAGTTGCTAGGGGGGTAGGAGCATGAGATGCTCCAAATATCCATCCAGCCCTACCCCAAGTCAGTATGGGGTGACCCAGATGGGGCTAGAGCTGGTGAACTATTCTGAAGCTGCTAGGGTGAGCAGGTGACTGGCAGCAAAGCCCATAGAGAAGAAAATGTCACCTGACCACCTAGGTACAGCTGCACCAGAGGGTAGCCCACCCCCTATTCCTCTCATCCCAGGATTGCAGCCCCTCACCCTCCTTGCAGAGGCCAAAGTCTGCGATCTTGACGTAGCCCTCAGTATCCAGGAGCAAATTGTCCAACTTCAGGTCCCTGGGGAATGGGGGTGTCAGGGGATGTAAAGAGGGGTGACTGGGTAGGGATCGGGGCTCTGTGCAGAGCTTGACCATGTCCAGTCTGTGGGCAGAACATTCTCACGTACACACCTGTAGACAATCTTGTGTTCATGGAGGAACTGCAGTCCCAGCACCACACAGGCCGAATAGAAGCTGCGGAGATGCATAAGATCGCACAAGCCTGGTTCCTCAGGCACCAAAGTCCCTGACCCCGGGGGGTGGTGGGGGGTCCCAAAGCTGTGCAGGAGGAAGGCCTGAGGGTGGAGGGCTAGGAGGTGGGGCAGAAAGGCGGGGCCTCGGGTGGTGTGCAGGAGGGGCATGGTGCTGGGATAGACTCACACAGCCCGAGGCTCTGAGAACACGTCGCTATGAATGTGCAGCATCAGGTCTCCACCCGCCGAGTACTCCATCACAAAGCACACGTGCTCTGGGGTCTGGAAACAGCCGAAAAGGTTCACCAGGAAGGGATGTCCTGCCCTGGTCACGGCCGCCAAAATCCGCTTCTCACACATCAGGCTGGACAGGAGGCAGAAGTCAGAGAGCCCAGCTGCCCCTCCAATACCCATGCCCTCCAGGTTCACTCAGGTATCTGTTGAGTTGCACCGCTGTGCAATTTTGAGCGATTGGATTCTTTTCTCATTTTGGGAAATGGGTAAGGGTGCAAGGCTCAAGCAGACAGACAGTCTGAGTCCATGCTGGGGACGGGCTTGGGAAGCACTGGCCCGCTCATCAGGCTCGGTGTAACGACTGAAGCATGGGGTCTGATCAGTGGTGAGAGGCTTCCCTCCCTGTCAGTGAGAGGACGGCAAGCCCAGCCCGCAGACAAGCAGACCGACGACCAACCGCAGTGACACCGCAGTGGCATCAGGACAGAGGCGCCTTAAGGCAGACACACTGGGCTCTGCAACCCAGATTAATAAATAAACTCTTCCTTATTTG'
p118
(I33
S'MSPCGLNLSLADEAATCATPRLPNTSVVLPTGDNGTSPALPIFSMTLGAVSNVLALALLAQVAGRMRRRRSAATFLLFVASLLAIDLAGHVIPGALVLRLYTAGRAPAGGACHFLGGCMVFFGLCPLLLGCGMAVERCVGVTQPLIHAARVSVARARLALAVLAAMALAVALLPLVHVGRYELQYPGTWCFISLGPRGGWRQALLAGLFAGLGLAALLAALVCNTLSGLALLRARWRRRRSRRFRKTAGPDDRRRWGSRGPRLASASSASSITSATATLRSSRGGGSARRVHAHDVEMVGQLVGIMVVSCICWSPLLVLVVLAIGGWNSNSLQRPLFLAVRLASWNQILDPWVYILLRQAMLRQLLRLLPLRVSAKGGPTELGLTKSAWEASSLRSSRHSGFSHL'
p119
tp120
sS'ATGACTAGTTTCATTTTTGAGCAGGCTTTACCCAGAAAACAAGGAAAATTCACTGTGGCCGAGAAGCAGACGTGGCTGTTTCGTTGGCCCCACTATGGATCTCCACTGGCTGGGGAGAGTCTGTCTGTGCAGGTGGTCAACTGTAGCCGCGTGTTCAGCCCCAGGCCCCTGGGGACCCTGGTGATTTCGCTGCAGCAGCTACAGAGTGCTGGGCATTTGGTGTTGAGGGAAGCTCTGGTGGACGAGAGACTCCGGGTGTCCCCGATCCAAGTGGAGCTTGACCTAAAGTATCAACCCCCTGAGGGAGCTGCTGGGACCTGGGCAGAGGAGGACTTTGGGACACCCATTCGAGACAGGCCTGGGGAAGCCCAGCTGGAGCGAAGGGCAGTGGCTCTGGGCCGCAGGCTAGCTCGAAGCCTAGGAACACAGGACGATGAAGAGAACGAATTGGAGCTGGAGCCGGAGCTGGAGGAAGAACCTGACGTGGAGATTTCTGGGGTGGTGTTCAGCCCCCTCAAAAGACCTCCAAGAGTGAATCGAATTCTGGATGTCGGGGTCACAGTGCTTGAGGCCCAGAAACTGGTGGGAGTCAATATTAACCCCTATGTGGCTGTTCGCGTCGGGGATCAGCGCAAGGTGACTGCAACATTGCGTGGAACCAATTGCCCCTTCTACAACGAGTACTTCTTGTTCGAATTTCATGAGACTCGGCTTCATCTCCAAGACTTGCTGCTGGAGATAACTGTGAGTGGGAAAGCAGATTCAAGTCAGGAAAGGGAGGCTTTCCACTCGCAGACTCTCCCGTTTATGGCCACCAGGATAGGGACTTTCAGGATGGACTTGGGGATGGCCTTGGACCAGCCAGATGGGCACTTCCACCAAAAGTGGGCTCCTTTGCATGACCCCCGTGACACCCGCGCCGGAACCAAGGGCTTCGTCAAGATCACCCTGTCTGTGAGGGCACGTGGGGACCTTCCCCTTCCACCGCCACCCCCATGCCCAGGGACCAGTTCGGACATAGAGAAGAATCTACTTCTGCCACATGGGGTGCAGGCTGAGAGGCCATGGGCACGGCTGCGAGTCCGCGTGTACCGTGCAGAGGGGCTCCCCACAGTGCGCACGGGCCTGCTGGGCAGCCTGGCCCGAGCCCTCCATGACCAAAATGTCCTTTTGGACCCGTATGTGCGGGTGAGCTTCCTGGGACAGCAGGGTGAGACTTCGGTTCGGGGCGAGGAGACAGCGCCCAAGTGGAACGAGCAGTTGAGCTTCGTGGAACTCTTCCCGCCGCTAACACGCAGCCTTCGCCTGCAGCTGCGTGACAATGCACCTCTTGTGGATGTGGCCCTCGCCACACACGTGCTAGACCTGAGGCAGATCTCGAACTCGGGTCGCGCAGCGGGGTTTAACCCCACTTTCGGTCCAGCCTGGGTGCCCCTCTATGGCTCGCTCCCCAGCGGCAGGCTCCGGGATGATCTTCAAAGTCTCAACGAAGGTCTTGGCGAAGGCATTTGGTTCCGGGGTCGACTTCTGGTAGCTGTGTCCATGGAGGTGTACGAAGGCAGAGTTGAACCTAAACCCTCCCAGACCACACAAAGGTCTGGATTGTCCCGGCTCACTGGGAAGAAGAAAAAGAAGAAGGAGAAGACCAGACAGGGTCAGACCCCGGCTGGCATTTTACAGCCTGCCAGTGCCAGCACCAGCGAGGATGCGCCTGAGATTCCGAGTGCAATGGAGGTGGAGGTGGAGGACCTGCTGCCTCTGCCAGAGAATGCCCTGGCATCCTTTGAAGATTTCCTGCTTTTCGGGGTGCTCTTTGAGGCCACCATGATTGACCCTTCACTGGCCAAGAAGCCCATCAGCCTGGAGATTTCCATTGGTCATGCAGGACGCCAGGAAGAACAATCGGGCCAAGGATCAAGGGCTGATGAGGGATCTGAAAGCAGCACACTTGAAGTTCAGCCTCTCTTGGAATCTGAGGACAGAGGGGCAGGGCAGGAGGAGCAAGAGTTGCTGGGGACACCTGCTCAGTGGCCTGAACCTGTGGATGGCAATGGGCCATATCTCTGCTTGCCTCTGCGTCACCGAAAGCCCTGCCTACATGTATGGAGCTGCTGGGAGGATTATACTTGGCGCCTACAGAGCAGCAACAGTGTGTGCAAAGTAGCCGAGAGGCTGGACCATGGCCTGCAGGAGGTTGAGAAGATGCAGCGCAGGTCAGGGCCGGGCGCCTGCACACGACTGAAGCAGACTCTGGAAGAGCTGGTGGCTGGCAGCAGACAGTTTTGCCACGGTGCTGAGCGCAGGACGATGACTCGACCCAATGCCCTGGATCGTTGTCGAGCGAAACTCCTGACACACAGCCTGGTACACAGCCTGAATCTGATGGCAAGGCAAGGACTGCGGCTTTTACGGAGCCTGAGGCTGAACAACATGCAGAGGACTGTGGTGCTGGCTAAGAAGCTCCTGGCAAGGCTGCGCTTCCTGGCTCAGGAGCCACAGCCTCCCCTCCCTGACGTGCTGGTCTGGATGTTCAGTGGCCAGCGCCGTGTGGCCTATGCCCGCATCCCTGCACAGGATATACTGTACTCCGTGGTTGAGGAGGAGCGAGGCCGAGACTGTGGGAAGATCCAGAGTCTGCTACTCACAGTACCTGGGGCAGCCCCTGGGGAGGTCTGTGCCAAGTTGGAGCTCTTCCTGTGGCTGGGGCTGGGCAAGCAAGCCAAGGCTTGCACCTCTGAGCTGCCCATGGATCTTCTGCCTGAACCTTCGTCTGGGCTGCCCCAAAGCCTATACCGGGATGACTTCCGCTACTTCCAGCTGAGGGCTCACCTGTACCAGGCCCGTGGTGTGTTGGCAGCAGATGACAGTGGCCTCTCGGACCCCTTTGCACGTGTCCTCATCTCTACCCAGTGCCAGACCACAAGGGTCTTGGAGCAGACCCTGAGCCCCCTATGGGATGAGCTCTTGGTATTTGACCAGCTGATTGTGGACGGCAGACGGGAACATCTGCGGGAGGAACCCCCACTAGTGGTCATCAATGTCTTTGACCACAATAAGTTTGGCCCTGCTGTGTTCCTGGGCAGGGCATTTGCAGCCCCAAGGGTAAAGTTAATCGAGGACCCATATCAGCGCCCTGAGCTGCAGTTCTTCCCCCTGAGGAAGGGGCCTCAGGCCGCTGGAGAGGTCATTGCAACCTTTGAGCTCATTGAGCTGGACTACAGCGGCCATCTTGAGCCCTCTGTGCCCAGCGATGTGGAGCCCCGGGATCTGGCGTCACTGGTTGAACCCATCTCTGGACACCTGTCTCTGCCTCCCAGCGTGCGCCCTGTGCTCAGGGCGTTCCGTGTTGAGGTGCTGTTCTGGGGTCTGAGAGGATTGGGCCGTGTACATCTGTTTGAGATAGAAAAGCCTCAGGTTGTTCTGGAAGTGGCTGGGAGGCGTGTGGAGTCGGAAGTTCTGCCCAACTACCGTGAGAACCCCAACTTCACAGAGCTTGTCCGGCATGTGACAGTGGACCTGCCAGAACAGCCATATCTGCAGCCCCCGCTGAGCATCTTGGTGATTGAACGCCGGGCCTTTGGCCGGACCGTTCTTGTGGGTTCCCATATTGTTCCCCACATGCTTAGATTCATACTCCAGGGTCATGAGGATCCCCAAGAGGAGGAAGAAACAGAGGAGGAGACAAGGGACCTGGTGCCACATGGGCCTCAAGGAGAGAAGTCTCTGCCTGAAGCAGGAACATCCAGACAGCTTCTGAAGGCGCCTCTAAAGAAGCTCACCTTAGGGCTCCTGGGTCAAGGCCCTGAGCTAGAGGAAGACATCCCAGATCCAGAAGAGATGGACTGGTGGTCCAAGTACTATGCCTCCCTGCAGGAATTCCAGGGGCAGCCCAGCTCCGATGATGAGATGGACGAGGCTGGAGATGCAGATGGAACCCATCTCATTTCTGGGGACAGGGAGGCCCAGGAGCAGGGGGAGACTGATAGCAAAGTCTCTGTACCTCGGAAGAAAGCAATCGCTACCCTGAAGATCTACAACAGCTCCCTGGAGGACGAGTTTAGCCACTTTGAAGACTGGCTGAGTGTGTTCCCCCTGTACAGAGGACAAGGCGGCCAGGATGGAGAGGGAGAGGGAGCATCCGGACACTTTGTGGGCAAGTTCAAGGGCTCCTTCCTAATTTACCCCGAGTCAGAGGCTAAATCCTTCTCTGAGCCTCAGATCTCCAGGGGGGTCCCCCAGAACCGGCCCATCAAGCTTCTAGTCAGAGTGTATATAGTGAAGGCTACCAACCTGGCTCCTGCAGACCCCAATGGCAAGGCAGACCCCTATGTGGTGGTTAGCGCTGGCAAGGAGCAGCGGGACACTAAGGAACGCTACATCCCCAAGCAACTCAACCCCATCTTTGGAGAGGTCCTGGAGCTGAGCGTCTCCCTCCCAGCCCAGCCAGAGCTGACTGTGGCCGTATTCGACCATGACCTCGTGGGTTCAGATGACCTCATCGGGGAGACCCACATTGACCTGGAAAACAGATTCTATAGCCACCACAGAGCCAACTGTGGGCTGGCCTCCCAGTATGATGTGAATGGGTACAATGCCTGGCGAGATGCATTCCGGCCTTCACAGATCCTGGCTGGACTGTGCCAGCGCTGTGGCCTTCCTGTCCCTGAATACCGAGCCGGAGCTGTCAAAGTGGGCAGCAGAGTCTTTCTGACACCATCTGAGGCCCCGCCTCCAGTGGGTAGGAGGAAGGCTTCTGAAGAGGCCCAAGCATTGCACGTGTTGAGGCGTTGGCAGGAGATGCCAGGCCTTGGGATCCAGCTGGTACCTGAGCATGTGGAAACACGGCCTCTGTACCATCCCCGCAGCCCTGGGCTACTGCAGGGATCCCTTCATATGTGGATTGACATCTTCCCCAGTGATGTGCCGGCCCCACCCCCAGTTGACATCAAGCCTCGGCAGCCAATCAGCTATGAGCTCAGAGTTGTCATCTGGAACACGGACGATGTGGCTCTGGATGACGTGAACCCACTCACTGGAGAGAGGTCAAGCGACATCTATGTGAAAAGCTGGGTAAAGGGTCTGGAGCAGGACAGACAGGAGACGGATGTCCACTTCAACTCCCTGACCGGAGAGGGCAACTTCAACTGGCGCTTTGTGTTCCGCTTTGACTATCTGCCGACGGAGCGGGAGGTGAGCGTCCGGCGCAAGCCTGGACCCTTCGCCCTGGAGGAGGCTGAGTTCCGGCAGCCAGCAGTGCTGGTCCTGCAGGTCTGGGACTACGACCGAATCTCTGCCAACGACTTTCTTGGGTCCCTGGAGTTGCAGCTACCAGACATGGTAAGGGGGGCCCGGGACCCTGAGCACTGTTCTGTTCGACTAGCCCTTGATGGGGCAGGGCCGAGGTGCAATCTGTTTCGCTGCCATCGGTTGCGGGGTTGGTGGCCAGTGGTGAAGATGAAGGACATGGAAGATGTGGAGCGGGAGGGGAAGGTTGAGGCGGAGTTTGAACTGCTAACTGTGGAGGAGGCAGAGAAGAGGCCGGTTGGGAAGGGGCGAAAGGAGCCAGAGCCTCTGGAGAAACCCAACCGCCCCAAAACCTCCTTCAACTGGTTCGTGAACCCCCTCAAGACTTTCATCTTCTTCATCTGGCGCCGGTACTGGCGCATCCTGGTGCTGCTGCTGCTGCTGGCGCTAATCACCATCTTCCTCCTCCTCGTCTTCTACACCATCCCCGGACAGATCAGCGAGGTCATCTTCAGCCCCGTCCACAAACATTAATCTGAGTGACCGGGGACACACTTCAGGGTCACCACCTTTCACACCTGCTCTGGAAGTCCTTCCTTGCAATGTGCCCTGGAAGGGCTCAGTCCTTGGGTTCAATAAACTCTACCCCAGGCC'
p121
(I46
S'MTSFIFEQALPRKQGKFTVAEKQTWLFRWPHYGSPLAGESLSVQVVNCSRVFSPRPLGTLVISLQQLQSAGHLVLREALVDERLRVSPIQVELDLKYQPPEGAAGTWAEEDFGTPIRDRPGEAQLERRAVALGRRLARSLGTQDDEENELELEPELEEEPDVEISGVVFSPLKRPPRVNRILDVGVTVLEAQKLVGVNINPYVAVRVGDQRKVTATLRGTNCPFYNEYFLFEFHETRLHLQDLLLEITVSGKADSSQEREAFHSQTLPFMATRIGTFRMDLGMALDQPDGHFHQKWAPLHDPRDTRAGTKGFVKITLSVRARGDLPLPPPPPCPGTSSDIEKNLLLPHGVQAERPWARLRVRVYRAEGLPTVRTGLLGSLARALHDQNVLLDPYVRVSFLGQQGETSVRGEETAPKWNEQLSFVELFPPLTRSLRLQLRDNAPLVDVALATHVLDLRQISNSGRAAGFNPTFGPAWVPLYGSLPSGRLRDDLQSLNEGLGEGIWFRGRLLVAVSMEVYEGRVEPKPSQTTQRSGLSRLTGKKKKKKEKTRQGQTPAGILQPASASTSEDAPEIPSAMEVEVEDLLPLPENALASFEDFLLFGVLFEATMIDPSLAKKPISLEISIGHAGRQEEQSGQGSRADEGSESSTLEVQPLLESEDRGAGQEEQELLGTPAQWPEPVDGNGPYLCLPLRHRKPCLHVWSCWEDYTWRLQSSNSVCKVAERLDHGLQEVEKMQRRSGPGACTRLKQTLEELVAGSRQFCHGAERRTMTRPNALDRCRAKLLTHSLVHSLNLMARQGLRLLRSLRLNNMQRTVVLAKKLLARLRFLAQEPQPPLPDVLVWMFSGQRRVAYARIPAQDILYSVVEEERGRDCGKIQSLLLTVPGAAPGEVCAKLELFLWLGLGKQAKACTSELPMDLLPEPSSGLPQSLYRDDFRYFQLRAHLYQARGVLAADDSGLSDPFARVLISTQCQTTRVLEQTLSPLWDELLVFDQLIVDGRREHLREEPPLVVINVFDHNKFGPAVFLGRAFAAPRVKLIEDPYQRPELQFFPLRKGPQAAGEVIATFELIELDYSGHLEPSVPSDVEPRDLASLVEPISGHLSLPPSVRPVLRAFRVEVLFWGLRGLGRVHLFEIEKPQVVLEVAGRRVESEVLPNYRENPNFTELVRHVTVDLPEQPYLQPPLSILVIERRAFGRTVLVGSHIVPHMLRFILQGHEDPQEEEETEEETRDLVPHGPQGEKSLPEAGTSRQLLKAPLKKLTLGLLGQGPELEEDIPDPEEMDWWSKYYASLQEFQGQPSSDDEMDEAGDADGTHLISGDREAQEQGETDSKVSVPRKKAIATLKIYNSSLEDEFSHFEDWLSVFPLYRGQGGQDGEGEGASGHFVGKFKGSFLIYPESEAKSFSEPQISRGVPQNRPIKLLVRVYIVKATNLAPADPNGKADPYVVVSAGKEQRDTKERYIPKQLNPIFGEVLELSVSLPAQPELTVAVFDHDLVGSDDLIGETHIDLENRFYSHHRANCGLASQYDVNGYNAWRDAFRPSQILAGLCQRCGLPVPEYRAGAVKVGSRVFLTPSEAPPPVGRRKASEEAQALHVLRRWQEMPGLGIQLVPEHVETRPLYHPRSPGLLQGSLHMWIDIFPSDVPAPPPVDIKPRQPISYELRVVIWNTDDVALDDVNPLTGERSSDIYVKSWVKGLEQDRQETDVHFNSLTGEGNFNWRFVFRFDYLPTEREVSVRRKPGPFALEEAEFRQPAVLVLQVWDYDRISANDFLGSLELQLPDMVRGARDPEHCSVRLALDGAGPRCNLFRCHRLRGWWPVVKMKDMEDVEREGKVEAEFELLTVEEAEKRPVGKGRKEPEPLEKPNRPKTSFNWFVNPLKTFIFFIWRRYWRILVLLLLLALITIFLLLVFYTIPGQISEVIFSPVHKH'
p122
tp123
sS'CCCCAAAGGCTGCTCAGTTCTCTAGGCTCCAGCTTCCAGCGAGGATTGCAAGAGGAGACTGTGTCTTCTGATCCTGGATCCTCTGTTCCTTGGTGGAGAAGGGTTGCAGGAAGAAAAGGAGACTTAGCAAGAGAGAACACTATGCATCCTGGTGAAGCGTGATTGAGTTTAGAAGCCCAGGGACACGCGTCTTCAGGTCCGCTCAGGGTTCACACTTGGTGCTTAGACATTCAAAATGAGGAAACACCGGCATCTGCCCCTAGTGGCTGTCTTTAGCCTTCTCCTCTCAGGCATTGCCACGACTCATGCCCAACAGCATGGAGTCATGGAAGTCAACAAGAGGGACATAGTCTTCCTGGTGGATGGTTCCTCCAGCCTGGGGCCGTCCAACTTCAATGCCATCCGAGACTTCGTTACCAGAGTCATCCAGAGGTTGGAAATTGGACAGGACCTGGTTCAGGTATCAGTGGCTCAGTATGCAGACACTGTCAAGCCTGAGTTCTATTTAAATTCCTATACCAACAAAAGGGATGCCATAACTGCTGTACGGAAGATGAGGGCCCTGAATGGCTCAGCCCTGTACACGGGATCTTCTCTGGACTTTGTTCGAAACAACCTCTTCACTAGCTCAGCCGGCCATAGGGCCGCTGAGGGGGTTCCTAAGCTCCTGGTGCTGATCACAGGCGGTAAGTCCCTCGATGAAGTCAGCCAGCCTGCCCAGGAGCTGAAGAGAGGCAGCATCATGGCCTTGGCCGTTGGCAGCAAGGCCGCCGATGAGGATGAGCTGAAAGAGATCGCTTTCGACTCCTCCCTGGTCTTCATTCCCGCTGAGTTCCGCCCTGCTCCCTTGCAAAACATGCTGCCCAGCCTGATGGCACCTCTCAGGACTCTCACTGGAACCACGGAAGAGAGCAAGCGGGACATTCTTTTCCTCTTTGACGGCTCAGTCAATGTCTTGGGTCAGTTCCCTGCTGTCAGAGACTTTCTCTACAGGATCATTGAGGAACTTGATGTGAAGCCGGATGGGACCCGGGTAGCAATAGCTCAGTTCAGTGATGACGTCAGGCTGGAGTCCCGCTTCAGTGAGCACCAGACGAAAGCTGAAATCCTTAATCTCGTGAAGAAGATGAAGCTAAAAACAGGCAAAGCCCTCAACCTGGGCTACGCCCTGGACTACGCGCTTAGGAACATCTTTGTGAGGTCGGCTGGCAGCCGCATCGAGGATAACGTGCAGCAGTTCCTGGTGCTGCTGGTTGCTGGAAGGTCGTCAGATGCTGTGGCCGGGCCTGCAAGCTCCCTGAAGCAGAGAGGAGTGGTACCTTTCATCTTTCAAGCCAAGAACGCCAACCCCAGTGAGCTGGAGCAGATTGTGCTGTCGCCTGCATTCATCCTGGCTGCAGAGTCACTCCCTAAGATCGGAGACCTCCAATCACAGATTGTGAGCCTTCTGAAAGCAGAACAGGGTTCAGGCCCTGTATCAGGTGAAAAGGATGTGGTGTTTCTCATTGATGGCTCTGAGGGTGTCCGCAGTGGCTTCCCCCTGCTAAAGGACTTTGTGCAGAGGGTTGTGGAGAGCTTGGATGTGGGTCCCGACCGTGTGCGTGTGGCACTGGTGCAGTACAGTGACCGGACCAGGCCGGAGTTCTACCTGAATTCCCACATGGACCAGCAGGGTGTCATCAGCGCCATCCGCAGGCTGACACTGCTGGGCGGCCCAACCCCCAACACAGGGGCGGCACTGGAGTTCGTGTTAAGGAACATTCTGACCAGTTCTACTGGGAGCAGGATAGCAGAAGGTGTTCCTCAGCTCCTGATTGTCCTCACAGCAGAGCCATCAGGGGATGACGTGCGAGGCCCTTCAGTAGTCCTGAAGCAGGGCGGGGCTGTGCCCATTGGCATTGGCATTGGGAATGCTGACATCTCTGAAATGCAGACCATCTCCTTCATCCCTGACTTTGCTGTGGCCATCCCCACCTTCCGGGAGCTTGGGACGATACAGCAGGTCATCTCTGAGAGGGTGATCCAGCTTAATCGTGAGGAGCTGAGCTCGTTGAAACCCATTTTGACGCCCTCAACAGGTGCAGGTGTTGGCAGCAAGAAAGATGTGGTCTTTCTCATCGATGGATCCCGAAATGCTGGCCCTGAGTTCCAGTACATCCGTACCCTGATTGAGAGGATAGTCGAGTACCTGGACATAGGCTTTGACACCACCCGGGTAGCCGTCATCCAGTTCAGTGAGGACTCCAAGATGGAGTTTCCTCTGAATGCCCACTTCAGCAAGGATGAAGTACAGAACGCTGTGCGCAGGCTGCGGCCCAAGGGTGGGAGTCAGGTCTACATCGGAAATGCCCTGGAGTACGTGCTGAAGAACATCTTCCAGAGGCCACTGGGGAGCCGGATAGAAGAGGGCGTTCCGCAGTTCCTAGTCCTCATTTCGTCTGGAAAGTCTGATGATGAGGTGGACGACTCAGCCGTGGAACTCAAGCAGTTCGGTGTGGCCCCTCTCACCATAGCCAGACACACAGACCAAGAGGAGCTGGTGAAGATCTCCCTAAGTCCTGAGTACGTGTACTCCGTGAGCACCTTCAGGGAGCTGCCCAGACTGGAGCAGAAGCTGCTGACGCCCATCACCACTCTAACCTCACAGCAGATCCATCAGATCCTGGCCAGTACCCGATATCCCCCTTCAGTGGTTGAAAGCGATGCGGCTGACATCGTCTTTCTGATTGACAGCTCTGATGCCGTCAAGCCCGATGGCATCGCTCATATCCGAGACTTTGTCAGCAGGATCGTTCGCAGACTCAACATTGGTCCCAGTAAAGTGAGGATTGGGGTCGTGCAGTTTAGCAATGATGTCTTCCCTGAGTTCTACCTGAAGACCCACAAGTCCCAGAGCAGTGTGCTTGAAGCCATACGGCGTCTGAGGTTCAAAGGAGGGTCTCCCCTAAACACTGGCAGAGCCCTGGAGTTTGTGGCAAGAAACCTCTTCGTGAAGTCTGCTGGGAGCCGGATAGAAGATGGGGTCCCTCAACACCTGGTCTTATTCCTGGGTGGGAAGTCTCAGGACGATGTGGCCAGGCATGCCCAAGTCATAAGCTCATCGGGGATTGTGAGCTTAGGAATAGGAGATCGGAACATTGATAGGACGGACTTGCAAACCATCACCAATGACCCCAGGCTGGTCTTCACAGTTCGGGAATTCAGAGAGCTGCCCAACATAGAAGAGAGGGTCATGCTTTCCTTTGGACCCTCTGGGGCTACTCCTCAGCCTCCTGGGGTAGATTTACCTTCTCCTTCCCGGCCAGAGAAGAAGAAGGCCGACATTGTGTTCCTGCTGGATGGTTCCATCAATTTTAGGAGGGACAGTTTCCAGGAAGTGCTCCGTTTTGCATCTGAAATCGTGGACACGGTCTATGAAGACGGAGATTCCATCAGAGTGGGACTGGTCCAGTACAACTCAGACCCCACGGATGAATTCTTCCTGAGGGACTTTTCTACCAAAAGGCAGATTATCGATGCCATCAACAAAGTCGTCTATAAAGGAGGGAGGCATGCCAACACCAGGGTGGGCATCGAGCACCTGCTGCGGAATCACTTTGTGCCGGAGGCTGGTAGCCGCCTGGATGAGCGGGTTCCTCAGATCGCCTTCGTGATCACCGGAGGGAAGTCAGTGGAGGATGCTCAGGATGTGAGCCTGGCTCTCACCCAGAAAGGTGTCAAGGTGTTTGCCGTTGGCGTGAGGAACATCGACTCTGAGGAGGTGGGCAAGATAGCCTCCAACAGTGCCACAGCCTTCCGGGTGGGCAGCGTGCAGGAACTGTCCGAACTGAGTGAGACAGTGCTCGAGACTCTGCATGATGCAATGCATGAGACCCTCTGCCCTGGTGTGACCGATGTCTCCAAAGCCTGCAATCTGGAAGTCATTCTGGGGTTTGATGGATCTCGAGATCAGAATGTGTTTGTGAGTCAGAAGGGCCTTGAGTCCAAGGTGGACATCATCTTGAACAGAATCAGCCAGATACAAAGGATCAGCTGCAGTGGCAACCAGCTGCCCACTGTGAGGGTATCCGTGATGGCGAACACGCCCTCTGGGCCAGTGGAGGCCTTTGACTTTGCCGAGTATCAGCCGGAGCTGTTTGAGAAGTTTCGCAACATGCGCAGTCAGCGCCCATACGTCCTCACAGCTGACACGCTGAAGTTGTACCAGAACAAGTTCAGGCAGTCGTCGCCTGATACTGTGAAGGTAGTCATTCACTTCACGGATGGAGCAGATGGAGACATGGCTGACTTATACAGAGCATCTGAGGAACTCCGGCAAGCAGGTGCCCAAGCCCTGATCCTGGTGGGTCTTGAACGTGTGGCTAACCTGGAGCGGCTGATGCATCTGGAGTTCGGGCGGGGCTTCATGTATGACAGGCCCCTGAGGCTCAACCTGCTTGACTTAGACTATGAACTGGCAGAGCAGCTTGACAATATTGCTGAGAAAGCTTGCTGTGGGGTTCCATGCAAGTGCTCTGGAGAGAGGGGAGACAGAGGGCCCATTGGCAGCATTGGGCCAAAGGGTATCTCCGGGGAAGATGGCTACCGAGGCTACCCGGGAGACGAAGGCGGACCTGGTGAGCGAGGTCCACCTGGTGTGAATGGCACACAAGGTTTCCAGGGCTGTCCAGGCCAGAGGGGAGTGAAGGGTTCTCGAGGATTCCCAGGAGAGAAGGGTGAATTGGGAGAAATCGGCTTGGATGGTCTGGATGGTGAAGAGGGAGACAAGGGGCTGCCTGGTTCTTCTGGAGAAAAGGGGAGTCCTGGAAGAAGGGGTGACAAAGGACCCAAAGGAGACAAAGGCGAGAGAGGAGATGTCGGGATTCGAGGTGACCCGGGTGACTCAGGACGGGACAGCCAGCAGAGAGGACCCAAAGGAGAGACGGGAGACATCGGCCCCATGGGTCTCCCAGGCAGAGATGGCATCCCTGGCAGCCCAGGAGACCCTGGGAAGGACGGTGGCTCTGGCCGAAGGGGCCCTGCAGGAGCTAAGGGCAACAGAGGTGGTCCTGGCCAGCCAGGCTTCGAAGGCGAGCAGGGTACCAGAGGCTCACAGGGCCCACCTGGTCCCATTGGTCCCCCAGGCCTGATTGGGGAACAAGGAATTCCCGGACCTCGAGGAGGCGGAGGTACGGCTGGGGCTCCTGGAGAACGTGGCAGAACTGGTCCTCTGGGGAGGAAGGGTGAGCCAGGAGAGCCAGGGCCGAAGGGAAGCATCGGGAACCGTGGACCCCGAGGAGAGACGGGAGATGACGGGAGAGATGGGGTTGGCAGTGAAGGACGCAGAGGCAAAAAAGGAGAAAGAGGCTTCCCTGGGTATCCGGGACCAAAGGGCACCCCTGGTGAGCCAGGGGCAGATGGACCACCAGGACCCAAAGGCATCAGAGGTCGAAGGGGAAATTCAGGACCTCCAGGGGCAACTGGACAAAAGGGAGACCCTGGTTACCCAGGACCATCTGGTCACAAGGGCAACCGAGGCGACTCCGTTGATCAATGCGCCCTCATCCAGAGCATCAGAGACAAATGCCCTTGCTGCTACGGGCCCCTGGAGTGCCCTGTATTCCCAACAGAACTCGCCTTTGCCCTGGATACCTCTGAGGGGGTGACTCAGGACACCTTCAGCCGGATGCGAGAGGTGCTTCTGGGCATTGTGGGCGATCTGACCATTGCAGAGAGCAACTGTCCGCGGGGTGCCCGCGTGGCTGTGGTCACCTATAACAATGAGGTGACTACAGAGATCCGGTTTGCTGACTCCAAGAAGAAGTCTGCCCTCTTAGACAGTATTCAGAACCTCCAAGTGGCCTTGACCTCTAAGCAGCAGAGCCTGGAGACCGCAATGTCATTCGTGGCCAGGAATACATTCAAACGTGTGAGGAGTGGCTTCCTGATGAGGAAAGTGGCTGTTTTCTTCAGCAACAAGCCCACCAGGGCATCCCCCCAGCTCCGAGAGGCCGTACTCAAGCTTTCCGATGCGGGGATCACACCCTTGTTCCTTACAAGCCAGGAGGACCGACAGCTCATCAACGCCTTCCAGATCAATAACACAGCAGTGGGACATGCCCTGGTTCTGCCTGCAAGGAGGGATCTCACAGACTTCCTGAAGAATGTCCTTACCTGCCATGTTTGCTTGGACATTTGCAATATCGACCCATCCTGTGGCTTCGGCAGCTGGAGGCCTTCCTTCAGGGACCGGAGGGCAGCAGGCAGTGATGTGGACATAGACCTGGCTTTCATCTTGGACAGCTCAGAGGCTACCACACTGTTCCAGTTCAATGAGATGAAGAAATACATAGGCTATGTGATCAGACAGCTGGACCTGAGCCCAGACCCGAAGGCTTCCCAACACTTTGCCAGGGTGGCTGTTGTGCAGCAGTCAACCTACGAGTCTGTGGACAATGCCAGTGTGCCGCCTGTGAAGGTGGAATTCTCACTGACAGACTATGGTGCCAAGGAAAAGCTGTTGGATTTCCTTAGCCGGAGGATGACCCAACTTCAGGGAACCATGGGCCTGGGCAATGCCATTGAATACACTATAGAGAACATCTTTGAAAGTGCTCCAAACCCACGGGACCTCAAAATTATGGTGCTGATGTTGACTGGTGACATGCAGAGGCAGCAGCTGGAGGAGGCCCAGAGAGCCATCCTCCAGGCCAAGTGCAAGGGTTACTTCTTTGTGGTTCTGGGCATTGGCAGGAAGGTGAATATCAAGGAGGTCTACAGCTTTGCCAGTGAGCCCAATGATGTCTTCTTCAAATTTGTGGACAAATCAACTGAGCTCAACGAGGAGCCTCTGATGCGCTTTGGGAGGCTGCTCCCATCCTTTGTCAGCAGTGAAAATGCATTTTACCTGCCTCCAGATCTCAGGAAACAGTGTGATTGGTTCCAAGGGGACCAACCAGTGAAGAATGGCGTGAAGTTTGGTCACAAACAGATAAACCCTCCACATACTGCTAATTCAAGTCTTACATCCAAAGTTGTGACCACAATGAAGCCAGTGACAACGACCAAACCAACAGCAATTGTAAACCTGCCACCTGCTAAGCCAGCCCCAGCGAGGCCAGCCCCTGCTCAGCCAGTTCTTGCTAAGCCAGACCCCGCAAAACCAGCCCAAGCAAGGCCAGCCCCTGCTAAGCCAGCTTCTGCTAAGTTGGTGCCTCCTCAGCCAGTCCATGTTCAGCCAGCCCCTGCCCAGACAGCTTCTGTAAGACCAGCCCCCGCTAAGCCAGCCCCTCCTCAGCCAGCTGCTGCTAAGCCAGTCCCTGCTAAGCCAGCAGTCCCCGCTCAGCCAGCCCCTCCTCAGCCAGCTGCTGCTAAGCCAGTCCCTGCTAAGCCAGCAGTCCCTGCTCAGCCAGCCGCTGCTCAACCAATGCCTGCTCAGCCAGTCCTTACTAAATCAGCCGCTGTGAAACCAGCCTCTGCCAACAAGCCTGTGGCAGCCAAACCTGTGGCCACGAACACAGCCACAGCCACAGCCAGACCTGCATTAGCAGCGAAGCCTGCTGCAGCGAAGCCTGCAGCAACGAGACCCCTTGCTGCTGCCATAAGGCCAGTTGCTACCAAGCCAGAGGCCCCCAGGCAACAGGCCAAACCAGCTGCCACCAAGCCAGCCACTACTAAGCCCTTGGCGAGAGTGTCCCGAGAAGTCCAGGTCTCTGAAGTCACGGAGAACAGTGCCAGACTCCACTGGGAGCGGCCCGAGCCTTCCAGCTCCTTTTTTTATGACCTCACTGTAACCTCGGCCCACGACCAGTCCTTGGTTCTGAGACAAAACCTCACTGTCACTGACCGTGTCATCGGAGGCCTACTGGCTGGACAGCTGTACCATGTCGTAGTGGTCTCCTACCTGCAGTCTCAGGTCAGGGCCATCTACCAAGGAAGTTTCAATACGAAGAAAACCCAGCCTCCACCTCTTCAGGCAGCACACCGAGCATCCAGTTCAACCATCAACCTCATGGTGAACACAGAACCATTGTTTCTCACTAAAACAGATATATGTAAGCTGTCCAGAGATGCTGGGACTTGTGTGGACTTCAAGTTACTATGGCACTATGACCTAGAGAGCAAAAGTTGCAAGAGATTCTGGTATGGAGGTTGTGGAGGCAACGAGAACAGATTCCACTCCCAGGAAGAATGTGAAAAGATGTGTAGTCCTGAGTTAACAGTTTGACAAGAGCCTAAGCATGGCCTTCAGGCAACACGTACCTCTGGGAGAAGGAGGAGGCAGCCATTTCTAACTCGTTTCTATAGAAGCCCTGGGTAGATGCCTCAGCACGGTGCCTTTTCATGCTTTGATTGACACTCAACCTCGGGAGGAAACCCTCTGCACGTGACCTGTCAATATGGTGCTAAATGTGTCTATGGACCCTGCTCTCCGTCTCCAGGCAGTTCTACCGTATACTTGGACCCTTGGGTTATAGCTAGCCACTGCTGGTGTTTATGTGAACATTCCTATAAATTCAATTTCCCTCTGGAGTTCCACGCTACGCCTGTGCCAGGCAAACCCTGTGCCTAGAACATAGCCTGGACGTCACAGCTACTCTGTACATTTCTGCTTGGTTCATTCCTCTGTAGTTGCACGGCTTAGATGGAGAAACAAGAGTCTAACCTTCTCATGGTCCCAGTTTTCTGGATTAGACTTCGATCAATATTCTTCTAAATCCTCTGACAAATGATCTAATTAGAAGAAATCAGACCTCTTTCCTGTGTGCATTGCTGGGACAAATGCCTCCATTAGAAAATTCAAAGAAAGTCATAATCGAGAATCTCTTTGGTGGTCCTCTAAGGCGGGTTGTTTTTCAATGTTGTTGTCTTGGAGCTTGGAGGTGAAATTCAATGTTTAAAATTTTTAGGAAATTTATACAAAGAAACTTTTAAATAAAGTATATTGAATGTGCCATGA'
p124
(I39
S'MRKHRHLPLVAVFSLLLSGIATTHAQQHGVMEVNKRDIVFLVDGSSSLGPSNFNAIRDFVTRVIQRLEIGQDLVQVSVAQYADTVKPEFYLNSYTNKRDAITAVRKMRALNGSALYTGSSLDFVRNNLFTSSAGHRAAEGVPKLLVLITGGKSLDEVSQPAQELKRGSIMALAVGSKAADEDELKEIAFDSSLVFIPAEFRPAPLQNMLPSLMAPLRTLTGTTEESKRDILFLFDGSVNVLGQFPAVRDFLYRIIEELDVKPDGTRVAIAQFSDDVRLESRFSEHQTKAEILNLVKKMKLKTGKALNLGYALDYALRNIFVRSAGSRIEDNVQQFLVLLVAGRSSDAVAGPASSLKQRGVVPFIFQAKNANPSELEQIVLSPAFILAAESLPKIGDLQSQIVSLLKAEQGSGPVSGEKDVVFLIDGSEGVRSGFPLLKDFVQRVVESLDVGPDRVRVALVQYSDRTRPEFYLNSHMDQQGVISAIRRLTLLGGPTPNTGAALEFVLRNILTSSTGSRIAEGVPQLLIVLTAEPSGDDVRGPSVVLKQGGAVPIGIGIGNADISEMQTISFIPDFAVAIPTFRELGTIQQVISERVIQLNREELSSLKPILTPSTGAGVGSKKDVVFLIDGSRNAGPEFQYIRTLIERIVEYLDIGFDTTRVAVIQFSEDSKMEFPLNAHFSKDEVQNAVRRLRPKGGSQVYIGNALEYVLKNIFQRPLGSRIEEGVPQFLVLISSGKSDDEVDDSAVELKQFGVAPLTIARHTDQEELVKISLSPEYVYSVSTFRELPRLEQKLLTPITTLTSQQIHQILASTRYPPSVVESDAADIVFLIDSSDAVKPDGIAHIRDFVSRIVRRLNIGPSKVRIGVVQFSNDVFPEFYLKTHKSQSSVLEAIRRLRFKGGSPLNTGRALEFVARNLFVKSAGSRIEDGVPQHLVLFLGGKSQDDVARHAQVISSSGIVSLGIGDRNIDRTDLQTITNDPRLVFTVREFRELPNIEERVMLSFGPSGATPQPPGVDLPSPSRPEKKKADIVFLLDGSINFRRDSFQEVLRFASEIVDTVYEDGDSIRVGLVQYNSDPTDEFFLRDFSTKRQIIDAINKVVYKGGRHANTRVGIEHLLRNHFVPEAGSRLDERVPQIAFVITGGKSVEDAQDVSLALTQKGVKVFAVGVRNIDSEEVGKIASNSATAFRVGSVQELSELSETVLETLHDAMHETLCPGVTDVSKACNLEVILGFDGSRDQNVFVSQKGLESKVDIILNRISQIQRISCSGNQLPTVRVSVMANTPSGPVEAFDFAEYQPELFEKFRNMRSQRPYVLTADTLKLYQNKFRQSSPDTVKVVIHFTDGADGDMADLYRASEELRQAGAQALILVGLERVANLERLMHLEFGRGFMYDRPLRLNLLDLDYELAEQLDNIAEKACCGVPCKCSGERGDRGPIGSIGPKGISGEDGYRGYPGDEGGPGERGPPGVNGTQGFQGCPGQRGVKGSRGFPGEKGELGEIGLDGLDGEEGDKGLPGSSGEKGSPGRRGDKGPKGDKGERGDVGIRGDPGDSGRDSQQRGPKGETGDIGPMGLPGRDGIPGSPGDPGKDGGSGRRGPAGAKGNRGGPGQPGFEGEQGTRGSQGPPGPIGPPGLIGEQGIPGPRGGGGTAGAPGERGRTGPLGRKGEPGEPGPKGSIGNRGPRGETGDDGRDGVGSEGRRGKKGERGFPGYPGPKGTPGEPGADGPPGPKGIRGRRGNSGPPGATGQKGDPGYPGPSGHKGNRGDSVDQCALIQSIRDKCPCCYGPLECPVFPTELAFALDTSEGVTQDTFSRMREVLLGIVGDLTIAESNCPRGARVAVVTYNNEVTTEIRFADSKKKSALLDSIQNLQVALTSKQQSLETAMSFVARNTFKRVRSGFLMRKVAVFFSNKPTRASPQLREAVLKLSDAGITPLFLTSQEDRQLINAFQINNTAVGHALVLPARRDLTDFLKNVLTCHVCLDICNIDPSCGFGSWRPSFRDRRAAGSDVDIDLAFILDSSEATTLFQFNEMKKYIGYVIRQLDLSPDPKASQHFARVAVVQQSTYESVDNASVPPVKVEFSLTDYGAKEKLLDFLSRRMTQLQGTMGLGNAIEYTIENIFESAPNPRDLKIMVLMLTGDMQRQQLEEAQRAILQAKCKGYFFVVLGIGRKVNIKEVYSFASEPNDVFFKFVDKSTELNEEPLMRFGRLLPSFVSSENAFYLPPDLRKQCDWFQGDQPVKNGVKFGHKQINPPHTANSSLTSKVVTTMKPVTTTKPTAIVNLPPAKPAPARPAPAQPVLAKPDPAKPAQARPAPAKPASAKLVPPQPVHVQPAPAQTASVRPAPAKPAPPQPAAAKPVPAKPAVPAQPAPPQPAAAKPVPAKPAVPAQPAAAQPMPAQPVLTKSAAVKPASANKPVAAKPVATNTATATARPALAAKPAAAKPAATRPLAAAIRPVATKPEAPRQQAKPAATKPATTKPLARVSREVQVSEVTENSARLHWERPEPSSSFFYDLTVTSAHDQSLVLRQNLTVTDRVIGGLLAGQLYHVVVVSYLQSQVRAIYQGSFNTKKTQPPPLQAAHRASSSTINLMVNTEPLFLTKTDICKLSRDAGTCVDFKLLWHYDLESKSCKRFWYGGCGGNENRFHSQEECEKMCSPELTV'
p125
tp126
sS'GCGACCCAGATGCGGCCACGGAATGCCCAGCTTTCCGGAGATTGTTTGAGAAACGGCCGTGCGGCGCCCGGGCGTCCCGCAGACCCCGCAGGAGACATATGAAAACCCACTGATGAGCTAACCAAGGATACATTCCAGCAACTCCTGCTGAAATCGTTCTCCAAGACTCTCAGCAAGACCATAGCCAGGAGTTCACATCTCGGGTCTTTTGCACAGCCTGTTCCTTTTTCCTAACTCTTGGCAAGTATGAGGTAAAGGCCTCCTGAAGCAGCTGTGCAGCAGAACTCTCTATCAACTTCTGGTAGGCCGCTGAGTGCTGCAGGGGCCACGGGAACGGAGCACAGCCTTTTGTTTTAGACTCAAGAAACCCAAGGATGGGGAGGATCAGGTGAAAACCCTGGTTTCAAATCACATTGGCAACAGTTGATGTCCACAGGATCCATGCCTCTAGTAGTTCCACGTGTTTATATTCTACAGGAAAATAGATCAAGTGAAGGAACCACTTAGAAATTACAGACAGCATCTGAGGAGATATGACTGGCAAAGAAGAGAATATGCAGAGTGCAAACAGAGTGCTGAGGATAAGTCAGTTGGATGCACTTGAACTGAATAAGGCCCTGGAGCAGCTTGTGTGGTCCCAGTTTACTCAGTGCTTTCATGGATTTAAGCCAGGACTGTTAGCTCGCTTTGAGCCAGAAGTGAAAGCATTTCTGTGGCTTTTCCTATGGAGGTTCACCATCTACTCCAAAAATGCCACTGTGGGGCAGTCAGTTTTAAATATTCAGTACAAAAATGATTCTTCTCTCAACCTGATATACCAGCCACCGAGTAAAACTCAGAAACTGTGGTATGCTGTGTGCACCATTGGGGGAAAGTGGTTAGAAGAACGATGTTATGATTTGTTTCGAAACCGTCATTTAGCGTCTTTTGGGAAAGCCAAACAGTTCATGAATTTTCTGGTTGGACTTTTAAAATTAGGTGAGTTGATAAACTTCTTGATTTTCCTACAAAAGGGAAAGTTTGCAACTTTGACAGAACGCCTCCTTGGCATTCATTCCGTATTTTGCAAGCCCCAGAACATGCGCGAAGTTGGCTTTGAGTACATGAATAGGGAACTTCTCTGGCATGGCTTTGCTGAGTTTCTGATTTTTCTCTTACCACTTATCAATATCCAGAAGTTGAAAGCCAAATTGTCTTCCTGGTGTATCCCTCTTACTGGTGCTGCTGGTCATGACAGTACACTAGGCAGCAGTGGAAAAGAGTGTGCTCTGTGTGGAGAGTGGCCCACAATGCCTCACACTATTGGATGTGAACATGTATTTTGTTACTACTGTGTTAAGAGTAGCTTCCTATTTGACATATACTTTACGTGCCCGAAGTGTGGCACAGAAGTGCACAGTGTGCAGCCCTTGAAATCAGGAATTGAAATGTCAGAAGTAAATGCTCTTTAGAAACCAAGTTGTTTCCTCTGAGAAAAGTGTATTGTATCCAGTTCCTTGGAATTAGTCATCCTCAGTGTCATCTGTAGGTGGCTTTTAACAGGAGTGTGCTGTACAGCCACTCTCTTCCTTTACAAGCACAACTCAGTTCTAATCACTGGAAACCAAATGATACTAGAAAATCTTATAAATGTTCATGTAATTTTTTTAGATCATCTAATATAATTTTTAATGTCAAGAATACTGGAAATTTTTTGTCAGATGAATACTAAGAATGACTAAGAATTCTTCTTCATAGAAAAAGGTCAGACTCTAAAAATAAAAAATTTTGAGGGTCAAAAAAAAAAAAAAAAAAAAAAAAAAAAAAAAAAAAAAAAAAAAAAAAAAAAAAAAAAAAAA'
p127
(I29
S'MTGKEENMQSANRVLRISQLDALELNKALEQLVWSQFTQCFHGFKPGLLARFEPEVKAFLWLFLWRFTIYSKNATVGQSVLNIQYKNDSSLNLIYQPPSKTQKLWYAVCTIGGKWLEERCYDLFRNRHLASFGKAKQFMNFLVGLLKLGELINFLIFLQKGKFATLTERLLGIHSVFCKPQNMREVGFEYMNRELLWHGFAEFLIFLLPLINIQKLKAKLSSWCIPLTGAAGHDSTLGSSGKECALCGEWPTMPHTIGCEHVFCYYCVKSSFLFDIYFTCPKCGTEVHSVQPLKSGIEMSEVNAL'
p128
tp129
sS'GGTGTCTCGCGGCTCTGTGAGCGGCAGCGGAGAGCGAGGCCTGGTGAGCGCCGCCGTGGTGCGCGCCGGCTGGTCAAGGTTGTGCGCAGAAGAGGCGCAGCGGGCGGGCCAAGAGCGAGCGTCTCCCTCTTCGTAGTGGCACCGGGACCGGTCGCCTGGAGCCGAAATCATGTCCACACCAGGAAAAGAGAACTTTCGCCTGAAAAGTTACAAGAACAAATCTCTGAATCCTGATGAGATGCGCAGGAGGAGGGAGGAAGAAGGACTGCAGTTACGGAAGCAGAAAAGAGAAGAGCAGTTATTCAAGAGAAGAAATGTTGCTACAGCAGAAGAAGAAACAGAAGAAGAAGTTATGTCTGATGGTGGCTTTCATGAGGCCCAGATAAATAACATGGAGATGGCACCAGGGGGTGTCATCACCTCTGACATGACTGATATGATATTCTCGAATAGCCCAGAGCAGCAGCTCTCTGCAACACAGAAGTTTAGGAAACTACTTTCAAAAGAACCTAATCCTCCAATTGATGAAGTCATCAACACACCAGGAGTAGTGGCCAGGTTTGTGGAGTTCCTCAAACGAAAAGAAAATTGTACACTGCAGTTTGAATCAGCTTGGGTCCTGACAAATATTGCTTCAGGAAACTCTCTTCAGACCCGGAATGTGATTCAGGCAGGAGCTGTGCCTATTTTCATCGAGTTGCTTAGCTCAGAGTTTGAAGATGTCCAGGAGCAGGCAGTTTGGGCTCTTGGCAACATTGCTGGAGATAGTACCATGTGCAGGGACTATGTCTTAAACTGCAATATCCTTCCTCCTCTTCTGCAGTTATTTTCAAAGCAAAACCGCTTGACCATGACCCGGAATGCAGTATGGGCTTTATCTAATCTCTGTAGAGGGAAGAGCCCACCTCCAGAATTTGCTAAGGTTTCTCCCTGTCTGAATGTCCTTTCTTGGTTACTGTTTGTCAGTGACACTGATGTACTAGCTGATGCTTGCTGGGCTCTCTCATACCTGTCAGATGGACCCAATGATAAAATCCAAGCAGTCATCGATGCAGGAGTCTGCAGGAGGCTTGTGGAACTTCTGATGCATAATGACTATAAAGTAGTTTCTCCTGCTTTGCGGGCTGTGGGAAACATTGTCACAGGGGATGATATTCAGACACAGGTAATTTTGAATTGCTCAGCTCTTCAAAGTTTATTGCATCTGCTGAGTAGCCCAAAGGAATCTATCAAAAAAGAAGCCTGTTGGACAATCTCTAATATTACAGCTGGAAATAGGGCACAGATCCAGACTGTGATAGATGCTAACATGTTCCCAGCTCTTATTAGTATATTGCAAACAGCAGAGTTCCGGACAAGGAAGGAAGCTGCTTGGGCCATCACAAATGCAACTTCTGGAGGATCAGCTGAGCAGATCAAGTACCTAGTAGAACTGGGTTGTATCAAGCCACTCTGTGATCTCCTCACTGTCATGGATGCAAAAATTGTACAGGTTGCCCTAAATGGCTTAGAAAACATCCTGAGGCTTGGAGAACAAGAAGCCAAACGAAACGGCTCAGGCATTAATCCTTACTGTGCTTTGATTGAGGAAGCATATGGTCTGGATAAAATTGAGTTCTTACAGAGTCATGAAAACCAGGAGATCTATCAAAAGGCTTTTGATCTTATTGAGCATTACTTTGGGACCGAAGATGAGGACAGCAGCATCGCACCCCAGGTTGATCTTAGCCAGCAGCAGTACATCTTCCAGCAGTGTGAAGCTCCTATGGAAGGTTTCCAGCTTTGAAGCAATCCTCTCCTTCTTGTTCCTGTGTCAGACCAGGCTATCCAGTCAAGTCCTCTTGTGGAGCCCACAGTCCTCATGGAGCTAATCTCTCAAATGTTTTCCATAATACTGTTTGCGCTCATTTGCTTGCCTTGCGCACCTGCTCTCTTACACACATCTGGAAAACCTCTGGCTCTCTGTGGTGGAATACCCTTTTATTACAAGGGTAACCAGAACGGCCCACTCTCTTATGGAAAAATCCCTAAGCTTTGGAGATCCGCACTTACATTAGAGTCATGGGAATATATACACATACTAATGTGGCTCCCTTTTTTGTGGGGGAAAAAAGAGGACTCTTCCTCATTCCGTAAAGTGGGGAAAATGACATTGAAAGATAAAACTAAAACCTTTATCTTGAATTTTACACAACTACAAGGGAGATATTTAGACTTGTGTATACATCAGAGTACTCTTCTCGAGTTCTTCCACAGTGAATCAACCCTTGGAGTACCTGGTGGCTTTTTCTAGCCACATTTGCATTAATCCTTATTGAGATGGGATGGTTTTCTTTCCTCTAATGGAGTCATTTTCTTCAGATATTAAAGTTAAACCATCCAATCCCTCACCTTCAGCCTTCAGTGAATGTGCTTCTAGTTGTCAGGAATGCTGAAGAATTAACACTTTGACTTTTAAATGTGATCCTGGCTTGGCAGATTTCCTTAAAGCAGGAAGGAGAGAAGCATATATTAGTTTGTATGGCTTTTGCTTCTCTTTGTTTTTGTTTCTTAGGATTTGGAAGTGGTTCAGTTTTAACGCTGGTATGAAGGCTAAAAGTCCTTAAGTAAAACCATGTTCAAAAATCCAATTAAAGACTAAGAACATAAAACCCATCACTTTGTTTAAACCGGTGTGACGAGAGGCTGTGTTTCTGCATTACAAATGATCCTCAGGCTTTGTGGTCCTGACCAAGGGCCTGGTAAATTGGAGTCACCCTAGGTGCTTTTCCTCTTCGTGACTGGCAGATAACACATATTTAAATGTTACTTAGGGATTTTTTTTTCCTTTGTTGAGTGCAGCTCGATTCTAATGTAATCATGCTGCATACATGCTTTTGCTGTGCAGCATCCTTATCTTTAAAAGCATACTAGTCTCCTCAGTGTGACCTCTAGACTAAAAGGGCAGTGATCCAATAACCTCAGTATCCCCTGTTTTTATTTCATCTCCTACTAGTACCCTACCTCCCCTAGGAAGAACATGCCCACCTCCTGCTTATTTAATGATGACTGTAATGTACCTGCAAATGGCGCTTCCAGTACTGTGTTCACTGACATTTGTGCTTGGACTAGAAGGGGAAAGAAACAAGAAAAAAAGGATAATTGCCAAGAGAACTGCAAATGAGTTCAATGTGACTTCTCGGTGCTAGTTGGCCATCTTGGCTCAATGTTGGGACACACTATCAGAGAGAGGAGTCTTTTTTTTTTTCCCCAATGATATTCTGTTCAAAATGAATTCTGAAGGAAAAGTTGCTCATGTCTGTTTCAGAGCATACCCTTTTAAATCTTTTTAGACTACTCTTCTAGAATTCATCATAACCCCAAAATAGATAAAAGCTATCTAGAAGTTGCCCTGACAAGCTATTGCACATCTCTGGTAAATCCTGCTGAATGTAAGGAATATTCAGAGCTCTCATACCTCATCATGATGTTATTTAAGCAGCCAATTTACACGAGCTGATTTACTTTGAAAAATTTGTTTCATTCAAACTAGAAAGTTCCAGAGACAAAGGACATTTCTCAGCCAAGAGTGTGATGCATTCTTGCCCTAGTCTTTACTTGTGTCTGCTCTGGGATGGATGCTGTCTGATGTCTGTTACCAATGGAGCAGATACCACAAAACTAGTCAACTCCCGTCTGTCCTGTTGTTTTCTAGTGCTGCTTTGTGCTGAGAGAACATGTTAGTTTACTGAACTTGACCTGTACAAGACTGATTCTTTGTAATTTTAGGGTTAAATTAGGTGGTTAATTTAAAGATGAACTTTCAATGTTGCCTTTACATCACATTACAGTATCACTTCTTTGAGAAGGTAATAGAAGCACTGATTCATAGTAAAAATCTTGTTTTTAGCTTTGACTTTTCTTGTGGCTGATTTCTTTTTAAATTGTAAATTACTGGTAACATGTTATTTCTATAGAATGTTTTAAATTGTGTACCTTCTATTGGATAGTTAAAACCTTTGCATCTTATAAAGGAGTTTGAATGAAAAGAAATAGAAAGCACACAGAGTTGTCACCTCACCTTACCAAGAGCATACAGCTGGAACTTTTGTAGCAATATCAGGGTGGCCCAATGAGTTCAGGTCCATTAATCAGTGTGAGCTCTTTTATCTTAAGCCTGACCAGAAGTTCATGAACTTTAAATATTCTGAACTTTGTTTTTATAGTAAAATGATTGTTTCAGTGTAAACATGGCATTCAGCTAAACCCTGGCAAGTTCAGATGTTCTGGAACTGAGTACTTACAAAGAAGACTTTTGTTTCTTAACGCAAGTGGAATCTTAGGGGTTACTTGTAAATCCTATTTTTAGTCTTTCACCTGGCAAAGTCTATTAATTTAATCTTTTGAAGATTTTTATCAGAAAGGTGTTACTTATTACAGAAGCATGTTAGTATTTATAACATAAAACCTCTTAAGGATTTTAGATAGTGATCAGGGCAAAGTGGCTTTGTTGTTTTCCTTCTCTGTCTCCTTCCAGACTTTCCAAGTATGTATTTTATACTGAGAACTTTGATTTTTAAAGAAGCATTCAGAGACTTTGAGATGTAAAGGTACCTGGTACCTGAAGCACCAAAAGGTAAAGAGCCGGGTGGAGAAACACCCCAGAACATTCAGATGCCAGGTACAGAACACAGTTAGGAGACTTGGCTGTGGGACACGGGTTCTTGCCACCAGTCAAAGCCATCTTTAGATTGCCCTCGTTAGCCCCCTGCTGGAAACTCTGCTGCACCAGGGTTGTTTCTTCCACACACCAGACTAAGCTGTTGGACTCGGGTGTTTCTCAGCCTTACTGTCCTATAATAAATCTGAATTATTCCAGTTGCTGCTGACTATGCCTAAGAAAACATATGTAAGTATAATTTGTCAACCAAATTCTGTTGTACATGACTACCTACCGGCAACTTTGATTGATTTCTGTAGTGCTAAATAAACATTTCAGCTGTCTGACCCCAAACGTGGGGCTGTATTGG'
p130
(I37
S'MSTPGKENFRLKSYKNKSLNPDEMRRRREEEGLQLRKQKREEQLFKRRNVATAEEETEEEVMSDGGFHEAQINNMEMAPGGVITSDMTDMIFSNSPEQQLSATQKFRKLLSKEPNPPIDEVINTPGVVARFVEFLKRKENCTLQFESAWVLTNIASGNSLQTRNVIQAGAVPIFIELLSSEFEDVQEQAVWALGNIAGDSTMCRDYVLNCNILPPLLQLFSKQNRLTMTRNAVWALSNLCRGKSPPPEFAKVSPCLNVLSWLLFVSDTDVLADACWALSYLSDGPNDKIQAVIDAGVCRRLVELLMHNDYKVVSPALRAVGNIVTGDDIQTQVILNCSALQSLLHLLSSPKESIKKEACWTISNITAGNRAQIQTVIDANMFPALISILQTAEFRTRKEAAWAITNATSGGSAEQIKYLVELGCIKPLCDLLTVMDAKIVQVALNGLENILRLGEQEAKRNGSGINPYCALIEEAYGLDKIEFLQSHENQEIYQKAFDLIEHYFGTEDEDSSIAPQVDLSQQQYIFQQCEAPMEGFQL'
p131
tp132
sS'GTGGAGAGTCAGTGTGGACTTAGGCCACAAAAGATGGAGGTCCATTTGCCTAGATTGCCATTGATGAAAATCTTCTCCTATCTGGATGCCTACAGTTTGCTACAGGCTGCCCAAGTGAACAAGAACTGGAATGAACTTGCAAGCAGTGATGTCCTGTGGAGGAAGTTGTGTCAGAAGAGATGGCTCTTCTGTGACATGGTTACCCTACAGCTCCTGGGCACAGAGACATGGAAGCAGTTCTTCGTTTTCCGAACATGGCAAGAACATGCCAAGACCCGGGCAAAGCCAGAAGATTTCACTTACAAGGAAATTCCTGCGGAGTATGGATTTCGGGCAAATGTATGTTATATCTCAGGGTGTGGCTTAACAAGAAACGTACAAGACAGGTCGGTCATCTGTATGGTGAGTTCCATGACCAAGTTGTCCACCTGGGATATTCGTGAGGGCATTATGACCTGGGTAAGCACAGAACAGCCAGCCTATATCAAGCTGTTGACTACCCTCCCTGAGATGCACATTGCGGTCACTGTAGATACACACTCAACTATCAAACTGTGGGACTGCCACAACAGGGAAGCTCTGGCAACTAACTGCCTGTTCTCCTCCTGTAAATTACTGAAAGCTGTGTTTTCAAAGGATGACCCAATTGTCTTGGTAGGCGATATCTCGGGAAACCTCTACATCTTTAGGATTCCTGACTTACACCTCATTTCCAAGGTGAATGTATTCCCATACGGTATTGATGAACTCCACTGCTCTCCTCAGAAGAAATGGGTCTTTCTGATTATGAAACACCCACGTGTCTTGACAAAGGTCGTTTACATGAACAGCTTACTGAGGACATCAGAATTCTCTGCCCCTGTGTCTACCATTCTCAAATTTTCATTATGTGATAAAGCCTTCTGGACCCCAAGAAGGGAAGACAGGATAACCCAGATGTCCAGAGGTGTCCCCCCAAGACCCACAAAATTTGCCACATTTGATATGAAGCTGGAAGAGATTGGGAACAAAGTAACTGTTCAAGAATATTTGGTCGCAAGCTTCTCTTTGCAAGATTATGAGGCGAGTCCAGAATGGATGGGAGTCAGTAATAAGGACGTGATTGTTTGTTCAACTGGATCCTCTCTCTTGCTCTTCAACATACATGGTCTCCGTCTTCAGACATTTCACTACTGCCCAGAAGAGATCTTGAGACTATGGGTGGACCCCCTTCATGTCATCGTCACCTGTAACGATGGCTCTATGGATGTGTATGCATGGGAGGAGAGAAGCCTGCTGCTCAGAAAGTGTTATCGGCTGCAAAACAGGAGAAATCTGCCACCAGAAAGGTAATTTCTGCTTCTTGACTTAAACTGGACATTAATTTTAAAACATTTCTGGAGCTGGAGAGTTGGCTCAGCAATTAAAAGCACTGGCTGCTCTTCCAGAGGACTTGGGTTCCATCCCCAGCATCCACATGGCAGCTCACACCTGTCTGTAACTCCAGTTCCAGGGGATCTGACTGACACCCTCACACCAATGCAGTGAAAGTAAAGTTAAACATATTGAAAAGTTCTGTGCAAAAATGCATTTTAAAAAGAGAAATGAACTTTCTATAAAATGTATGACTAAATGTATGATCTCCAGCATCACCCAGAACAGATATTGGCTGTGTATGTGTAATATTTAAGAAGTAGAGTCAGGAGGATCCAGAAGTGCAAGGTCACCTTCTGCTATGTAGGAAATTTGGCAGCCAAATTGGGTTTATTGCAAAACCATCACAAACAAACAAAAATTGGAACTGGCTAAGTATAACACAAGCCTTTAATCTCAGCACTCGGGAGGCAAACAAGTGACTATTTTGTCAGTTCCTGGTCTACATAGTGACTCCCAGGACAGCCAAGACTAGAGAGATTCTGTATTAGGAATGAAATGAGGGAGGGAAAAAAAGAATTGCTAGTTCTTGGAATCTCAGCACATTCAGTTATGTCAACAGTCTCAGGCCCACAGTAGAAGTGGGGAGAATGCATCCTCATATCTTGTCTTTAATGTCAGGATGGGTTCTCCTGAGAGCAGCCCCACTAGGGTTGCTTCATCATTGAGCTGTCATTATCTCCATTTGACTAATTTTCCTTGAGTTTTACTTGCCTTCATCCAAAATATTTTCAGTGATCATGGTATGGGGTAGTACAGTCCCCAAACCCTGCATCCAGGCTGCTGAAGCAAGTGCTGATTGCCAGTTAGCAAGACAACCTGACCCTGTCTCC'
p133
(I19
S'MEVHLPRLPLMKIFSYLDAYSLLQAAQVNKNWNELASSDVLWRKLCQKRWLFCDMVTLQLLGTETWKQFFVFRTWQEHAKTRAKPEDFTYKEIPAEYGFRANVCYISGCGLTRNVQDRSVICMVSSMTKLSTWDIREGIMTWVSTEQPAYIKLLTTLPEMHIAVTVDTHSTIKLWDCHNREALATNCLFSSCKLLKAVFSKDDPIVLVGDISGNLYIFRIPDLHLISKVNVFPYGIDELHCSPQKKWVFLIMKHPRVLTKVVYMNSLLRTSEFSAPVSTILKFSLCDKAFWTPRREDRITQMSRGVPPRPTKFATFDMKLEEIGNKVTVQEYLVASFSLQDYEASPEWMGVSNKDVIVCSTGSSLLLFNIHGLRLQTFHYCPEEILRLWVDPLHVIVTCNDGSMDVYAWEERSLLLRKCYRLQNRRNLPPER'
p134
tp135
sS'GCCTGGACAGTGCTGCGGGGTTCTCGCCTGCTCCCAAGCTGGTAGAATCCCCAAAAGAAGGTAAAGGAGGCAAGCCTTCCCCGCCCTCTGGAAAGAGCGCCAAACGGAAAATGGAAGGCCCAAAGAAAGCCCAGGGCCACAGCCCTGTAAATGGCTTGCTGAAAGGGCAGGAGAGTCGAAGTCAAAGCAGGAGTCGTGAGCAGAGCTACTCAAGGTCCCCATCACGGTCTGCTTCTCCAAAGAGAAGGAAAAGTGATAGTGGCTCTACCTCAGGTGGGTCCAAGTCACAGAGTCGTTCTCGGAGCCGAAGTGACTCTCCTCCAAGGCAGGTACACCGAGGTGCTCCCTACAAAGGCTCAGAAGTGAGGGGCTCCCGGAAATCAAAGGACTGCAAGTACCTCACCCAGAAGCCACACAAGTCTCGTAGCCGGAGCTCCTCTCGTTCCCGAAGCCGGTCACGAGAGCGGACGGACAATTCTGGAAAATACAAGAAGAAAAGTCATTACTATAGAGATCAAAGACGTGAGCGCTCAAGGTCATATGAGCGCACAGGCCATCGCTATGAGAGGGACCACCCTGGACACAGCAGGCATCGGAGGTGTGATAGGATCTCTGGTGGCTGCCCTTGGTCCCTCCCTGTTGGGCACACCTTGGCGTCAGTGGCCTTGTAGCATGATGTTTTTCGAAAGTGTTTTTAATTGGACCTTGAGGTGAATTTGATTGATGAGACAGTGGGCAAGGTGCCCTTCAGGCTGGCCTGGGGAGTGCTGTGCATCTGTCCCGGTTAATGGTCCACCTCAACTGCAGACCTTCAGGTAGCTGGATGGAACAGCAAAGGCACACGTCCCCATTGGCGTGGCTTGGTGCTATTGACAAGCTGTCTCTTCACTCCTAAACTGATACTCAATTACGTTAAGCCAAGAAAGATGATTTTTGAAATCTTTGCCTATATTAGGTTGTACTTGTGTACATATTTTGCAGTGGTTCACAATGAGAAAATGGCCTTAATAGCCCCCTTGTTCTCTATTCACGTTGTAAATAAACATGTTTAATACAAGTAAAAGCTATATACGAGAACTCAGAATTTTGATTCTGTTAGCTTAACACTTGTATAGAAAATTGAGATTTTTAAAATGTGAAGGTATTTAGGTCTGTGTTGAAAGTCATATATTTTTATCTGTGCAATGCTGAGTGCAGGCCCTTTAGAGCACACTGGCGGC'
p136
(I44
S'MEGPKKAQGHSPVNGLLKGQESRSQSRSREQSYSRSPSRSASPKRRKSDSGSTSGGSKSQSRSRSRSDSPPRQVHRGAPYKGSEVRGSRKSKDCKYLTQKPHKSRSRSSSRSRSRSRERTDNSGKYKKKSHYYRDQRRERSRSYERTGHRYERDHPGHSRHRRCDRISGGCPWSLPVGHTLASVAL'
p137
tp138
sS'ATGGCTTTCCGGCCCCAGAAAGTGTGCTTATGTCCATATCTCCCAGTGCGCCCACTCCAGATCTCTACCCACTTGTACATAATCCAGCATCCAGCAGAGGAAAGGAGAGTGTTGCGCACAGTCCCTCTGCTAGCAGCATGCCTTCCCCCAGACAGATGCACAGTCAAGATTGGCCGCCGCTTCAGTGAAGAGCGAGATGTTGAACTTGCAACTGTTTGCCGGGACTCTGGTACATTAATATTATATCCAGGGGCTGAAGCTACTAATTTGGAAGAATTTATATTAGATTCTCCTGTTTATCCTTCCACAATCATCCTCATTGATGGTACATGGAGCCAGGCTAAGGACATTTTCTATAAGAATTCCTTGTTCCGACTTCCCAAACAGGTGCAGTTAAAAACTAGCGTTTGTAGTCAGTATGTAATTCGGATGCAACCAACAAACAGGTGCCTTTCTACCCTGGAGTGCGCTGCTGTTGCTCTTTCCATCTTGGAGAAAAACAATTGCATACAAGAGACCCTGCTCCGCCCCCTTCAAGCTCTGTGTTCTTTCCAGCTTCAGCATGGCGCTCAGATTCGCCTCAGCAAGGAATATCTTCTGAGAAACGGATTGTATCCCAAGCCAATGCCAAAGAACAAACGCAAACTCAGGAAGATGGAGCTGTTGATGAACAGTGTTAAAATTTAGCACGTCTGTCCCTGTGGTGCTAGTTTACCTGTCACTGGCTGACAAGACTGTGTTACATCTTCCCAGTCTAGGCTTTCGCTCTGAAGAATCGTTGGCCCATTCTTGTGCTGAAGGACGAGGGCTGCTCCACAGCGCCTTATGGTTCACTTCCGTTGACTGTGAAAAGCAGTTTCACACTGCCTCTCGTTTTGTTTTTGTTTTTGTTTTTGTTGTTTTTGTTTTTTCAATACAAGGTTTCTCTGTGTAGCCTGTAGACCAGGCTGGCCTCAAACTCAGAGATCTGGCTGCTTCTGCCTCCCAAGTTCTGGGCTGAAAAGCATGCCCCACCTCTGTCTAGCTTCTGTATTTGCTTTTAAACATGTGCTTCCAATACTTTTTTTTTTTTTTTAAAGAATCTATTCAAAATACGATTAGTCTAGAGTAAGGAGCTGTTGTTTGTAAAATGAGGAAAATTGTGTCTGGGAACATGTTCCCGTCAGTGTTTATAGGTATGTAGGTGTAGATCACTGATGGAATATACCCCGTGAAACTAATGTTTCAGCCTAGTGAATGAAATTATAAGTGTGAAGTAAGTGACACAGAGGGCAGTTTATGTCATTAAGTAGTGTAAGGGAATAGGGAGACGTTACTGTTTACAGTTGTACTCGGACTCAGCTAATGTGACTCACGTCTTCTGTTAGCATCTGAATTCCTGTGGAGACATATAATTTTGAAATAACCTGCATTCTCTATGGGGGATGCTGTGCATAACTTTCAGTGTTCACTGAGCAAGCTAACTGGTGGTAAGAGGTTTTTGATGAAGTTTCTACATGGAAATGACTGAAGTAAATTATAATAAAGCTATCATTTTAAGAACATATTTCTATAAGTAGCTCTACTTACTTTTTTTTTTTTTTTTTTTTAAAGAAAAACAACTTTCAATGTGGAAGATACATGCCCTTACCTTATTTGGAGAATATTTACTGATATTTTGTATAGAAAAAGAGAAATTTATACATTTTATATTTATATCCAATTTACAGTTAAGCATACACTTTGGCAAGATCACGATGTTTCATTTTGACTGTTGTTCACAATTGCTAAGGTTTCCTAAATTCAGGGTGACAGTGGAAGGGAGAGTCAAGCATGACTTAGTTTGTGATCTTTAGTTGTGATTTTGATAAATACCTCTGTGTGTGGCATGAACACACACCAGTTTCTGATTATTTTTATGCTTTTTTTGTTTGTTTGTTATTGGGTTAGATCAGACACTCATTAAGAACTTGGCTGGTCCTAATTAGAATGCTAACAGATATGTAGCATGTTACAGAAAGATATTAAAATTTAGGTTTGTCTTAAGTTGCTGACTTATATTTGCATTTAAAAATAAGTCGGTCTTTTATAACCTAAATGTCTAGTATCAATTGAATATTTATATAATAATGAAATAGTAGTATTATGTATAATGGTTTCTTAAGGAATGAGTTAAAATCATCTCATAATAATTTTTTATGTTGAAAATAAACTTTATAAAATCTTTTGAGTGCTATGATTGCTCTTTAAGAACAATCTGACAAATGATACTATTTATATTTCCAAACATCAATTTGTGTTTACCATTTAGAATAACTTTTATGTTTTAAACATAATACTTAAATACTTAAAGTTTATTACTTTGGCTACATATTTTTTCTTTCTTTCTTTTTTAAGAAGATATATCTAGATAGAAGAAAGATGGCAGAGTTGAGATACTTGGCACTTTGATGCATCTGTGAATCCTAACAGCATCAGATACATGGCTACAGGGTGTGGGGAGTGACATGTAAAGTCAGGAGTTTAGCAGCAGACAGAGATTAGGCAAATCCAGAAAAACCAGAAGTTTAGATTTGTTGAAGAAATTGGACCCTAAGGTGGTATGTGTTGGGAGCCGCCCCCACATTCGCCGTCACAAGATGGCGCTAACATCCTGTGTTCTAAGTGGTATACAAATAATCTGCGCATGTGCCAAGAGTAATTTTCCACTACATGTACTCTGCCTTTACTCGGCCATGGGCTGCAGCCAATCAGGGAGTGATGCGTCCTAGGCGAAGGATAACTCTCCTAAATAGGGACAGGGTTTCGCTTTCGTTTTTGGGGGCTTTCGTTTTTGGGCTTGGGGCTTGCGCTCCTGGCTCCTGAAGATGTAAGCAATAAAGTTTTGCCGCAG'
p139
(I24
S'MAFRPQKVCLCPYLPVRPLQISTHLYIIQHPAEERRVLRTVPLLAACLPPDRCTVKIGRRFSEERDVELATVCRDSGTLILYPGAEATNLEEFILDSPVYPSTIILIDGTWSQAKDIFYKNSLFRLPKQVQLKTSVCSQYVIRMQPTNRCLSTLECAAVALSILEKNNCIQETLLRPLQALCSFQLQHGAQIRLSKEYLLRNGLYPKPMPKNKRKLRKMELLMNSVKI'
p140
tp141
sS'GGCGCCCGCCCCGGCCGCGGCCCCGGGCCTCCCCCGCGCCGCCCTGCCTGGCCCGGCCCGCCCAGCCCCGGTGTGGCAGCGGCTCATGGCGGCGGTGGGGCCCCCGCAGCAGCAGGTGCGGATGGCCCAGCAGCAGGTCTGGGCGGCGCTCGAAGTGGCGCTCCGGGTGCCCTGCCTCTACATCATCGACGCCATCTTCAACTCCTACTACGATTCCAGCCAAAGCCGGTTCTGCATCGGGCTTCAGATCTTTCTCCGGCTCCTTGGTATAGTTGTATCCAGTATTGTTCTGATCTTGTCACAGCGATCACTTTTCAAGTTTTACATGTACAGCTCAGCCTTTCTATTAGCTGCAACTTCAGTGTTGGTGAATTACTATGCTGCTTTGCACATTGACTTCTATGGTGCCTACAACACGTCAGCGTTTGGAATCGAGTTGCTTCCTCGGAAAGGGCCCTCACTGTGGATGGCACTCATCGTTCTGCAGCTAACCTTTGGAATTGGATATGTCACATTACTGCAGATTCAGTCCATCTATTCACAGTTAATGATTTTAAATATCTTGGTTCCTATAATTGGCTTAATCACAGAGCTGCCATTACACATCAGAGAGACAGTAGTGCTCATGTCGTCCTTGATTCTCATATTTAACACAGTGCTTGTCTTGGCAGTGAAACTTAAGTGGTTTTACTACTCTACTCGGTATGTGTACTTGTTAGTGAGGCATATGTACCGAATTTATGGATTACAGTTACTGATGGAGGACACATGGAAGAGGATTCGTTTCCCAGACATACTTCGGGTCTTCTGGCTAACAAGAATTACAGCTCAGGCTACAGTGTTAATGTACATTTTAAGGATGGCAAATGAAACTGAGTCCTTCTTTATTTCTTGGGATGATTTCTGGGACGTCATTTGCAATCTAATAATTAGTGGGTGTGATTCTACACTAACTGTACTAGGCATGAGTGCTGTAATTTCTTCAATAGCCCATTATTTGGGCCTTGGAATATTGGCCTTTATTGGATCAACTGAAGAAGATGACAGGCGGCTTGGCTTTGTAGCTCCTGTTTTATTTTTCATTTTGGCTCTTCAGACTGGTTTAAGTGGGCTAAGACCTGAAGAGAGACTTATTCGCTTAAGTAGAAACATGTGCCTTTTATTAACTGCAGTCCTGCATTTCATCCATGGGATGACAGACCCTGTATTAATGTCGCTCAGTGCCTCCCATGTGTCATCTTTCCATAGACACTTTCCTGTGCTGTTTGTCTCTGCTTGCCTGTTCATTCTCCCTGTCTTACTCAGTTATGTCCTTTGGCATCACTATGCACTAAATACATGGCTGTTTGCAGTTACAGCCTTTTGTGTGGAACTCTGCTTGAAGGTAATCGTCTCCCTCACTGTCTACACGCTGTTCATGATTGATGGCTACTATAACGTCCTCTGGGAAAAGCTTGATGACTATGTCTACTTTGTTCGCTCCACGGGCAATATTATCGAATTTATATTTGGAGTAGTAATGTTTGGGAATGGGGCCTATACCATGATGTTTGAGTCAGGAAGTAAAATTCGGGCTTGTATGATGTGCCTACATGCATATTTTAACATCTACTTACAAGTAAAAAATGGCTGGAAGACATTCATGAATCGTAGAACTGCTGTTAAGAAAATTAATTCACTTCCTGAGATAAAAGGGAGCCACTTGCAAGAAATAGATGATGTCTGTGCAATCTGCTATCATGAGTTCACAACATCTGCTCGTATAACACCGTGTAACCATTATTTCCATGCACTCTGCCTTCGGAAATGGCTGTACATTCAAGATACTTGTCCAATGTGCCATCAGAAAGTGTACATCGAAGATGAGATCAAGGATAACTCAAATGCATCTAACAACAACGGATTTATTGCACCCAATGAAAATCCAAACCCAGAGGAGGCTTTAAGAGAGGATGCTGCTGGATCTGACCGAGAACTGAACGAGGATGACAGTACAGACTGTGATGATGATGCTCAAAGAGAAAGAAACGGGGGGATTCAGCACACAGGCGCAGCAGCAGCAGCCGCAGAATTTAATGATGACACTGATTAAAGTAGCATTTACTAATCATTGAGGTATTTGTTTAAAATTCAGTTCATCCAAAATGGAGTAATATGCTTCACGTCAGTGTGTAACCAAGCACAAAAACAGTATGGATGTTGAAACTGTGAATGCTTTCCGTTTACTGTGATGTGCTACTGTAAATATACCTCTTTAATTACTTCTGGTCTCTTTGGTGACCTGTTTAAATTTGTGTACATTATTGTACATAGAATAAAAGTTTTCACGTTTTTATGACAAAATTTGAACAAATAGCTTCTTAATAGAGATAATGATCATATGGTGCGTCAATTGTGCCAAAGATTCCTCCATGAAATTGGAATATATCTAATGCTGGACTCTAGCTTTTCCTTAAAATGAGTGGGAAAATGAAAATGCAGAATAAAGGAACTTTAGTATAAGAGACGAGAAGAAAAATAATCTTGAGTAGAAAGGCTATAAAATGTCTTCTAAAACTAAGGCAAGATAACCTGCTAGAAGCAACTAAAAAACTTGAAACCTGAGCTGCAGCTTAGAGCTAGGTTCAAAAGTCAAAAAACAGGGACAGAATTGAGAAATAGGCTTGTTATCAACTAAACTTTGATATAATCCAGGATGTGCTGTCTAAGTCTTAGTAGAAGCATCACTGTGTTTGCAGTGAGAGCATAAAACTGTCCTTTCAGACTTCTGATGAGATTACACAATAAAAAGGTGGACATTGTTAACTAAAGCAGCCTAAACAGTGCTGACCTGACTCTTCGAGGTGTAATGTACAGTGCTACTGGAAAAAATTCCTCAATAAAGTTCACAGTTTTACAATGAAATTCCACATCATAAAAAGGAAACACAAATCAGGAAAAAAACACTTTAATGGTGTTGTTATAGAGCGTGTTGGCCAATTCCAGTGGGTCTTCTTCTCTGACTGCTGACATTATCTCCAATATTTGACTAAAACAAAAAACAAGGGATCAACTTACTCAGAATATATTGTTAGAGGTATGTAATCACCTTTTTCTATGTAAACATGAGAAGATCTTACACTAGCACCTCTTCTAAGGAAGTTTATGAGTTACTAAAGTTGTCAGTAATGTCTGTAGGAAAGCATCACCAATTACTGTCAACTAGAAGACTCTGGAGCTAACTGGAATATAAAGTTACAGGGTCACGTAAGGGCACCACTAATGGAATTATCCTATAGGGGAGGCGTCCTTTAAAACTCTAGGTCCTAGCACTTTTGTTCCCGGATCATGAGCATCTTAAAAGTAAAATGAAGTCTGCACAGTAAAACAGGCTAAGTAGGCACCTTCCTACTTTGGATTTAGTTTTTTTTTTTATATTTGTTTTACTATTACTAGTATAACTATTTTATATTTATAAATAAAATATATATGCGTATGTATATATATATTTATATGTAATATGAATAAAATGGTATTGAAGAGAATAGGGCCAAAAATTTGAAAGGCACTGCTTATTCATATAGTCTCTAACAGGCAGCAAGGAATGTTTGTGTGCATGCTAAATCCTTGACAAGTGGACTGGAGAGATGGCTCAGCAGTTAAGAGCACTGACTGGTATTCCAGAGGTCCTGAGTTCAAATCCCAGCAACCACATGGTGGTTCACAACCATCTGTAATGAGATCTCTTGCACTCTGCTGGGTGTCTTAAAACAGCTACAGTGTACTCACATGCATTAAATAAAACAAACAAATATGACAGGTTAGGTGTGGCTGTGGGAGGGGCTCTAGGCTTGTACTTAGAGCAGAGAGAAGAGCTCAGAGACTCATTTCTTTGCTCAAAATGAGCAGTGGGTTCCTAGTAATACTATCTGTTTTTATATATGCATTAGGTTATATACAGGTTGTAGTTCGAATTAAACCTTTAAATATTCCTGGTCACGAGCTTTTTCTCCCATTCTGAGGACCCTAAGTGTGAACACTCAAAAGAACTAGGAATGAGGATTTACAGTTAGCTGGACCTTTACAGGTTGTGGTCAGCGTGACACAGACATTCACATGCAGTCTGTGCAGTGAACTCAGACTGCATCTGTAAGTAGTGCTGCTGCTGGCGGACGGTGGCCAAGGGCACGGCTGCTCTGCTGAGACTTGGGCAGCAGAGCCATTTACTGCTCATGTTTGTTAACGTCACCGGTGCTTGGTAAAGCACTGTTTAGTAAGCCAGTAAGCCAGCAACCTGAACAGTACCTTTTTATTCAGTGCATTTTTCTGTACTTTGAGGAATAAAGCTGCAGTTATTTTTAAGAATAGC'
p142
(I12
S'MAAVGPPQQQVRMAQQQVWAALEVALRVPCLYIIDAIFNSYYDSSQSRFCIGLQIFLRLLGIVVSSIVLILSQRSLFKFYMYSSAFLLAATSVLVNYYAALHIDFYGAYNTSAFGIELLPRKGPSLWMALIVLQLTFGIGYVTLLQIQSIYSQLMILNILVPIIGLITELPLHIRETVVLMSSLILIFNTVLVLAVKLKWFYYSTRYVYLLVRHMYRIYGLQLLMEDTWKRIRFPDILRVFWLTRITAQATVLMYILRMANETESFFISWDDFWDVICNLIISGCDSTLTVLGMSAVISSIAHYLGLGILAFIGSTEEDDRRLGFVAPVLFFILALQTGLSGLRPEERLIRLSRNMCLLLTAVLHFIHGMTDPVLMSLSASHVSSFHRHFPVLFVSACLFILPVLLSYVLWHHYALNTWLFAVTAFCVELCLKVIVSLTVYTLFMIDGYYNVLWEKLDDYVYFVRSTGNIIEFIFGVVMFGNGAYTMMFESGSKIRACMMCLHAYFNIYLQVKNGWKTFMNRRTAVKKINSLPEIKGSHLQEIDDVCAICYHEFTTSARITPCNHYFHALCLRKWLYIQDTCPMCHQKVYIEDEIKDNSNASNNNGFIAPNENPNPEEALREDAAGSDRELNEDDSTDCDDDAQRERNGGIQHTGAAAAAAEFNDDTD'
p143
tp144
s(dp145
S'0005794'
p146
(I9
S'Golgi apparatus'
p147
tp148
sS'0005737'
p149
(I2
S'cytoplasm'
p150
tp151
sS'0005783'
p152
(I5
S'endoplasmic reticulum'
p153
tp154
sS'0005886'
p155
(I8
S'plasma membrane'
p156
tp157
sS'0005856'
p158
(I4
S'cytoskeleton'
p159
tp160
sS'0005764'
p161
(I7
S'lysosome'
p162
tp163
sS'0005777'
p164
(I3
S'peroxisome'
p165
tp166
sS'0005739'
p167
(I6
S'mitochondrion'
p168
tp169
sS'0005576'
p170
(I1
S'extracellular region'
p171
tp172
sS'0005634'
p173
(I0
S'nucleus'
p174
tp175
s(dp176
I0
(lp177
I0
aI1
aI2
aI3
aI4
asI1
(lp178
I2
aI3
aI5
aI6
aI0
asI2
(lp179
I1
aI7
aI5
aI2
aI6
asI3
(lp180
I8
aI9
aI7
aI5
aI6
aI2
asI4
(lp181
I0
aI2
aI3
aI5
asI5
(lp182
I8
aI1
aI3
aI5
aI9
asI6
(lp183
I0
aI6
aI3
aI2
aI5
aI1
asI7
(lp184
I0
aI2
aI6
aI8
aI5
asI8
(lp185
I2
aI3
aI0
aI5
aI6
asI9
(lp186
I0
aI2
aI6
aI8
asI10
(lp187
I1
aI3
aI5
aI9
asI11
(lp188
I8
aI1
aI5
aI2
asI12
(lp189
I8
aI5
aI7
aI0
aI2
aI1
aI6
asI13
(lp190
I0
aI2
aI6
aI9
asI14
(lp191
I2
aI3
aI6
aI5
aI8
asI15
(lp192
I0
aI3
aI2
aI8
asI16
(lp193
I1
aI8
aI7
aI5
aI3
asI17
(lp194
I6
aI0
aI2
aI1
aI3
aI5
asI18
(lp195
I8
aI2
aI3
aI5
aI1
aI0
asI19
(lp196
I8
aI2
aI3
aI0
aI5
aI9
asI20
(lp197
I0
aI2
aI6
aI5
asI21
(lp198
I6
aI0
aI2
aI3
aI1
asI22
(lp199
I1
aI0
aI3
aI2
asI23
(lp200
I8
aI3
aI6
aI2
aI0
asI24
(lp201
I1
aI6
aI0
aI3
aI2
asI25
(lp202
I1
aI8
aI6
aI3
aI2
aI5
asI26
(lp203
I1
aI2
aI3
aI5
aI9
aI0
asI27
(lp204
I0
aI2
aI3
asI28
(lp205
I1
aI8
aI7
aI5
asI29
(lp206
I8
aI3
aI2
aI6
aI5
aI0
asI30
(lp207
I0
aI1
aI2
aI8
aI3
asI31
(lp208
I0
aI2
aI6
aI8
aI9
aI3
asI32
(lp209
I2
aI6
aI0
aI8
aI5
aI1
aI9
aI3
asI33
(lp210
I8
aI1
aI3
aI5
aI2
asI34
(lp211
I0
aI8
aI2
aI5
asI35
(lp212
I0
aI2
aI3
aI1
asI36
(lp213
I1
aI3
aI2
aI8
aI0
asI37
(lp214
I2
aI3
aI0
aI5
asI38
(lp215
I0
aI2
aI6
aI3
aI1
aI7
asI39
(lp216
I0
aI6
aI5
aI3
aI1
aI2
aI8
asI40
(lp217
I0
aI2
aI6
aI3
aI5
asI41
(lp218
I0
aI2
aI3
aI5
asI42
(lp219
I8
aI2
aI3
aI0
aI5
asI43
(lp220
I0
aI2
aI6
aI3
aI5
asI44
(lp221
I0
aI2
aI3
aI5
asI45
(lp222
I1
aI3
aI2
aI0
aI5
aI8
asI46
(lp223
I2
aI0
aI3
aI6
aI5
as(dp224
I0
I0
sI1
I0
sI2
I0
sI3
I0
sI4
I0
sI5
I0
sI6
I0
sI7
I0
sI8
I0
sI9
I0
sI10
I0
sI11
I0
sI12
I0
sI13
I0
sI14
I0
sI15
I0
sI16
I0
sI17
I0
sI18
I0
sI19
I0
sI20
I0
sI21
I0
sI22
I0
sI23
I0
sI24
I0
sI25
I0
sI26
I0
sI27
I0
sI28
I0
sI29
I0
sI30
I0
sI31
I0
sI32
I0
sI33
I0
sI34
I0
sI35
I0
sI36
I0
sI37
I0
sI38
I0
sI39
I0
sI40
I0
sI41
I0
sI42
I0
sI43
I0
sI44
I0
sI45
I0
sI46
I0
stp225
.